
block/blk-mq-sched.o:     file format elf64-littleaarch64


Disassembly of section .text:

0000000000000000 <sched_rq_cmp>:
	struct request *rqa = container_of(a, struct request, queuelist);
	struct request *rqb = container_of(b, struct request, queuelist);

	return rqa->mq_hctx > rqb->mq_hctx;
}

       0:	f85c8040 	ldur	x0, [x2, #-56]
	struct request *rqb = container_of(b, struct request, queuelist);
       4:	d503233f 	paciasp

       8:	f85c8021 	ldur	x1, [x1, #-56]
static bool blk_mq_dispatch_hctx_list(struct list_head *rq_list)
       c:	d50323bf 	autiasp

      10:	eb00003f 	cmp	x1, x0
static bool blk_mq_dispatch_hctx_list(struct list_head *rq_list)
      14:	1a9f97e0 	cset	w0, hi  // hi = pmore
      18:	d65f03c0 	ret
      1c:	d503201f 	nop

0000000000000020 <blk_mq_sched_try_insert_merge>:
	if (!queue_virt_boundary(q))
		return false;
	return __bvec_gap_to_prev(q, bprv, offset);
}

static inline bool rq_mergeable(struct request *rq)
      20:	b9401823 	ldr	w3, [x1, #24]
{
	if (blk_rq_is_passthrough(rq))
		return false;

	if (req_op(rq) == REQ_OP_FLUSH)
		return false;
      24:	52801f64 	mov	w4, #0xfb                  	// #251
	 */
	rq_end_io_fn *end_io;
	void *end_io_data;
};

#define req_op(req) \
      28:	12001c65 	and	w5, w3, #0xff
      2c:	0a040064 	and	w4, w3, w4
 */
#define BLKCG_MAX_POLS		6

static inline bool blk_op_is_passthrough(unsigned int op)
{
	op &= REQ_OP_MASK;
      30:	510088a7 	sub	w7, w5, #0x22

	if (req_op(rq) == REQ_OP_WRITE_ZEROES)
		return false;
      34:	710004ff 	cmp	w7, #0x1
      38:	7a4288a4 	ccmp	w5, #0x2, #0x4, hi  // hi = pmore
      3c:	7a491884 	ccmp	w4, #0x9, #0x4, ne  // ne = any
      40:	52800004 	mov	w4, #0x0                   	// #0
      44:	54000061 	b.ne	50 <blk_mq_sched_try_insert_merge+0x30>  // b.any
}
EXPORT_SYMBOL_GPL(blk_mq_sched_try_insert_merge);

static bool blk_mq_sched_bypass_insert(struct blk_mq_hw_ctx *hctx,
				       struct request *rq)
{
      48:	2a0403e0 	mov	w0, w4
      4c:	d65f03c0 	ret

	if (req_op(rq) == REQ_OP_ZONE_APPEND)
		return false;
      50:	12121063 	and	w3, w3, #0x7c000
      54:	52800004 	mov	w4, #0x0                   	// #0
      58:	120f7463 	and	w3, w3, #0xfffe7fff
      5c:	35ffff63 	cbnz	w3, 48 <blk_mq_sched_try_insert_merge+0x28>

	if (rq->cmd_flags & REQ_NOMERGE_FLAGS)
      60:	b9401c25 	ldr	w5, [x1, #28]
      64:	52800343 	mov	w3, #0x1a                  	// #26
      68:	72a00083 	movk	w3, #0x4, lsl #16
      6c:	6a0300bf 	tst	w5, w3
      70:	54fffec1 	b.ne	48 <blk_mq_sched_try_insert_merge+0x28>  // b.any
static bool blk_mq_sched_bypass_insert(struct blk_mq_hw_ctx *hctx,
      74:	d503233f 	paciasp
      78:	a9bf7bfd 	stp	x29, x30, [sp, #-16]!
      7c:	910003fd 	mov	x29, sp
				       struct request *rq)
      80:	94000000 	bl	0 <elv_attempt_insert_merge>
      84:	12001c04 	and	w4, w0, #0xff
{
      88:	2a0403e0 	mov	w0, w4
      8c:	a8c17bfd 	ldp	x29, x30, [sp], #16
      90:	d50323bf 	autiasp
      94:	d65f03c0 	ret

0000000000000098 <__blk_mq_do_dispatch_sched>:
	struct elevator_queue *e = q->elevator;
      98:	d503233f 	paciasp
      9c:	a9b67bfd 	stp	x29, x30, [sp, #-160]!
      a0:	910003fd 	mov	x29, sp
      a4:	a90153f3 	stp	x19, x20, [sp, #16]
      a8:	aa0003f3 	mov	x19, x0
      ac:	a9025bf5 	stp	x21, x22, [sp, #32]
      b0:	90000000 	adrp	x0, 0 <__stack_chk_guard>
      b4:	a90363f7 	stp	x23, x24, [sp, #48]
      b8:	91000000 	add	x0, x0, #0x0
      bc:	a9046bf9 	stp	x25, x26, [sp, #64]

      c0:	9101e3b5 	add	x21, x29, #0x78
	struct elevator_queue *e = q->elevator;
      c4:	a90573fb 	stp	x27, x28, [sp, #80]
      c8:	5280003a 	mov	w26, #0x1                   	// #1
	bool multi_hctxs = false, run_queue = false;
      cc:	f9406a79 	ldr	x25, [x19, #208]
	struct elevator_queue *e = q->elevator;
      d0:	f9400001 	ldr	x1, [x0]
      d4:	f9004fa1 	str	x1, [x29, #152]
      d8:	d2800001 	mov	x1, #0x0                   	// #0
	else
      dc:	b9411260 	ldr	w0, [x19, #272]
	bool dispatched = false, busy = false;
      e0:	f9400737 	ldr	x23, [x25, #8]

      e4:	a907d7b5 	stp	x21, x21, [x29, #120]
	else
      e8:	35000040 	cbnz	w0, f0 <__blk_mq_do_dispatch_sched+0x58>
	do {
      ec:	b940f33a 	ldr	w26, [x25, #240]
			break;
      f0:	91002276 	add	x22, x19, #0x8
		max_dispatch = hctx->queue->nr_requests;
      f4:	52800014 	mov	w20, #0x0                   	// #0
      f8:	52800018 	mov	w24, #0x0                   	// #0
		/*
      fc:	5280003b 	mov	w27, #0x1                   	// #1

     100:	f94002e0 	ldr	x0, [x23]
     104:	f9404001 	ldr	x1, [x0, #128]
     108:	b40000a1 	cbz	x1, 11c <__blk_mq_do_dispatch_sched+0x84>
     10c:	aa1303e0 	mov	x0, x19
     110:	d63f0020 	blr	x1
     114:	72001c1f 	tst	w0, #0xff
     118:	540008c0 	b.eq	230 <__blk_mq_do_dispatch_sched+0x198>  // b.none
 * to the list entry is list_del_init(). Eg. it cannot be used
 * if another CPU could re-list_add() it.
 */
static inline int list_empty_careful(const struct list_head *head)
{
	struct list_head *next = smp_load_acquire(&head->next);
     11c:	c8dffec0 	ldar	x0, [x22]
	return (next == head) && (next == head->prev);
     120:	eb0002df 	cmp	x22, x0
     124:	54001021 	b.ne	328 <__blk_mq_do_dispatch_sched+0x290>  // b.any
     128:	f9400a60 	ldr	x0, [x19, #16]
     12c:	eb0002df 	cmp	x22, x0
     130:	54000fc1 	b.ne	328 <__blk_mq_do_dispatch_sched+0x290>  // b.any
{
	if (q->mq_ops->get_budget)
		return q->mq_ops->get_budget(q);
	return 0;
}

     134:	f9401f20 	ldr	x0, [x25, #56]
     138:	f9400801 	ldr	x1, [x0, #16]
     13c:	b4000e01 	cbz	x1, 2fc <__blk_mq_do_dispatch_sched+0x264>
static inline void blk_mq_set_rq_budget_token(struct request *rq, int token)
     140:	aa1903e0 	mov	x0, x25
     144:	d63f0020 	blr	x1
     148:	2a0003fc 	mov	w28, w0

     14c:	37f80720 	tbnz	w0, #31, 230 <__blk_mq_do_dispatch_sched+0x198>
			blk_mq_put_dispatch_budget(q, budget_token);
     150:	f94002e2 	ldr	x2, [x23]
     154:	aa1303e0 	mov	x0, x19
     158:	f9403c42 	ldr	x2, [x2, #120]
     15c:	d63f0040 	blr	x2
     160:	aa0003e2 	mov	x2, x0
			/*
     164:	b5000380 	cbnz	x0, 1d4 <__blk_mq_do_dispatch_sched+0x13c>
static inline int blk_mq_get_dispatch_budget(struct request_queue *q)
     168:	f9401f20 	ldr	x0, [x25, #56]
     16c:	f9400c02 	ldr	x2, [x0, #24]
     170:	b4000082 	cbz	x2, 180 <__blk_mq_do_dispatch_sched+0xe8>
{
     174:	2a1c03e1 	mov	w1, w28
     178:	aa1903e0 	mov	x0, x25
     17c:	d63f0040 	blr	x2
			blk_mq_delay_run_hw_queues(q, BLK_MQ_BUDGET_DELAY);
     180:	350005b4 	cbnz	w20, 234 <__blk_mq_do_dispatch_sched+0x19c>
		/*
     184:	d2800061 	mov	x1, #0x3                   	// #3
     188:	aa1903e0 	mov	x0, x25
     18c:	52800014 	mov	w20, #0x0                   	// #0
     190:	94000000 	bl	0 <blk_mq_delay_run_hw_queues>
     194:	d503201f 	nop
static int blk_mq_do_dispatch_sched(struct blk_mq_hw_ctx *hctx)
     198:	90000000 	adrp	x0, 0 <__stack_chk_guard>
     19c:	9100001c 	add	x28, x0, #0x0
     1a0:	f9404fa2 	ldr	x2, [x29, #152]
     1a4:	f9400381 	ldr	x1, [x28]
     1a8:	ca010041 	eor	x1, x2, x1
     1ac:	2a1403e0 	mov	w0, w20
     1b0:	b5000d81 	cbnz	x1, 360 <__blk_mq_do_dispatch_sched+0x2c8>
     1b4:	a94153f3 	ldp	x19, x20, [sp, #16]
     1b8:	a9425bf5 	ldp	x21, x22, [sp, #32]
     1bc:	a94363f7 	ldp	x23, x24, [sp, #48]
     1c0:	a9446bf9 	ldp	x25, x26, [sp, #64]
     1c4:	a94573fb 	ldp	x27, x28, [sp, #80]
     1c8:	a8ca7bfd 	ldp	x29, x30, [sp], #160
     1cc:	d50323bf 	autiasp
     1d0:	d65f03c0 	ret

	if (rq->q->mq_ops->set_rq_budget_token)
		rq->q->mq_ops->set_rq_budget_token(rq, token);
}

static inline int blk_mq_get_rq_budget_token(struct request *rq)
     1d4:	f9400043 	ldr	x3, [x2]
     1d8:	f9401c63 	ldr	x3, [x3, #56]
     1dc:	f9401063 	ldr	x3, [x3, #32]
     1e0:	b40000a3 	cbz	x3, 1f4 <__blk_mq_do_dispatch_sched+0x15c>
     1e4:	f90037a2 	str	x2, [x29, #104]
{
     1e8:	2a1c03e1 	mov	w1, w28
     1ec:	d63f0060 	blr	x3
     1f0:	f94037a2 	ldr	x2, [x29, #104]
	__list_add(new, head->prev, head);
     1f4:	f94043a1 	ldr	x1, [x29, #128]
		if (rq->mq_hctx != hctx)
     1f8:	91012043 	add	x3, x2, #0x48
	new->prev = prev;
     1fc:	a9048455 	stp	x21, x1, [x2, #72]
	} while (count < max_dispatch);
     200:	aa0203e0 	mov	x0, x2
	next->prev = new;
     204:	f90043a3 	str	x3, [x29, #128]
			multi_hctxs = true;
     208:	11000694 	add	w20, w20, #0x1
	WRITE_ONCE(prev->next, new);
     20c:	f9000023 	str	x3, [x1]

     210:	f9400841 	ldr	x1, [x2, #16]
		/*
     214:	eb13003f 	cmp	x1, x19
     218:	1a9b0318 	csel	w24, w24, w27, eq  // eq = none
	} while (count < max_dispatch);
     21c:	94000000 	bl	0 <blk_mq_get_driver_tag>
     220:	72001c1f 	tst	w0, #0xff
     224:	54000060 	b.eq	230 <__blk_mq_do_dispatch_sched+0x198>  // b.none
	if (!count) {
     228:	6b1a029f 	cmp	w20, w26
     22c:	54fff6a3 	b.cc	100 <__blk_mq_do_dispatch_sched+0x68>  // b.lo, b.ul, b.last
			blk_mq_delay_run_hw_queues(q, BLK_MQ_BUDGET_DELAY);
     230:	34fffb54 	cbz	w20, 198 <__blk_mq_do_dispatch_sched+0x100>
	LIST_HEAD(rq_list);
     234:	52800016 	mov	w22, #0x0                   	// #0
		 * Requests from different hctx may be dequeued from some
     238:	340007f8 	cbz	w24, 334 <__blk_mq_do_dispatch_sched+0x29c>
			dispatched |= blk_mq_dispatch_hctx_list(&rq_list);
     23c:	90000002 	adrp	x2, 0 <sched_rq_cmp>
     240:	910223b3 	add	x19, x29, #0x88
	LIST_HEAD(rq_list);
     244:	52800014 	mov	w20, #0x0                   	// #0
			dispatched |= blk_mq_dispatch_hctx_list(&rq_list);
     248:	aa1503e1 	mov	x1, x21
     24c:	91000042 	add	x2, x2, #0x0
     250:	d2800000 	mov	x0, #0x0                   	// #0
     254:	94000000 	bl	0 <list_sort>
	LIST_HEAD(hctx_list);
     258:	f9403fa5 	ldr	x5, [x29, #120]
			list_cut_before(&hctx_list, rq_list, &rq->queuelist);
     25c:	d10120a4 	sub	x4, x5, #0x48
     260:	aa0503e3 	mov	x3, x5
	struct request *rq;
     264:	f85c80a0 	ldur	x0, [x5, #-56]
			list_cut_before(&hctx_list, rq_list, &rq->queuelist);
     268:	eb1500bf 	cmp	x5, x21

     26c:	a908cfb3 	stp	x19, x19, [x29, #136]
			list_cut_before(&hctx_list, rq_list, &rq->queuelist);
     270:	54000740 	b.eq	358 <__blk_mq_do_dispatch_sched+0x2c0>  // b.none
			goto dispatch;
     274:	f85c80a6 	ldur	x6, [x5, #-56]
	list_for_each_entry(rq, rq_list, queuelist) {
     278:	52800002 	mov	w2, #0x0                   	// #0
			goto dispatch;
     27c:	eb0000df 	cmp	x6, x0
     280:	540000a0 	b.eq	294 <__blk_mq_do_dispatch_sched+0x1fc>  // b.none
     284:	14000020 	b	304 <__blk_mq_do_dispatch_sched+0x26c>
     288:	f85c8021 	ldur	x1, [x1, #-56]
     28c:	eb0100df 	cmp	x6, x1
     290:	540003a1 	b.ne	304 <__blk_mq_do_dispatch_sched+0x26c>  // b.any
			list_cut_before(&hctx_list, rq_list, &rq->queuelist);
     294:	f9402481 	ldr	x1, [x4, #72]
	list_splice_tail_init(rq_list, &hctx_list);
     298:	11000442 	add	w2, w2, #0x1
			list_cut_before(&hctx_list, rq_list, &rq->queuelist);
     29c:	aa0103e3 	mov	x3, x1
     2a0:	d1012024 	sub	x4, x1, #0x48
     2a4:	eb15003f 	cmp	x1, x21
     2a8:	54ffff01 	b.ne	288 <__blk_mq_do_dispatch_sched+0x1f0>  // b.any
	return READ_ONCE(head->next) == head;
     2ac:	f9403fa1 	ldr	x1, [x29, #120]
 * The list at @list is reinitialised
 */
static inline void list_splice_tail_init(struct list_head *list,
					 struct list_head *head)
{
	if (!list_empty(list)) {
     2b0:	eb15003f 	cmp	x1, x21
     2b4:	54000100 	b.eq	2d4 <__blk_mq_do_dispatch_sched+0x23c>  // b.none
	struct list_head *last = list->prev;
     2b8:	f94043a1 	ldr	x1, [x29, #128]
	prev->next = first;
     2bc:	f90047a5 	str	x5, [x29, #136]
	first->prev = prev;
     2c0:	f90004b3 	str	x19, [x5, #8]
	last->next = next;
     2c4:	f9000033 	str	x19, [x1]
	WRITE_ONCE(list->next, list);
     2c8:	f9003fb5 	str	x21, [x29, #120]
	list->prev = list;
     2cc:	f90043b5 	str	x21, [x29, #128]
	next->prev = last;
     2d0:	f9004ba1 	str	x1, [x29, #144]

     2d4:	aa1303e1 	mov	x1, x19
     2d8:	94000000 	bl	0 <blk_mq_dispatch_rq_list>
	return READ_ONCE(head->next) == head;
     2dc:	f9403fa1 	ldr	x1, [x29, #120]
     2e0:	12001c00 	and	w0, w0, #0xff
	} else {
     2e4:	2a000294 	orr	w20, w20, w0
		dispatched = blk_mq_dispatch_rq_list(hctx, &rq_list, count);
     2e8:	eb15003f 	cmp	x1, x21
     2ec:	54fffb61 	b.ne	258 <__blk_mq_do_dispatch_sched+0x1c0>  // b.any
	return !!dispatched;
     2f0:	34fff556 	cbz	w22, 198 <__blk_mq_do_dispatch_sched+0x100>
}
     2f4:	12800154 	mov	w20, #0xfffffff5            	// #-11
     2f8:	17ffffa8 	b	198 <__blk_mq_do_dispatch_sched+0x100>
{
     2fc:	5280001c 	mov	w28, #0x0                   	// #0
     300:	17ffff94 	b	150 <__blk_mq_do_dispatch_sched+0xb8>
	if (head->next == entry) {
     304:	eb0300bf 	cmp	x5, x3
     308:	54000240 	b.eq	350 <__blk_mq_do_dispatch_sched+0x2b8>  // b.none
	list->next->prev = list;
     30c:	f90004b3 	str	x19, [x5, #8]
	list->prev = entry->prev;
     310:	f9402881 	ldr	x1, [x4, #80]
     314:	a90887a5 	stp	x5, x1, [x29, #136]
	list->prev->next = list;
     318:	f9000033 	str	x19, [x1]
	entry->prev = head;
     31c:	f9002895 	str	x21, [x4, #80]
	head->next = entry;
     320:	f9003fa3 	str	x3, [x29, #120]
     324:	17ffffec 	b	2d4 <__blk_mq_do_dispatch_sched+0x23c>
			blk_mq_delay_run_hw_queues(q, BLK_MQ_BUDGET_DELAY);
     328:	34fffe74 	cbz	w20, 2f4 <__blk_mq_do_dispatch_sched+0x25c>
     32c:	52800036 	mov	w22, #0x1                   	// #1
		 * Requests from different hctx may be dequeued from some
     330:	35fff878 	cbnz	w24, 23c <__blk_mq_do_dispatch_sched+0x1a4>

     334:	2a1403e2 	mov	w2, w20
     338:	aa1503e1 	mov	x1, x21
     33c:	aa1303e0 	mov	x0, x19
     340:	94000000 	bl	0 <blk_mq_dispatch_rq_list>
     344:	12001c14 	and	w20, w0, #0xff
	return !!dispatched;
     348:	34fff296 	cbz	w22, 198 <__blk_mq_do_dispatch_sched+0x100>
     34c:	17ffffea 	b	2f4 <__blk_mq_do_dispatch_sched+0x25c>
	WRITE_ONCE(list->next, list);
     350:	f90047b3 	str	x19, [x29, #136]
     354:	17ffffe0 	b	2d4 <__blk_mq_do_dispatch_sched+0x23c>
	list_for_each_entry(rq, rq_list, queuelist) {
     358:	52800002 	mov	w2, #0x0                   	// #0
     35c:	17ffffd4 	b	2ac <__blk_mq_do_dispatch_sched+0x214>
static int blk_mq_do_dispatch_sched(struct blk_mq_hw_ctx *hctx)
     360:	94000000 	bl	0 <__stack_chk_fail>
     364:	d503201f 	nop

0000000000000368 <blk_mq_sched_tags_teardown>:
{
	struct blk_mq_hw_ctx *hctx;
	int i;

	queue_for_each_hw_ctx(q, hctx, i) {
		if (hctx->sched_tags) {
     368:	d503233f 	paciasp
     36c:	a9bd7bfd 	stp	x29, x30, [sp, #-48]!
     370:	910003fd 	mov	x29, sp
     374:	f9000ff4 	str	x20, [sp, #24]
     378:	aa0003f4 	mov	x20, x0
     37c:	f90017f6 	str	x22, [sp, #40]
     380:	2a0103f6 	mov	w22, w1
			if (!blk_mq_is_shared_tags(q->tag_set->flags))
				blk_mq_free_rq_map(hctx->sched_tags);
			hctx->sched_tags = NULL;
		}
     384:	b9405801 	ldr	w1, [x0, #88]
     388:	340002a1 	cbz	w1, 3dc <blk_mq_sched_tags_teardown+0x74>
     38c:	f9000bb3 	str	x19, [x29, #16]
     390:	52800013 	mov	w19, #0x0                   	// #0
     394:	f90013b5 	str	x21, [x29, #32]
     398:	14000006 	b	3b0 <blk_mq_sched_tags_teardown+0x48>
	}

	if (blk_mq_is_shared_tags(flags))
		blk_mq_exit_sched_shared_tags(q);
     39c:	f900b2bf 	str	xzr, [x21, #352]
     3a0:	b9405a81 	ldr	w1, [x20, #88]
		}
     3a4:	11000673 	add	w19, w19, #0x1
     3a8:	6b13003f 	cmp	w1, w19
     3ac:	54000149 	b.ls	3d4 <blk_mq_sched_tags_teardown+0x6c>  // b.plast
     3b0:	f9402a80 	ldr	x0, [x20, #80]
     3b4:	f873d815 	ldr	x21, [x0, w19, sxtw #3]
	}
     3b8:	f940b2a0 	ldr	x0, [x21, #352]
     3bc:	b4ffff40 	cbz	x0, 3a4 <blk_mq_sched_tags_teardown+0x3c>

     3c0:	f942e681 	ldr	x1, [x20, #1480]
{
     3c4:	b9405821 	ldr	w1, [x1, #88]
     3c8:	371ffea1 	tbnz	w1, #3, 39c <blk_mq_sched_tags_teardown+0x34>
	if (blk_mq_is_shared_tags(flags))
     3cc:	94000000 	bl	0 <blk_mq_free_rq_map>
     3d0:	17fffff3 	b	39c <blk_mq_sched_tags_teardown+0x34>
     3d4:	f9400bb3 	ldr	x19, [x29, #16]
     3d8:	f94013b5 	ldr	x21, [x29, #32]
}

static int blk_mq_init_sched_shared_tags(struct request_queue *queue)
{
     3dc:	36180096 	tbz	w22, #3, 3ec <blk_mq_sched_tags_teardown+0x84>
static void blk_mq_sched_tags_teardown(struct request_queue *q, unsigned int flags)
     3e0:	f941f280 	ldr	x0, [x20, #992]
     3e4:	94000000 	bl	0 <blk_mq_free_rq_map>
{
     3e8:	f901f29f 	str	xzr, [x20, #992]
	struct blk_mq_tag_set *set = queue->tag_set;

     3ec:	f9400ff4 	ldr	x20, [sp, #24]
     3f0:	f94017f6 	ldr	x22, [sp, #40]
     3f4:	a8c37bfd 	ldp	x29, x30, [sp], #48
     3f8:	d50323bf 	autiasp
     3fc:	d65f03c0 	ret

0000000000000400 <blk_mq_do_dispatch_ctx>:
	LIST_HEAD(rq_list);
     400:	d503233f 	paciasp
     404:	a9b87bfd 	stp	x29, x30, [sp, #-128]!
     408:	910003fd 	mov	x29, sp
     40c:	a90153f3 	stp	x19, x20, [sp, #16]
     410:	aa0003f3 	mov	x19, x0
     414:	a9025bf5 	stp	x21, x22, [sp, #32]
     418:	91002014 	add	x20, x0, #0x8
     41c:	a90363f7 	stp	x23, x24, [sp, #48]
     420:	90000018 	adrp	x24, 0 <__stack_chk_guard>
     424:	a9046bf9 	stp	x25, x26, [sp, #64]
     428:	91000301 	add	x1, x24, #0x0
     42c:	f9002bfb 	str	x27, [sp, #80]

     430:	9103a017 	add	x23, x0, #0xe8
	int ret = 0;
     434:	9101a3b5 	add	x21, x29, #0x68
     438:	a906d7b5 	stp	x21, x21, [x29, #104]
	LIST_HEAD(rq_list);
     43c:	f9400020 	ldr	x0, [x1]
     440:	f9003fa0 	str	x0, [x29, #120]
     444:	d2800000 	mov	x0, #0x0                   	// #0
	struct blk_mq_ctx *ctx = READ_ONCE(hctx->dispatch_from);
     448:	f9406a76 	ldr	x22, [x19, #208]
	struct request *rq;
     44c:	f940867b 	ldr	x27, [x19, #264]
     450:	14000028 	b	4f0 <blk_mq_do_dispatch_ctx+0xf0>
static inline void blk_mq_set_rq_budget_token(struct request *rq, int token)
     454:	aa1603e0 	mov	x0, x22
     458:	d63f0020 	blr	x1
     45c:	2a0003fa 	mov	w26, w0

     460:	37f80860 	tbnz	w0, #31, 56c <blk_mq_do_dispatch_ctx+0x16c>
			blk_mq_put_dispatch_budget(q, budget_token);
     464:	aa1b03e1 	mov	x1, x27
     468:	aa1303e0 	mov	x0, x19
     46c:	94000000 	bl	0 <blk_mq_dequeue_from_ctx>
     470:	aa0003f9 	mov	x25, x0
			/*
     474:	b4000660 	cbz	x0, 540 <blk_mq_do_dispatch_ctx+0x140>
static inline int blk_mq_get_rq_budget_token(struct request *rq)
     478:	f9400320 	ldr	x0, [x25]
     47c:	f9401c00 	ldr	x0, [x0, #56]
     480:	f9401002 	ldr	x2, [x0, #32]
     484:	b4000082 	cbz	x2, 494 <blk_mq_do_dispatch_ctx+0x94>
{
     488:	2a1a03e1 	mov	w1, w26
     48c:	aa1903e0 	mov	x0, x25
     490:	d63f0040 	blr	x2
	__list_add(new, head, head->next);
     494:	f94037a0 	ldr	x0, [x29, #104]
		/* round robin for fair dispatch */
     498:	91012323 	add	x3, x25, #0x48
	WRITE_ONCE(prev->next, new);
     49c:	f90037a3 	str	x3, [x29, #104]
	WRITE_ONCE(hctx->dispatch_from, ctx);
     4a0:	52800022 	mov	w2, #0x1                   	// #1
     4a4:	aa1503e1 	mov	x1, x21
	next->prev = new;
     4a8:	f9000403 	str	x3, [x0, #8]
	new->prev = prev;
     4ac:	a904d720 	stp	x0, x21, [x25, #72]
	if (++idx == hctx->nr_ctx)
     4b0:	f9400726 	ldr	x6, [x25, #8]
     4b4:	79422a63 	ldrh	w3, [x19, #276]

     4b8:	79422e65 	ldrh	w5, [x19, #278]

     4bc:	f9408e64 	ldr	x4, [x19, #280]
	if (++idx == hctx->nr_ctx)
     4c0:	8b0304c3 	add	x3, x6, x3, lsl #1
	WRITE_ONCE(hctx->dispatch_from, ctx);
     4c4:	f9400b20 	ldr	x0, [x25, #16]
	if (++idx == hctx->nr_ctx)
     4c8:	79408863 	ldrh	w3, [x3, #68]

     4cc:	0b020063 	add	w3, w3, w2
     4d0:	12003c63 	and	w3, w3, #0xffff
     4d4:	6b0300bf 	cmp	w5, w3
     4d8:	d37d3c63 	ubfiz	x3, x3, #3, #16
     4dc:	9a9f1063 	csel	x3, x3, xzr, ne  // ne = any

     4e0:	f863689b 	ldr	x27, [x4, x3]
	WRITE_ONCE(hctx->dispatch_from, ctx);
     4e4:	94000000 	bl	0 <blk_mq_dispatch_rq_list>
     4e8:	72001c1f 	tst	w0, #0xff
     4ec:	54000400 	b.eq	56c <blk_mq_do_dispatch_ctx+0x16c>  // b.none
	struct list_head *next = smp_load_acquire(&head->next);
     4f0:	c8dffe80 	ldar	x0, [x20]
	return (next == head) && (next == head->prev);
     4f4:	eb14001f 	cmp	x0, x20
     4f8:	54000581 	b.ne	5a8 <blk_mq_do_dispatch_ctx+0x1a8>  // b.any
     4fc:	f9400a60 	ldr	x0, [x19, #16]
     500:	eb00029f 	cmp	x20, x0
     504:	54000521 	b.ne	5a8 <blk_mq_do_dispatch_ctx+0x1a8>  // b.any

     508:	aa1703e0 	mov	x0, x23
     50c:	94000000 	bl	0 <sbitmap_any_bit_set>
     510:	72001c1f 	tst	w0, #0xff
     514:	540002c0 	b.eq	56c <blk_mq_do_dispatch_ctx+0x16c>  // b.none

     518:	f9401ec0 	ldr	x0, [x22, #56]
     51c:	f9400801 	ldr	x1, [x0, #16]
     520:	b5fff9a1 	cbnz	x1, 454 <blk_mq_do_dispatch_ctx+0x54>
			blk_mq_put_dispatch_budget(q, budget_token);
     524:	aa1b03e1 	mov	x1, x27
     528:	aa1303e0 	mov	x0, x19
{
     52c:	5280001a 	mov	w26, #0x0                   	// #0
     530:	94000000 	bl	0 <blk_mq_dequeue_from_ctx>
     534:	aa0003f9 	mov	x25, x0
			/*
     538:	b5fffa00 	cbnz	x0, 478 <blk_mq_do_dispatch_ctx+0x78>
     53c:	d503201f 	nop
static inline int blk_mq_get_dispatch_budget(struct request_queue *q)
     540:	f9401ec0 	ldr	x0, [x22, #56]
     544:	f9400c02 	ldr	x2, [x0, #24]
     548:	b4000082 	cbz	x2, 558 <blk_mq_do_dispatch_ctx+0x158>
{
     54c:	2a1a03e1 	mov	w1, w26
     550:	aa1603e0 	mov	x0, x22
     554:	d63f0040 	blr	x2
		}
     558:	aa1603e0 	mov	x0, x22
     55c:	d2800061 	mov	x1, #0x3                   	// #3
     560:	94000000 	bl	0 <blk_mq_delay_run_hw_queues>

     564:	52800000 	mov	w0, #0x0                   	// #0

     568:	14000002 	b	570 <blk_mq_do_dispatch_ctx+0x170>

     56c:	52800000 	mov	w0, #0x0                   	// #0
}
     570:	f900867b 	str	x27, [x19, #264]
static int __blk_mq_sched_dispatch_requests(struct blk_mq_hw_ctx *hctx)
     574:	91000318 	add	x24, x24, #0x0
     578:	f9403fa2 	ldr	x2, [x29, #120]
     57c:	f9400301 	ldr	x1, [x24]
     580:	ca010041 	eor	x1, x2, x1
     584:	b5000161 	cbnz	x1, 5b0 <blk_mq_do_dispatch_ctx+0x1b0>
     588:	a94153f3 	ldp	x19, x20, [sp, #16]
     58c:	a9425bf5 	ldp	x21, x22, [sp, #32]
     590:	a94363f7 	ldp	x23, x24, [sp, #48]
     594:	a9446bf9 	ldp	x25, x26, [sp, #64]
     598:	f9402bfb 	ldr	x27, [sp, #80]
     59c:	a8c87bfd 	ldp	x29, x30, [sp], #128
     5a0:	d50323bf 	autiasp
     5a4:	d65f03c0 	ret
		}
     5a8:	12800140 	mov	w0, #0xfffffff5            	// #-11
     5ac:	17fffff1 	b	570 <blk_mq_do_dispatch_ctx+0x170>
static int __blk_mq_sched_dispatch_requests(struct blk_mq_hw_ctx *hctx)
     5b0:	94000000 	bl	0 <__stack_chk_fail>
     5b4:	d503201f 	nop

00000000000005b8 <blk_mq_sched_mark_restart_hctx>:
 * @addr: Address to start counting from
 */
static __always_inline int
arch_test_bit(unsigned int nr, const volatile unsigned long *addr)
{
	return 1UL & (addr[BIT_WORD(nr)] >> (nr & (BITS_PER_LONG-1)));
     5b8:	f9400c01 	ldr	x1, [x0, #24]
	if (test_bit(BLK_MQ_S_SCHED_RESTART, &hctx->state))
     5bc:	721e003f 	tst	w1, #0x4
     5c0:	54000040 	b.eq	5c8 <blk_mq_sched_mark_restart_hctx+0x10>  // b.none
     5c4:	d65f03c0 	ret
{
     5c8:	d503233f 	paciasp
	set_bit(BLK_MQ_S_SCHED_RESTART, &hctx->state);
     5cc:	91006002 	add	x2, x0, #0x18
}

static __always_inline bool arch_static_branch_jump(struct static_key *key,
						    bool branch)
{
	asm_volatile_goto(
     5d0:	14000006 	b	5e8 <blk_mq_sched_mark_restart_hctx+0x30>
     5d4:	14000005 	b	5e8 <blk_mq_sched_mark_restart_hctx+0x30>
	: [i] "+r" (i), [v] "+Q" (v->counter)				\
	: "r" (v));							\
}

ATOMIC64_OP(andnot, stclr)
ATOMIC64_OP(or, stset)
     5d8:	d2800081 	mov	x1, #0x4                   	// #4
     5dc:	f821305f 	stset	x1, [x2]
}
     5e0:	d50323bf 	autiasp
     5e4:	d65f03c0 	ret
	ATOMIC64_FETCH_OP (_relaxed,,  ,  ,         , __VA_ARGS__)	\
	ATOMIC64_FETCH_OP (_acquire,, a,  , "memory", __VA_ARGS__)	\
	ATOMIC64_FETCH_OP (_release,,  , l, "memory", __VA_ARGS__)

ATOMIC64_OPS(and, and, L)
ATOMIC64_OPS(or, orr, L)
     5e8:	91006000 	add	x0, x0, #0x18
     5ec:	140002d9 	b	1150 <blk_mq_init_sched+0x1f8>
     5f0:	d50323bf 	autiasp
     5f4:	d65f03c0 	ret

00000000000005f8 <__blk_mq_sched_dispatch_requests>:
	const bool has_sched = q->elevator;
     5f8:	d503233f 	paciasp
     5fc:	a9ba7bfd 	stp	x29, x30, [sp, #-96]!
     600:	910003fd 	mov	x29, sp
     604:	a90153f3 	stp	x19, x20, [sp, #16]
     608:	aa0003f3 	mov	x19, x0
     60c:	a9025bf5 	stp	x21, x22, [sp, #32]
     610:	90000015 	adrp	x21, 0 <__stack_chk_guard>
     614:	f9001bf7 	str	x23, [sp, #48]
     618:	910002a0 	add	x0, x21, #0x0
	/*
     61c:	910123b4 	add	x20, x29, #0x48
		if (!list_empty(&hctx->dispatch))
     620:	91002276 	add	x22, x19, #0x8
	const bool has_sched = q->elevator;
     624:	f9400001 	ldr	x1, [x0]
     628:	f9002fa1 	str	x1, [x29, #88]
     62c:	d2800001 	mov	x1, #0x0                   	// #0
	LIST_HEAD(rq_list);
     630:	f9406a60 	ldr	x0, [x19, #208]
	/*
     634:	f90027b4 	str	x20, [x29, #72]
	LIST_HEAD(rq_list);
     638:	f9400417 	ldr	x23, [x0, #8]
	/*
     63c:	f9002bb4 	str	x20, [x29, #80]
	struct list_head *next = smp_load_acquire(&head->next);
     640:	c8dffec0 	ldar	x0, [x22]
	return (next == head) && (next == head->prev);
     644:	eb0002df 	cmp	x22, x0
     648:	54000940 	b.eq	770 <__blk_mq_sched_dispatch_requests+0x178>  // b.none

#endif

static __always_inline void spin_lock(spinlock_t *lock)
{
	raw_spin_lock(&lock->rlock);
     64c:	aa1303e0 	mov	x0, x19
     650:	94000000 	bl	0 <_raw_spin_lock>
	return READ_ONCE(head->next) == head;
     654:	f9400660 	ldr	x0, [x19, #8]
		spin_unlock(&hctx->lock);
     658:	eb0002df 	cmp	x22, x0
     65c:	54000180 	b.eq	68c <__blk_mq_sched_dispatch_requests+0x94>  // b.none
     660:	f9400660 	ldr	x0, [x19, #8]
	if (!list_empty(list)) {
     664:	eb0002df 	cmp	x22, x0
     668:	54000120 	b.eq	68c <__blk_mq_sched_dispatch_requests+0x94>  // b.none
	struct list_head *last = list->prev;
     66c:	a9408662 	ldp	x2, x1, [x19, #8]
	first->prev = prev;
     670:	f9000454 	str	x20, [x2, #8]
		__list_splice(list, head, head->next);
     674:	f94027a0 	ldr	x0, [x29, #72]
	prev->next = first;
     678:	f90027a2 	str	x2, [x29, #72]
	last->next = next;
     67c:	f9000020 	str	x0, [x1]
	next->prev = last;
     680:	f9000401 	str	x1, [x0, #8]
	WRITE_ONCE(list->next, list);
     684:	f9000676 	str	x22, [x19, #8]
	list->prev = list;
     688:	f9000a76 	str	x22, [x19, #16]
	raw_spin_lock_irqsave_nested(spinlock_check(lock), flags, subclass); \
} while (0)

static __always_inline void spin_unlock(spinlock_t *lock)
{
	raw_spin_unlock(&lock->rlock);
     68c:	aa1303e0 	mov	x0, x19
     690:	94000000 	bl	0 <_raw_spin_unlock>
	return READ_ONCE(head->next) == head;
     694:	f94027a0 	ldr	x0, [x29, #72]
		if (blk_mq_dispatch_rq_list(hctx, &rq_list, 0)) {
     698:	eb14001f 	cmp	x0, x20
     69c:	54000760 	b.eq	788 <__blk_mq_sched_dispatch_requests+0x190>  // b.none
     6a0:	f9400e60 	ldr	x0, [x19, #24]
	if (test_bit(BLK_MQ_S_SCHED_RESTART, &hctx->state))
     6a4:	721e001f 	tst	w0, #0x4
     6a8:	54000360 	b.eq	714 <__blk_mq_sched_dispatch_requests+0x11c>  // b.none
				ret = blk_mq_do_dispatch_sched(hctx);
     6ac:	aa1403e1 	mov	x1, x20
     6b0:	52800002 	mov	w2, #0x0                   	// #0
     6b4:	aa1303e0 	mov	x0, x19
     6b8:	94000000 	bl	0 <blk_mq_dispatch_rq_list>

     6bc:	52800001 	mov	w1, #0x0                   	// #0
				ret = blk_mq_do_dispatch_sched(hctx);
     6c0:	72001c1f 	tst	w0, #0xff
     6c4:	54000100 	b.eq	6e4 <__blk_mq_sched_dispatch_requests+0xec>  // b.none
			else
     6c8:	b4000757 	cbz	x23, 7b0 <__blk_mq_sched_dispatch_requests+0x1b8>
     6cc:	d503201f 	nop

     6d0:	aa1303e0 	mov	x0, x19
     6d4:	97fffe71 	bl	98 <__blk_mq_do_dispatch_sched>
     6d8:	2a0003e1 	mov	w1, w0
	return ret;
     6dc:	7100041f 	cmp	w0, #0x1
     6e0:	54ffff80 	b.eq	6d0 <__blk_mq_sched_dispatch_requests+0xd8>  // b.none
void blk_mq_sched_dispatch_requests(struct blk_mq_hw_ctx *hctx)
     6e4:	910002b5 	add	x21, x21, #0x0
     6e8:	2a0103e0 	mov	w0, w1
     6ec:	f9402fa2 	ldr	x2, [x29, #88]
     6f0:	f94002a1 	ldr	x1, [x21]
     6f4:	ca010041 	eor	x1, x2, x1
     6f8:	b5000761 	cbnz	x1, 7e4 <__blk_mq_sched_dispatch_requests+0x1ec>
     6fc:	a94153f3 	ldp	x19, x20, [sp, #16]
     700:	a9425bf5 	ldp	x21, x22, [sp, #32]
     704:	f9401bf7 	ldr	x23, [sp, #48]
     708:	a8c67bfd 	ldp	x29, x30, [sp], #96
     70c:	d50323bf 	autiasp
     710:	d65f03c0 	ret
	set_bit(BLK_MQ_S_SCHED_RESTART, &hctx->state);
     714:	91006261 	add	x1, x19, #0x18
     718:	1400000c 	b	748 <__blk_mq_sched_dispatch_requests+0x150>
     71c:	1400000b 	b	748 <__blk_mq_sched_dispatch_requests+0x150>
     720:	d2800080 	mov	x0, #0x4                   	// #4
     724:	f820303f 	stset	x0, [x1]
				ret = blk_mq_do_dispatch_sched(hctx);
     728:	52800002 	mov	w2, #0x0                   	// #0
     72c:	aa1403e1 	mov	x1, x20
     730:	aa1303e0 	mov	x0, x19
     734:	94000000 	bl	0 <blk_mq_dispatch_rq_list>

     738:	52800001 	mov	w1, #0x0                   	// #0
				ret = blk_mq_do_dispatch_sched(hctx);
     73c:	72001c1f 	tst	w0, #0xff
     740:	54fffc41 	b.ne	6c8 <__blk_mq_sched_dispatch_requests+0xd0>  // b.any
     744:	17ffffe8 	b	6e4 <__blk_mq_sched_dispatch_requests+0xec>
     748:	91006262 	add	x2, x19, #0x18
     74c:	14000287 	b	1168 <blk_mq_init_sched+0x210>
     750:	52800002 	mov	w2, #0x0                   	// #0
     754:	aa1403e1 	mov	x1, x20
     758:	aa1303e0 	mov	x0, x19
     75c:	94000000 	bl	0 <blk_mq_dispatch_rq_list>

     760:	52800001 	mov	w1, #0x0                   	// #0
				ret = blk_mq_do_dispatch_sched(hctx);
     764:	72001c1f 	tst	w0, #0xff
     768:	54fffb01 	b.ne	6c8 <__blk_mq_sched_dispatch_requests+0xd0>  // b.any
     76c:	17ffffde 	b	6e4 <__blk_mq_sched_dispatch_requests+0xec>
	return (next == head) && (next == head->prev);
     770:	f9400a60 	ldr	x0, [x19, #16]
     774:	eb0002df 	cmp	x22, x0
     778:	54fff6a1 	b.ne	64c <__blk_mq_sched_dispatch_requests+0x54>  // b.any
	return READ_ONCE(head->next) == head;
     77c:	f94027a0 	ldr	x0, [x29, #72]
		if (blk_mq_dispatch_rq_list(hctx, &rq_list, 0)) {
     780:	eb14001f 	cmp	x0, x20
     784:	54fff8e1 	b.ne	6a0 <__blk_mq_sched_dispatch_requests+0xa8>  // b.any
	} else if (hctx->dispatch_busy) {
     788:	b4000117 	cbz	x23, 7a8 <__blk_mq_sched_dispatch_requests+0x1b0>
     78c:	d503201f 	nop

     790:	aa1303e0 	mov	x0, x19
     794:	97fffe41 	bl	98 <__blk_mq_do_dispatch_sched>
     798:	2a0003e1 	mov	w1, w0
	return ret;
     79c:	7100041f 	cmp	w0, #0x1
     7a0:	54ffff80 	b.eq	790 <__blk_mq_sched_dispatch_requests+0x198>  // b.none
     7a4:	17ffffd0 	b	6e4 <__blk_mq_sched_dispatch_requests+0xec>
		ret = blk_mq_do_dispatch_ctx(hctx);
     7a8:	b9411260 	ldr	w0, [x19, #272]
     7ac:	340000a0 	cbz	w0, 7c0 <__blk_mq_sched_dispatch_requests+0x1c8>
		blk_mq_flush_busy_ctxs(hctx, &rq_list);
     7b0:	aa1303e0 	mov	x0, x19
     7b4:	97ffff13 	bl	400 <blk_mq_do_dispatch_ctx>
     7b8:	2a0003e1 	mov	w1, w0
     7bc:	17ffffca 	b	6e4 <__blk_mq_sched_dispatch_requests+0xec>
	}
     7c0:	aa1403e1 	mov	x1, x20
     7c4:	aa1303e0 	mov	x0, x19
     7c8:	94000000 	bl	0 <blk_mq_flush_busy_ctxs>

     7cc:	aa1403e1 	mov	x1, x20
     7d0:	52800002 	mov	w2, #0x0                   	// #0
     7d4:	aa1303e0 	mov	x0, x19
     7d8:	94000000 	bl	0 <blk_mq_dispatch_rq_list>

     7dc:	52800001 	mov	w1, #0x0                   	// #0
     7e0:	17ffffc1 	b	6e4 <__blk_mq_sched_dispatch_requests+0xec>
void blk_mq_sched_dispatch_requests(struct blk_mq_hw_ctx *hctx)
     7e4:	94000000 	bl	0 <__stack_chk_fail>

00000000000007e8 <blk_mq_sched_assign_ioc>:
{
     7e8:	d503233f 	paciasp
     7ec:	a9bc7bfd 	stp	x29, x30, [sp, #-64]!
 */
static __always_inline struct task_struct *get_current(void)
{
	unsigned long sp_el0;

	asm ("mrs %0, sp_el0" : "=r" (sp_el0));
     7f0:	d5384101 	mrs	x1, sp_el0
     7f4:	910003fd 	mov	x29, sp
     7f8:	f9000ff4 	str	x20, [sp, #24]
	ioc = current->io_context;
     7fc:	f943a434 	ldr	x20, [x1, #1864]
	if (!ioc)
     800:	b40002d4 	cbz	x20, 858 <blk_mq_sched_assign_ioc+0x70>
     804:	f9000bb3 	str	x19, [x29, #16]
     808:	aa0003f3 	mov	x19, x0
     80c:	a9025bb5 	stp	x21, x22, [x29, #32]
     810:	f9001bb7 	str	x23, [x29, #48]
	struct request_queue *q = rq->q;
     814:	f9400016 	ldr	x22, [x0]
	raw_spin_lock_irq(&lock->rlock);
     818:	9101e2d7 	add	x23, x22, #0x78
     81c:	aa1703e0 	mov	x0, x23
     820:	94000000 	bl	0 <_raw_spin_lock_irq>
	icq = ioc_lookup_icq(ioc, q);
     824:	aa1603e1 	mov	x1, x22
     828:	aa1403e0 	mov	x0, x20
     82c:	94000000 	bl	0 <ioc_lookup_icq>
     830:	aa0003f5 	mov	x21, x0
	raw_spin_unlock_bh(&lock->rlock);
}

static __always_inline void spin_unlock_irq(spinlock_t *lock)
{
	raw_spin_unlock_irq(&lock->rlock);
     834:	aa1703e0 	mov	x0, x23
     838:	94000000 	bl	0 <_raw_spin_unlock_irq>
	if (!icq) {
     83c:	b4000175 	cbz	x21, 868 <blk_mq_sched_assign_ioc+0x80>
	get_io_context(icq->ioc);
     840:	f94006a0 	ldr	x0, [x21, #8]
     844:	94000000 	bl	0 <get_io_context>
	rq->elv.icq = icq;
     848:	f9004275 	str	x21, [x19, #128]
     84c:	f9400bb3 	ldr	x19, [x29, #16]
     850:	a9425bb5 	ldp	x21, x22, [x29, #32]
     854:	f9401bb7 	ldr	x23, [x29, #48]
}
     858:	f9400ff4 	ldr	x20, [sp, #24]
     85c:	a8c47bfd 	ldp	x29, x30, [sp], #64
     860:	d50323bf 	autiasp
     864:	d65f03c0 	ret
		icq = ioc_create_icq(ioc, q, GFP_ATOMIC);
     868:	52814402 	mov	w2, #0xa20                 	// #2592
     86c:	aa1603e1 	mov	x1, x22
     870:	aa1403e0 	mov	x0, x20
     874:	94000000 	bl	0 <ioc_create_icq>
     878:	aa0003f5 	mov	x21, x0
		if (!icq)
     87c:	b5fffe20 	cbnz	x0, 840 <blk_mq_sched_assign_ioc+0x58>
     880:	f9400bb3 	ldr	x19, [x29, #16]
     884:	a9425bb5 	ldp	x21, x22, [x29, #32]
     888:	f9401bb7 	ldr	x23, [x29, #48]
     88c:	17fffff3 	b	858 <blk_mq_sched_assign_ioc+0x70>

0000000000000890 <blk_mq_sched_restart>:
     890:	f9400c01 	ldr	x1, [x0, #24]
	clear_bit(BLK_MQ_S_SCHED_RESTART, &hctx->state);
     894:	721e003f 	tst	w1, #0x4
     898:	54000041 	b.ne	8a0 <blk_mq_sched_restart+0x10>  // b.any
     89c:	d65f03c0 	ret
{
     8a0:	d503233f 	paciasp
     8a4:	a9bf7bfd 	stp	x29, x30, [sp, #-16]!
	/*
     8a8:	91006002 	add	x2, x0, #0x18
{
     8ac:	910003fd 	mov	x29, sp
     8b0:	1400000a 	b	8d8 <blk_mq_sched_restart+0x48>
     8b4:	14000009 	b	8d8 <blk_mq_sched_restart+0x48>
ATOMIC64_OP(andnot, stclr)
     8b8:	d2800081 	mov	x1, #0x4                   	// #4
     8bc:	f821105f 	stclr	x1, [x2]
	blk_mq_run_hw_queue(hctx, true);
     8c0:	d5033bbf 	dmb	ish

     8c4:	52800021 	mov	w1, #0x1                   	// #1
     8c8:	94000000 	bl	0 <blk_mq_run_hw_queue>
static int sched_rq_cmp(void *priv, const struct list_head *a,
     8cc:	a8c17bfd 	ldp	x29, x30, [sp], #16
     8d0:	d50323bf 	autiasp
     8d4:	d65f03c0 	ret
/*
 * GAS converts the mysterious and undocumented BIC (immediate) alias to
 * an AND (immediate) instruction with the immediate inverted. We don't
 * have a constraint for this, so fall back to register.
 */
ATOMIC64_OPS(andnot, bic, )
     8d8:	d2800081 	mov	x1, #0x4                   	// #4
     8dc:	91006004 	add	x4, x0, #0x18
     8e0:	14000228 	b	1180 <blk_mq_init_sched+0x228>
	blk_mq_run_hw_queue(hctx, true);
     8e4:	d5033bbf 	dmb	ish

     8e8:	52800021 	mov	w1, #0x1                   	// #1
     8ec:	94000000 	bl	0 <blk_mq_run_hw_queue>
static int sched_rq_cmp(void *priv, const struct list_head *a,
     8f0:	a8c17bfd 	ldp	x29, x30, [sp], #16
     8f4:	d50323bf 	autiasp
     8f8:	d65f03c0 	ret
     8fc:	d503201f 	nop

0000000000000900 <blk_mq_sched_dispatch_requests>:
     900:	f9400c02 	ldr	x2, [x0, #24]
	/* RCU or SRCU read lock is needed before checking quiesced flag */
     904:	f9406803 	ldr	x3, [x0, #208]

     908:	37000362 	tbnz	w2, #0, 974 <blk_mq_sched_dispatch_requests+0x74>
     90c:	f9403462 	ldr	x2, [x3, #104]
     910:	7208005f 	tst	w2, #0x1000000
     914:	54000301 	b.ne	974 <blk_mq_sched_dispatch_requests+0x74>  // b.any

     918:	d503233f 	paciasp
     91c:	a9be7bfd 	stp	x29, x30, [sp, #-32]!
     920:	910003fd 	mov	x29, sp
     924:	f9000bf3 	str	x19, [sp, #16]
     928:	aa0003f3 	mov	x19, x0
	/*
     92c:	f940b801 	ldr	x1, [x0, #368]
     930:	91000421 	add	x1, x1, #0x1
     934:	f900b801 	str	x1, [x0, #368]
			blk_mq_run_hw_queue(hctx, true);
     938:	97ffff30 	bl	5f8 <__blk_mq_sched_dispatch_requests>
     93c:	31002c1f 	cmn	w0, #0xb
     940:	540000a0 	b.eq	954 <blk_mq_sched_dispatch_requests+0x54>  // b.none
bool __blk_mq_sched_bio_merge(struct request_queue *q, struct bio *bio,
     944:	f9400bf3 	ldr	x19, [sp, #16]
     948:	a8c27bfd 	ldp	x29, x30, [sp], #32
     94c:	d50323bf 	autiasp
     950:	d65f03c0 	ret
	}
     954:	aa1303e0 	mov	x0, x19
     958:	97ffff28 	bl	5f8 <__blk_mq_sched_dispatch_requests>
     95c:	31002c1f 	cmn	w0, #0xb
     960:	54ffff21 	b.ne	944 <blk_mq_sched_dispatch_requests+0x44>  // b.any
}
     964:	52800021 	mov	w1, #0x1                   	// #1
     968:	aa1303e0 	mov	x0, x19
     96c:	94000000 	bl	0 <blk_mq_run_hw_queue>
     970:	17fffff5 	b	944 <blk_mq_sched_dispatch_requests+0x44>
     974:	d65f03c0 	ret

0000000000000978 <__blk_mq_sched_bio_merge>:
	struct blk_mq_ctx *ctx;
     978:	d503233f 	paciasp
     97c:	a9bc7bfd 	stp	x29, x30, [sp, #-64]!
     980:	910003fd 	mov	x29, sp
     984:	f9000ff4 	str	x20, [sp, #24]
     988:	aa0003f4 	mov	x20, x0
     98c:	a902dff6 	stp	x22, x23, [sp, #40]
     990:	aa0103f6 	mov	x22, x1
     994:	2a0203f7 	mov	w23, w2
	struct blk_mq_hw_ctx *hctx;
     998:	f9400404 	ldr	x4, [x0, #8]

     99c:	b4000184 	cbz	x4, 9cc <__blk_mq_sched_bio_merge+0x54>
     9a0:	f9400084 	ldr	x4, [x4]
     9a4:	f9401c84 	ldr	x4, [x4, #56]
     9a8:	b4000124 	cbz	x4, 9cc <__blk_mq_sched_bio_merge+0x54>
	ctx = blk_mq_get_ctx(q);
     9ac:	d63f0080 	blr	x4
     9b0:	12001c14 	and	w20, w0, #0xff
	return rq_mergeable(rq) && elv_attempt_insert_merge(q, rq, free);
     9b4:	2a1403e0 	mov	w0, w20
     9b8:	f9400ff4 	ldr	x20, [sp, #24]
     9bc:	a942dff6 	ldp	x22, x23, [sp, #40]
     9c0:	a8c47bfd 	ldp	x29, x30, [sp], #64
     9c4:	d50323bf 	autiasp
     9c8:	d65f03c0 	ret
     9cc:	f9000bb3 	str	x19, [x29, #16]
	/* input parameter */
     9d0:	90000000 	adrp	x0, 0 <cpu_number>

	/*
	 * We want to allow caching the value, so avoid using volatile and
	 * instead use a fake stack read to hazard against barrier().
	 */
	asm(ALTERNATIVE("mrs %0, tpidr_el1",
     9d4:	d538d082 	mrs	x2, tpidr_el1
     9d8:	91000000 	add	x0, x0, #0x0
 * This assumes per-cpu software queueing queues. They could be per-node
     9dc:	90000001 	adrp	x1, 0 <__per_cpu_offset>
     9e0:	b8626803 	ldr	w3, [x0, x2]
     9e4:	91000021 	add	x1, x1, #0x0
	if (!(hctx->flags & BLK_MQ_F_SHOULD_MERGE) ||
     9e8:	b94012c2 	ldr	w2, [x22, #16]
	return ctx->hctxs[type];
     9ec:	52800040 	mov	w0, #0x2                   	// #2
 * This assumes per-cpu software queueing queues. They could be per-node
     9f0:	f9402293 	ldr	x19, [x20, #64]
     9f4:	f8637821 	ldr	x1, [x1, x3, lsl #3]
     9f8:	8b010273 	add	x19, x19, x1
	
     9fc:	36c004c2 	tbz	w2, #24, a94 <__blk_mq_sched_bio_merge+0x11c>
 * sysfs helpers
     a00:	d37d0400 	ubfiz	x0, x0, #3, #2
     a04:	8b000260 	add	x0, x19, x0
     a08:	f9402800 	ldr	x0, [x0, #80]
		return false;
     a0c:	f9406001 	ldr	x1, [x0, #192]
     a10:	36000601 	tbz	w1, #0, ad0 <__blk_mq_sched_bio_merge+0x158>
     a14:	f90013b5 	str	x21, [x29, #32]

     a18:	d2800115 	mov	x21, #0x8                   	// #8
	    list_empty_careful(&ctx->rq_lists[type]))
     a1c:	79422800 	ldrh	w0, [x0, #276]

     a20:	8b2052b5 	add	x21, x21, w0, uxtw #4
     a24:	8b150275 	add	x21, x19, x21
	struct list_head *next = smp_load_acquire(&head->next);
     a28:	c8dffea1 	ldar	x1, [x21]
	return (next == head) && (next == head->prev);
     a2c:	eb0102bf 	cmp	x21, x1
     a30:	54000440 	b.eq	ab8 <__blk_mq_sched_bio_merge+0x140>  // b.none
	raw_spin_lock(&lock->rlock);
     a34:	aa1303e0 	mov	x0, x19
     a38:	94000000 	bl	0 <_raw_spin_lock>

     a3c:	aa1403e0 	mov	x0, x20
     a40:	2a1703e3 	mov	w3, w23
     a44:	aa1603e2 	mov	x2, x22
     a48:	aa1503e1 	mov	x1, x21

     a4c:	52800014 	mov	w20, #0x0                   	// #0

     a50:	94000000 	bl	0 <blk_bio_list_merge>
     a54:	72001c1f 	tst	w0, #0xff
     a58:	540000a0 	b.eq	a6c <__blk_mq_sched_bio_merge+0xf4>  // b.none
	spin_unlock(&ctx->lock);
     a5c:	f9403e60 	ldr	x0, [x19, #120]
	return ret;
     a60:	52800034 	mov	w20, #0x1                   	// #1
	spin_unlock(&ctx->lock);
     a64:	91000400 	add	x0, x0, #0x1
     a68:	f9003e60 	str	x0, [x19, #120]
	raw_spin_unlock(&lock->rlock);
     a6c:	aa1303e0 	mov	x0, x19
     a70:	94000000 	bl	0 <_raw_spin_unlock>
	return rq_mergeable(rq) && elv_attempt_insert_merge(q, rq, free);
     a74:	2a1403e0 	mov	w0, w20
     a78:	f9400bb3 	ldr	x19, [x29, #16]
     a7c:	f94013b5 	ldr	x21, [x29, #32]
     a80:	f9400ff4 	ldr	x20, [sp, #24]
     a84:	a942dff6 	ldp	x22, x23, [sp, #40]
     a88:	a8c47bfd 	ldp	x29, x30, [sp], #64
     a8c:	d50323bf 	autiasp
     a90:	d65f03c0 	ret
}
     a94:	12001c42 	and	w2, w2, #0xff
     a98:	7100005f 	cmp	w2, #0x0
     a9c:	1a9f17e0 	cset	w0, eq  // eq = none
 * sysfs helpers
     aa0:	d37d0400 	ubfiz	x0, x0, #3, #2
     aa4:	8b000260 	add	x0, x19, x0
     aa8:	f9402800 	ldr	x0, [x0, #80]
		return false;
     aac:	f9406001 	ldr	x1, [x0, #192]
     ab0:	3707fb21 	tbnz	w1, #0, a14 <__blk_mq_sched_bio_merge+0x9c>
     ab4:	14000007 	b	ad0 <__blk_mq_sched_bio_merge+0x158>
     ab8:	d37c3c00 	ubfiz	x0, x0, #4, #16
     abc:	8b000260 	add	x0, x19, x0
     ac0:	f9400800 	ldr	x0, [x0, #16]
     ac4:	eb0002bf 	cmp	x21, x0
     ac8:	54fffb61 	b.ne	a34 <__blk_mq_sched_bio_merge+0xbc>  // b.any
     acc:	f94013b5 	ldr	x21, [x29, #32]
	/* default per sw-queue merge */
     ad0:	52800014 	mov	w20, #0x0                   	// #0
     ad4:	f9400bb3 	ldr	x19, [x29, #16]
	return rq_mergeable(rq) && elv_attempt_insert_merge(q, rq, free);
     ad8:	2a1403e0 	mov	w0, w20
     adc:	f9400ff4 	ldr	x20, [sp, #24]
     ae0:	a942dff6 	ldp	x22, x23, [sp, #40]
     ae4:	a8c47bfd 	ldp	x29, x30, [sp], #64
     ae8:	d50323bf 	autiasp
     aec:	d65f03c0 	ret

0000000000000af0 <blk_mq_sched_insert_request>:

     af0:	d503233f 	paciasp
     af4:	a9b97bfd 	stp	x29, x30, [sp, #-112]!
     af8:	12001c21 	and	w1, w1, #0xff
     afc:	910003fd 	mov	x29, sp
     b00:	a90153f3 	stp	x19, x20, [sp, #16]
     b04:	aa0003f3 	mov	x19, x0
     b08:	a9025bf5 	stp	x21, x22, [sp, #32]
     b0c:	90000014 	adrp	x20, 0 <__stack_chk_guard>
     b10:	a90363f7 	stp	x23, x24, [sp, #48]
     b14:	91000280 	add	x0, x20, #0x0
     b18:	12001c55 	and	w21, w2, #0xff
     b1c:	12001c77 	and	w23, w3, #0xff
     b20:	f9400004 	ldr	x4, [x0]
     b24:	f90037a4 	str	x4, [x29, #104]
     b28:	d2800004 	mov	x4, #0x0                   	// #0
		/*
     b2c:	f9400a76 	ldr	x22, [x19, #16]
	if (blk_mq_sched_bypass_insert(hctx, rq)) {
     b30:	a9406260 	ldp	x0, x24, [x19]

     b34:	f9400400 	ldr	x0, [x0, #8]
		 * sw queue, meantime we add flush request to dispatch queue(
     b38:	b40000a0 	cbz	x0, b4c <blk_mq_sched_insert_request+0x5c>
     b3c:	b9402262 	ldr	w2, [x19, #32]
     b40:	3100045f 	cmn	w2, #0x1
     b44:	54000040 	b.eq	b4c <blk_mq_sched_insert_request+0x5c>  // b.none
     b48:	d4210000 	brk	#0x800

     b4c:	b9401e62 	ldr	w2, [x19, #28]
     b50:	37200402 	tbnz	w2, #4, bd0 <blk_mq_sched_insert_request+0xe0>
     b54:	39406262 	ldrb	w2, [x19, #24]
     b58:	51008842 	sub	w2, w2, #0x22
     b5c:	7100045f 	cmp	w2, #0x1
     b60:	540003a9 	b.ls	bd4 <blk_mq_sched_insert_request+0xe4>  // b.plast
	} else {
     b64:	b4000400 	cbz	x0, be4 <blk_mq_sched_insert_request+0xf4>
	new->next = next;
     b68:	910163a3 	add	x3, x29, #0x58
		spin_unlock(&ctx->lock);
     b6c:	91012262 	add	x2, x19, #0x48
	new->prev = prev;
     b70:	a9048e63 	stp	x3, x3, [x19, #72]
	WRITE_ONCE(prev->next, new);
     b74:	f9002fa2 	str	x2, [x29, #88]
	next->prev = new;
     b78:	f90033a2 	str	x2, [x29, #96]
	}
     b7c:	2a0103e2 	mov	w2, w1
     b80:	aa0303e1 	mov	x1, x3
     b84:	f9400003 	ldr	x3, [x0]
     b88:	aa1603e0 	mov	x0, x22
     b8c:	f9403863 	ldr	x3, [x3, #112]
     b90:	d63f0060 	blr	x3
				  struct blk_mq_ctx *ctx,
     b94:	34000095 	cbz	w21, ba4 <blk_mq_sched_insert_request+0xb4>
				  struct list_head *list, bool run_queue_async)
     b98:	2a1703e1 	mov	w1, w23
     b9c:	aa1603e0 	mov	x0, x22
     ba0:	94000000 	bl	0 <blk_mq_run_hw_queue>
{
     ba4:	91000294 	add	x20, x20, #0x0
     ba8:	f94037a1 	ldr	x1, [x29, #104]
     bac:	f9400280 	ldr	x0, [x20]
     bb0:	ca000020 	eor	x0, x1, x0
     bb4:	b50002e0 	cbnz	x0, c10 <blk_mq_sched_insert_request+0x120>
     bb8:	a94153f3 	ldp	x19, x20, [sp, #16]
     bbc:	a9425bf5 	ldp	x21, x22, [sp, #32]
     bc0:	a94363f7 	ldp	x23, x24, [sp, #48]
     bc4:	a8c77bfd 	ldp	x29, x30, [sp], #112
     bc8:	d50323bf 	autiasp
     bcc:	d65f03c0 	ret
	if (e) {
     bd0:	52800021 	mov	w1, #0x1                   	// #1
		LIST_HEAD(list);
     bd4:	52800002 	mov	w2, #0x0                   	// #0
     bd8:	aa1303e0 	mov	x0, x19
     bdc:	94000000 	bl	0 <blk_mq_request_bypass_insert>

     be0:	17ffffed 	b	b94 <blk_mq_sched_insert_request+0xa4>
	raw_spin_lock(&lock->rlock);
     be4:	aa1803e0 	mov	x0, x24
     be8:	b9004fa1 	str	w1, [x29, #76]
     bec:	94000000 	bl	0 <_raw_spin_lock>
	if (run_queue)
     bf0:	b9404fa1 	ldr	w1, [x29, #76]
     bf4:	aa1603e0 	mov	x0, x22
     bf8:	2a0103e2 	mov	w2, w1
     bfc:	aa1303e1 	mov	x1, x19
     c00:	94000000 	bl	0 <__blk_mq_insert_request>
	raw_spin_unlock(&lock->rlock);
     c04:	aa1803e0 	mov	x0, x24
     c08:	94000000 	bl	0 <_raw_spin_unlock>
     c0c:	17ffffe2 	b	b94 <blk_mq_sched_insert_request+0xa4>
{
     c10:	94000000 	bl	0 <__stack_chk_fail>
     c14:	d503201f 	nop

0000000000000c18 <blk_mq_sched_insert_requests>:
	 * blk_mq_sched_insert_requests() is called from flush plug
     c18:	d503233f 	paciasp
     c1c:	a9bc7bfd 	stp	x29, x30, [sp, #-64]!
     c20:	910003fd 	mov	x29, sp
     c24:	a90153f3 	stp	x19, x20, [sp, #16]
     c28:	aa0003f3 	mov	x19, x0
     c2c:	a9025bf5 	stp	x21, x22, [sp, #32]
     c30:	aa0203f6 	mov	x22, x2
     c34:	f9001bf7 	str	x23, [sp, #48]
     c38:	12001c75 	and	w21, w3, #0xff
     c3c:	aa0103f7 	mov	x23, x1
	 * from being released.
     c40:	f9406814 	ldr	x20, [x0, #208]
 * read-side critical sections may be preempted and they may also block, but
 * only when acquiring spinlocks that are subject to priority inheritance.
 */
static __always_inline void rcu_read_lock(void)
{
	__rcu_read_lock();
     c44:	94000000 	bl	0 <__rcu_read_lock>
	 * READ_ONCE() is required when fetching it.
	 *
	 * The dependency ordering from the READ_ONCE() pairs
	 * with smp_store_release() in __percpu_ref_switch_to_percpu().
	 */
	percpu_ptr = READ_ONCE(ref->percpu_count_ptr);
     c48:	f9400e80 	ldr	x0, [x20, #24]
	 * Theoretically, the following could test just ATOMIC; however,
	 * then we'd have to mask off DEAD separately as DEAD may be
	 * visible without ATOMIC if we race with percpu_ref_kill().  DEAD
	 * implies ATOMIC anyway.  Test them together.
	 */
	if (unlikely(percpu_ptr & __PERCPU_REF_ATOMIC_DEAD))
     c4c:	f240041f 	tst	x0, #0x3
     c50:	540008a1 	b.ne	d64 <blk_mq_sched_insert_requests+0x14c>  // b.any
     c54:	d5384101 	mrs	x1, sp_el0
	return !current_thread_info()->preempt.need_resched;
}

static inline void __preempt_count_add(int val)
{
	u32 pc = READ_ONCE(current_thread_info()->preempt.count);
     c58:	b9400822 	ldr	w2, [x1, #8]
	pc += val;
     c5c:	11000442 	add	w2, w2, #0x1
	WRITE_ONCE(current_thread_info()->preempt.count, pc);
     c60:	b9000822 	str	w2, [x1, #8]

PERCPU_RW_OPS(8)
PERCPU_RW_OPS(16)
PERCPU_RW_OPS(32)
PERCPU_RW_OPS(64)
PERCPU_OP(add, add, stadd)
     c64:	d2800023 	mov	x3, #0x1                   	// #1
	asm(ALTERNATIVE("mrs %0, tpidr_el1",
     c68:	d538d082 	mrs	x2, tpidr_el1
PERCPU_OP(add, add, stadd)
     c6c:	8b020000 	add	x0, x0, x2
     c70:	c85f7c05 	ldxr	x5, [x0]
     c74:	8b0300a5 	add	x5, x5, x3
     c78:	c8047c05 	stxr	w4, x5, [x0]
     c7c:	35ffffa4 	cbnz	w4, c70 <blk_mq_sched_insert_requests+0x58>
}

static inline bool __preempt_count_dec_and_test(void)
{
	struct thread_info *ti = current_thread_info();
	u64 pc = READ_ONCE(ti->preempt_count);
     c80:	f9400420 	ldr	x0, [x1, #8]

	/* Update only the count field, leaving need_resched unchanged */
	WRITE_ONCE(ti->preempt.count, --pc);
     c84:	d1000400 	sub	x0, x0, #0x1
     c88:	b9000820 	str	w0, [x1, #8]
	 * need of a reschedule. Otherwise, we need to reload the
	 * preempt_count in case the need_resched flag was cleared by an
	 * interrupt occurring between the non-atomic READ_ONCE/WRITE_ONCE
	 * pair.
	 */
	return !pc || !READ_ONCE(ti->preempt_count);
     c8c:	b5000660 	cbnz	x0, d58 <blk_mq_sched_insert_requests+0x140>
	unsigned long __percpu *percpu_count;

	rcu_read_lock();

	if (__ref_is_percpu(ref, &percpu_count))
		this_cpu_add(*percpu_count, nr);
     c90:	94000000 	bl	0 <preempt_schedule_notrace>
static inline void rcu_read_unlock(void)
{
	RCU_LOCKDEP_WARN(!rcu_is_watching(),
			 "rcu_read_unlock() used illegally while idle");
	__release(RCU);
	__rcu_read_unlock();
     c94:	94000000 	bl	0 <__rcu_read_unlock>
		 * try to issue requests directly if the hw queue isn't
     c98:	f9406a60 	ldr	x0, [x19, #208]
     c9c:	f9400400 	ldr	x0, [x0, #8]
		 * busy in case of 'none' scheduler, and this way may save
     ca0:	b4000940 	cbz	x0, dc8 <blk_mq_sched_insert_requests+0x1b0>
		 * us one extra enqueue & dequeue to sw queue.
     ca4:	f9400003 	ldr	x3, [x0]
     ca8:	52800002 	mov	w2, #0x0                   	// #0
     cac:	aa1603e1 	mov	x1, x22
     cb0:	aa1303e0 	mov	x0, x19
     cb4:	f9403863 	ldr	x3, [x3, #112]
     cb8:	d63f0060 	blr	x3
static int blk_mq_sched_alloc_map_and_rqs(struct request_queue *q,
     cbc:	2a1503e1 	mov	w1, w21
     cc0:	aa1303e0 	mov	x0, x19
     cc4:	94000000 	bl	0 <blk_mq_run_hw_queue>
	__rcu_read_lock();
     cc8:	94000000 	bl	0 <__rcu_read_lock>
	percpu_ptr = READ_ONCE(ref->percpu_count_ptr);
     ccc:	f9400e80 	ldr	x0, [x20, #24]
	if (unlikely(percpu_ptr & __PERCPU_REF_ATOMIC_DEAD))
     cd0:	f240041f 	tst	x0, #0x3
     cd4:	54000581 	b.ne	d84 <blk_mq_sched_insert_requests+0x16c>  // b.any
     cd8:	d5384101 	mrs	x1, sp_el0
	u32 pc = READ_ONCE(current_thread_info()->preempt.count);
     cdc:	b9400822 	ldr	w2, [x1, #8]
	pc += val;
     ce0:	11000442 	add	w2, w2, #0x1
	WRITE_ONCE(current_thread_info()->preempt.count, pc);
     ce4:	b9000822 	str	w2, [x1, #8]
     ce8:	92800003 	mov	x3, #0xffffffffffffffff    	// #-1
	asm(ALTERNATIVE("mrs %0, tpidr_el1",
     cec:	d538d082 	mrs	x2, tpidr_el1
PERCPU_OP(add, add, stadd)
     cf0:	8b020000 	add	x0, x0, x2
     cf4:	c85f7c05 	ldxr	x5, [x0]
     cf8:	8b0300a5 	add	x5, x5, x3
     cfc:	c8047c05 	stxr	w4, x5, [x0]
     d00:	35ffffa4 	cbnz	w4, cf4 <blk_mq_sched_insert_requests+0xdc>
	u64 pc = READ_ONCE(ti->preempt_count);
     d04:	f9400420 	ldr	x0, [x1, #8]
	WRITE_ONCE(ti->preempt.count, --pc);
     d08:	8b030000 	add	x0, x0, x3
     d0c:	b9000820 	str	w0, [x1, #8]
	return !pc || !READ_ONCE(ti->preempt_count);
     d10:	b5000120 	cbnz	x0, d34 <blk_mq_sched_insert_requests+0x11c>
	unsigned long __percpu *percpu_count;

	rcu_read_lock();

	if (__ref_is_percpu(ref, &percpu_count))
		this_cpu_sub(*percpu_count, nr);
     d14:	94000000 	bl	0 <preempt_schedule_notrace>
	__rcu_read_unlock();
     d18:	94000000 	bl	0 <__rcu_read_unlock>
{
     d1c:	f9401bf7 	ldr	x23, [sp, #48]
     d20:	a94153f3 	ldp	x19, x20, [sp, #16]
     d24:	a9425bf5 	ldp	x21, x22, [sp, #32]
     d28:	a8c47bfd 	ldp	x29, x30, [sp], #64
     d2c:	d50323bf 	autiasp
     d30:	d65f03c0 	ret
     d34:	f9400420 	ldr	x0, [x1, #8]
     d38:	b4fffee0 	cbz	x0, d14 <blk_mq_sched_insert_requests+0xfc>
     d3c:	94000000 	bl	0 <__rcu_read_unlock>
     d40:	f9401bf7 	ldr	x23, [sp, #48]
     d44:	a94153f3 	ldp	x19, x20, [sp, #16]
     d48:	a9425bf5 	ldp	x21, x22, [sp, #32]
     d4c:	a8c47bfd 	ldp	x29, x30, [sp], #64
     d50:	d50323bf 	autiasp
     d54:	d65f03c0 	ret
     d58:	f9400420 	ldr	x0, [x1, #8]
     d5c:	b4fff9a0 	cbz	x0, c90 <blk_mq_sched_insert_requests+0x78>
     d60:	17ffffcd 	b	c94 <blk_mq_sched_insert_requests+0x7c>
		atomic_long_add(nr, &ref->data->count);
     d64:	f9401280 	ldr	x0, [x20, #32]
     d68:	14000005 	b	d7c <blk_mq_sched_insert_requests+0x164>
     d6c:	14000004 	b	d7c <blk_mq_sched_insert_requests+0x164>
ATOMIC64_OP(xor, steor)
ATOMIC64_OP(add, stadd)
     d70:	d2800021 	mov	x1, #0x1                   	// #1
     d74:	f821001f 	stadd	x1, [x0]
     d78:	17ffffc7 	b	c94 <blk_mq_sched_insert_requests+0x7c>
ATOMIC64_OPS(add, add, I)
     d7c:	14000112 	b	11c4 <blk_mq_init_sched+0x26c>
     d80:	17ffffc5 	b	c94 <blk_mq_sched_insert_requests+0x7c>
	else if (unlikely(atomic_long_sub_and_test(nr, &ref->data->count)))
     d84:	f9401281 	ldr	x1, [x20, #32]
     d88:	1400000c 	b	db8 <blk_mq_sched_insert_requests+0x1a0>
     d8c:	1400000b 	b	db8 <blk_mq_sched_insert_requests+0x1a0>
}

ATOMIC64_OP_SUB_RETURN(_relaxed,   )
ATOMIC64_OP_SUB_RETURN(_acquire,  a, "memory")
ATOMIC64_OP_SUB_RETURN(_release,  l, "memory")
ATOMIC64_OP_SUB_RETURN(        , al, "memory")
     d90:	d2800020 	mov	x0, #0x1                   	// #1
     d94:	cb0003e0 	neg	x0, x0
     d98:	f8e00022 	ldaddal	x0, x2, [x1]
     d9c:	8b020000 	add	x0, x0, x2
     da0:	b5fffbc0 	cbnz	x0, d18 <blk_mq_sched_insert_requests+0x100>
		ref->data->release(ref);
     da4:	f9401281 	ldr	x1, [x20, #32]
     da8:	91006280 	add	x0, x20, #0x18
     dac:	f9400421 	ldr	x1, [x1, #8]
     db0:	d63f0020 	blr	x1
     db4:	17ffffd9 	b	d18 <blk_mq_sched_insert_requests+0x100>
ATOMIC64_OPS(sub, sub, J)
     db8:	d2800022 	mov	x2, #0x1                   	// #1
     dbc:	14000108 	b	11dc <blk_mq_init_sched+0x284>
	else if (unlikely(atomic_long_sub_and_test(nr, &ref->data->count)))
     dc0:	b5fffac0 	cbnz	x0, d18 <blk_mq_sched_insert_requests+0x100>
     dc4:	17fffff8 	b	da4 <blk_mq_sched_insert_requests+0x18c>
		blk_mq_insert_requests(hctx, ctx, list);
     dc8:	b9411260 	ldr	w0, [x19, #272]
     dcc:	7100001f 	cmp	w0, #0x0
     dd0:	7a400aa0 	ccmp	w21, #0x0, #0x0, eq  // eq = none
     dd4:	540000c0 	b.eq	dec <blk_mq_sched_insert_requests+0x1d4>  // b.none
	percpu_ref_put(&q->q_usage_counter);
     dd8:	aa1603e2 	mov	x2, x22
     ddc:	aa1703e1 	mov	x1, x23
     de0:	aa1303e0 	mov	x0, x19
     de4:	94000000 	bl	0 <blk_mq_insert_requests>
     de8:	17ffffb5 	b	cbc <blk_mq_sched_insert_requests+0xa4>
	}
     dec:	aa1303e0 	mov	x0, x19
     df0:	aa1603e1 	mov	x1, x22
     df4:	94000000 	bl	0 <blk_mq_try_issue_list_directly>
	return READ_ONCE(head->next) == head;
     df8:	f94002c0 	ldr	x0, [x22]

     dfc:	eb0002df 	cmp	x22, x0
     e00:	54fffec1 	b.ne	dd8 <blk_mq_sched_insert_requests+0x1c0>  // b.any
     e04:	17ffffb1 	b	cc8 <blk_mq_sched_insert_requests+0xb0>

0000000000000e08 <blk_mq_sched_free_rqs>:
{
	struct blk_mq_hw_ctx *hctx;
	int i;

	if (blk_mq_is_shared_tags(q->tag_set->flags)) {
		blk_mq_free_rqs(q->tag_set, q->sched_shared_tags,
     e08:	d503233f 	paciasp
     e0c:	a9be7bfd 	stp	x29, x30, [sp, #-32]!
     e10:	910003fd 	mov	x29, sp
     e14:	f9000ff4 	str	x20, [sp, #24]
     e18:	aa0003f4 	mov	x20, x0
				BLK_MQ_NO_HCTX_IDX);
	} else {
		queue_for_each_hw_ctx(q, hctx, i) {
			if (hctx->sched_tags)
     e1c:	f942e400 	ldr	x0, [x0, #1480]
{
     e20:	b9405801 	ldr	w1, [x0, #88]
     e24:	371802c1 	tbnz	w1, #3, e7c <blk_mq_sched_free_rqs+0x74>
     e28:	f9000bb3 	str	x19, [x29, #16]
				blk_mq_free_rqs(q->tag_set,
						hctx->sched_tags, i);
		}
	}
     e2c:	52800013 	mov	w19, #0x0                   	// #0
     e30:	b9405a83 	ldr	w3, [x20, #88]
     e34:	340001a3 	cbz	w3, e68 <blk_mq_sched_free_rqs+0x60>
     e38:	f9402a80 	ldr	x0, [x20, #80]
}

     e3c:	2a1303e2 	mov	w2, w19
}
     e40:	f873d800 	ldr	x0, [x0, w19, sxtw #3]
     e44:	f940b000 	ldr	x0, [x0, #352]

     e48:	aa0003e1 	mov	x1, x0
}
     e4c:	b4000080 	cbz	x0, e5c <blk_mq_sched_free_rqs+0x54>

     e50:	f942e680 	ldr	x0, [x20, #1480]
     e54:	94000000 	bl	0 <blk_mq_free_rqs>
     e58:	b9405a83 	ldr	w3, [x20, #88]
	}
     e5c:	11000673 	add	w19, w19, #0x1
     e60:	6b03027f 	cmp	w19, w3
     e64:	54fffea3 	b.cc	e38 <blk_mq_sched_free_rqs+0x30>  // b.lo, b.ul, b.last
     e68:	f9400bb3 	ldr	x19, [x29, #16]
void blk_mq_exit_sched(struct request_queue *q, struct elevator_queue *e)
{
	struct blk_mq_hw_ctx *hctx;
	unsigned int i;
     e6c:	f9400ff4 	ldr	x20, [sp, #24]
     e70:	a8c27bfd 	ldp	x29, x30, [sp], #32
     e74:	d50323bf 	autiasp
     e78:	d65f03c0 	ret
				blk_mq_free_rqs(q->tag_set,
     e7c:	f941f281 	ldr	x1, [x20, #992]
     e80:	12800002 	mov	w2, #0xffffffff            	// #-1
     e84:	94000000 	bl	0 <blk_mq_free_rqs>
	unsigned int i;
     e88:	f9400ff4 	ldr	x20, [sp, #24]
     e8c:	a8c27bfd 	ldp	x29, x30, [sp], #32
     e90:	d50323bf 	autiasp
     e94:	d65f03c0 	ret

0000000000000e98 <blk_mq_exit_sched>:
	unsigned int flags = 0;

	queue_for_each_hw_ctx(q, hctx, i) {
     e98:	d503233f 	paciasp
     e9c:	a9bd7bfd 	stp	x29, x30, [sp, #-48]!
     ea0:	910003fd 	mov	x29, sp
     ea4:	a901d7f4 	stp	x20, x21, [sp, #24]
     ea8:	aa0003f5 	mov	x21, x0
     eac:	f90017f6 	str	x22, [sp, #40]
     eb0:	aa0103f6 	mov	x22, x1
		blk_mq_debugfs_unregister_sched_hctx(hctx);
		if (e->type->ops.exit_hctx && hctx->sched_data) {
			e->type->ops.exit_hctx(hctx, i);
			hctx->sched_data = NULL;
		}
     eb4:	b9405814 	ldr	w20, [x0, #88]
     eb8:	340002f4 	cbz	w20, f14 <blk_mq_exit_sched+0x7c>
     ebc:	f9000bb3 	str	x19, [x29, #16]
     ec0:	52800013 	mov	w19, #0x0                   	// #0
     ec4:	d503201f 	nop
     ec8:	f9402aa0 	ldr	x0, [x21, #80]
     ecc:	f8735814 	ldr	x20, [x0, w19, uxtw #3]
		flags = hctx->flags;
     ed0:	aa1403e0 	mov	x0, x20
     ed4:	94000000 	bl	0 <blk_mq_debugfs_unregister_sched_hctx>
	}
     ed8:	f94002c2 	ldr	x2, [x22]
	blk_mq_debugfs_unregister_sched(q);
     edc:	2a1303e1 	mov	w1, w19
     ee0:	aa1403e0 	mov	x0, x20
	}
     ee4:	f9401042 	ldr	x2, [x2, #32]
     ee8:	b40000a2 	cbz	x2, efc <blk_mq_exit_sched+0x64>
     eec:	f9406683 	ldr	x3, [x20, #200]
     ef0:	b4000063 	cbz	x3, efc <blk_mq_exit_sched+0x64>
	blk_mq_debugfs_unregister_sched(q);
     ef4:	d63f0040 	blr	x2
	if (e->type->ops.exit_sched)
     ef8:	f900669f 	str	xzr, [x20, #200]
		}
     efc:	b9405aa0 	ldr	w0, [x21, #88]
     f00:	11000673 	add	w19, w19, #0x1
     f04:	6b13001f 	cmp	w0, w19
     f08:	54fffe08 	b.hi	ec8 <blk_mq_exit_sched+0x30>  // b.pmore
		e->type->ops.exit_sched(e);
	blk_mq_sched_tags_teardown(q, flags);
     f0c:	b940c294 	ldr	w20, [x20, #192]
     f10:	f9400bb3 	ldr	x19, [x29, #16]
	q->elevator = NULL;
}
     f14:	aa1503e0 	mov	x0, x21
     f18:	94000000 	bl	0 <blk_mq_debugfs_unregister_sched>
     f1c:	f94002c0 	ldr	x0, [x22]
     f20:	f9400801 	ldr	x1, [x0, #16]
     f24:	b4000061 	cbz	x1, f30 <blk_mq_exit_sched+0x98>
     f28:	aa1603e0 	mov	x0, x22
     f2c:	d63f0020 	blr	x1
     f30:	2a1403e1 	mov	w1, w20
     f34:	aa1503e0 	mov	x0, x21
     f38:	97fffd0c 	bl	368 <blk_mq_sched_tags_teardown>
     f3c:	f90006bf 	str	xzr, [x21, #8]
     f40:	a941d7f4 	ldp	x20, x21, [sp, #24]
     f44:	f94017f6 	ldr	x22, [sp, #40]
     f48:	a8c37bfd 	ldp	x29, x30, [sp], #48
     f4c:	d50323bf 	autiasp
     f50:	d65f03c0 	ret
     f54:	d503201f 	nop

0000000000000f58 <blk_mq_init_sched>:

     f58:	d503233f 	paciasp
     f5c:	a9bc7bfd 	stp	x29, x30, [sp, #-64]!
     f60:	910003fd 	mov	x29, sp
     f64:	f9001ff8 	str	x24, [sp, #56]
	if (!e) {
     f68:	f942e403 	ldr	x3, [x0, #1480]

     f6c:	b4000881 	cbz	x1, 107c <blk_mq_init_sched+0x124>
     f70:	f9000bb3 	str	x19, [x29, #16]
     f74:	aa0003f3 	mov	x19, x0
     f78:	a902dfb6 	stp	x22, x23, [x29, #40]
		if (ret)
     f7c:	52801000 	mov	w0, #0x80                  	// #128
     f80:	aa0103f6 	mov	x22, x1
     f84:	b9404462 	ldr	w2, [x3, #68]
	if (!e) {
     f88:	b9405877 	ldr	w23, [x3, #88]
		if (ret)
     f8c:	6b00005f 	cmp	w2, w0
     f90:	1a809042 	csel	w2, w2, w0, ls  // ls = plast
     f94:	531f7842 	lsl	w2, w2, #1
     f98:	f9007a62 	str	x2, [x19, #240]

     f9c:	37180357 	tbnz	w23, #3, 1004 <blk_mq_init_sched+0xac>
     fa0:	f9000fb4 	str	x20, [x29, #24]

     fa4:	b9405a60 	ldr	w0, [x19, #88]
     fa8:	52800014 	mov	w20, #0x0                   	// #0
     fac:	34000420 	cbz	w0, 1030 <blk_mq_init_sched+0xd8>
     fb0:	f90013b5 	str	x21, [x29, #32]
     fb4:	14000007 	b	fd0 <blk_mq_init_sched+0x78>
						    q->nr_requests);
     fb8:	f941f260 	ldr	x0, [x19, #992]
     fbc:	f900b2a0 	str	x0, [x21, #352]

     fc0:	b9405a60 	ldr	w0, [x19, #88]
     fc4:	11000694 	add	w20, w20, #0x1
     fc8:	6b14001f 	cmp	w0, w20
     fcc:	54000309 	b.ls	102c <blk_mq_init_sched+0xd4>  // b.plast
	hctx->sched_tags = blk_mq_alloc_map_and_rqs(q->tag_set, hctx_idx,
     fd0:	f942e660 	ldr	x0, [x19, #1480]

     fd4:	f9402a63 	ldr	x3, [x19, #80]
     fd8:	b9405802 	ldr	w2, [x0, #88]
     fdc:	f8745875 	ldr	x21, [x3, w20, uxtw #3]
	hctx->sched_tags = blk_mq_alloc_map_and_rqs(q->tag_set, hctx_idx,
     fe0:	371ffec2 	tbnz	w2, #3, fb8 <blk_mq_init_sched+0x60>
	return 0;
     fe4:	b940f262 	ldr	w2, [x19, #240]
     fe8:	2a1403e1 	mov	w1, w20
     fec:	94000000 	bl	0 <blk_mq_alloc_map_and_rqs>
     ff0:	f900b2a0 	str	x0, [x21, #352]
static void blk_mq_exit_sched_shared_tags(struct request_queue *queue)
     ff4:	b5fffe60 	cbnz	x0, fc0 <blk_mq_init_sched+0x68>
{
     ff8:	12800178 	mov	w24, #0xfffffff4            	// #-12
     ffc:	f94013b5 	ldr	x21, [x29, #32]
    1000:	14000012 	b	1048 <blk_mq_init_sched+0xf0>

    1004:	52810002 	mov	w2, #0x800                 	// #2048
    1008:	12800001 	mov	w1, #0xffffffff            	// #-1
    100c:	aa0303e0 	mov	x0, x3
    1010:	94000000 	bl	0 <blk_mq_alloc_map_and_rqs>
    1014:	f901f260 	str	x0, [x19, #992]
	return 0;
    1018:	b4000940 	cbz	x0, 1140 <blk_mq_init_sched+0x1e8>
int blk_mq_init_sched(struct request_queue *q, struct elevator_type *e)
    101c:	aa1303e0 	mov	x0, x19
    1020:	f9000fb4 	str	x20, [x29, #24]
    1024:	94000000 	bl	0 <blk_mq_tag_update_sched_shared_tags>
    1028:	17ffffdf 	b	fa4 <blk_mq_init_sched+0x4c>
    102c:	f94013b5 	ldr	x21, [x29, #32]

    1030:	f94006c2 	ldr	x2, [x22, #8]
    1034:	aa1603e1 	mov	x1, x22
    1038:	aa1303e0 	mov	x0, x19
    103c:	d63f0040 	blr	x2
    1040:	2a0003f8 	mov	w24, w0
	queue_for_each_hw_ctx(q, hctx, i) {
    1044:	340002e0 	cbz	w0, 10a0 <blk_mq_init_sched+0x148>
}
    1048:	aa1303e0 	mov	x0, x19
    104c:	94000000 	bl	e08 <blk_mq_sched_free_rqs>

    1050:	2a1703e1 	mov	w1, w23
    1054:	aa1303e0 	mov	x0, x19
    1058:	97fffcc4 	bl	368 <blk_mq_sched_tags_teardown>
 * called in either blk_queue_cleanup or elevator_switch, tagset
    105c:	f900067f 	str	xzr, [x19, #8]
 * is required for freeing requests
    1060:	a94153b3 	ldp	x19, x20, [x29, #16]
    1064:	a942dfb6 	ldp	x22, x23, [x29, #40]
 */
    1068:	2a1803e0 	mov	w0, w24
    106c:	f9401ff8 	ldr	x24, [sp, #56]
    1070:	a8c47bfd 	ldp	x29, x30, [sp], #64
    1074:	d50323bf 	autiasp
    1078:	d65f03c0 	ret
	/*
    107c:	f900041f 	str	xzr, [x0, #8]
	 * since we don't split into sync/async like the old code did.
    1080:	52800018 	mov	w24, #0x0                   	// #0
	 * Default to double of smaller one between hw queue_depth and 128,
    1084:	b9404461 	ldr	w1, [x3, #68]
    1088:	f9007801 	str	x1, [x0, #240]
 */
    108c:	2a1803e0 	mov	w0, w24
    1090:	f9401ff8 	ldr	x24, [sp, #56]
    1094:	a8c47bfd 	ldp	x29, x30, [sp], #64
    1098:	d50323bf 	autiasp
    109c:	d65f03c0 	ret
			if (ret) {
    10a0:	aa1303e0 	mov	x0, x19
    10a4:	94000000 	bl	0 <blk_mq_debugfs_register_sched>
				blk_mq_sched_free_rqs(q);
    10a8:	b9405a60 	ldr	w0, [x19, #88]
    10ac:	52800014 	mov	w20, #0x0                   	// #0
    10b0:	34fffd80 	cbz	w0, 1060 <blk_mq_init_sched+0x108>
    10b4:	f90013b5 	str	x21, [x29, #32]
    10b8:	14000008 	b	10d8 <blk_mq_init_sched+0x180>
err_free_map_and_rqs:
    10bc:	aa1303e0 	mov	x0, x19
    10c0:	aa1503e1 	mov	x1, x21
    10c4:	94000000 	bl	0 <blk_mq_debugfs_register_sched_hctx>
				blk_mq_sched_free_rqs(q);
    10c8:	11000694 	add	w20, w20, #0x1
    10cc:	b9405a60 	ldr	w0, [x19, #88]
    10d0:	6b14001f 	cmp	w0, w20
    10d4:	540002e9 	b.ls	1130 <blk_mq_init_sched+0x1d8>  // b.plast
				blk_mq_exit_sched(q, eq);
    10d8:	f9400ec2 	ldr	x2, [x22, #24]
				kobject_put(&eq->kobj);
    10dc:	2a1403e1 	mov	w1, w20
				blk_mq_sched_free_rqs(q);
    10e0:	f9402a60 	ldr	x0, [x19, #80]
    10e4:	f8745815 	ldr	x21, [x0, w20, uxtw #3]
				blk_mq_exit_sched(q, eq);
    10e8:	b4fffea2 	cbz	x2, 10bc <blk_mq_init_sched+0x164>
				kobject_put(&eq->kobj);
    10ec:	aa1503e0 	mov	x0, x21
    10f0:	d63f0040 	blr	x2
    10f4:	2a0003e1 	mov	w1, w0
				return ret;
    10f8:	34fffe20 	cbz	w0, 10bc <blk_mq_init_sched+0x164>
			}
    10fc:	f9400674 	ldr	x20, [x19, #8]
		}
    1100:	aa1303e0 	mov	x0, x19
				kobject_put(&eq->kobj);
    1104:	2a0103f8 	mov	w24, w1
		}
    1108:	94000000 	bl	e08 <blk_mq_sched_free_rqs>
		blk_mq_debugfs_register_sched_hctx(q, hctx);
    110c:	aa1403e1 	mov	x1, x20
    1110:	aa1303e0 	mov	x0, x19
    1114:	94000000 	bl	e98 <blk_mq_exit_sched>
	}
    1118:	91004280 	add	x0, x20, #0x10
    111c:	94000000 	bl	0 <kobject_put>

    1120:	f9401bb7 	ldr	x23, [x29, #48]
    1124:	a94153b3 	ldp	x19, x20, [x29, #16]
    1128:	a9425bb5 	ldp	x21, x22, [x29, #32]
    112c:	17ffffcf 	b	1068 <blk_mq_init_sched+0x110>
    1130:	a94153b3 	ldp	x19, x20, [x29, #16]
    1134:	a9425bb5 	ldp	x21, x22, [x29, #32]
    1138:	f9401bb7 	ldr	x23, [x29, #48]
    113c:	17ffffcb 	b	1068 <blk_mq_init_sched+0x110>
}
    1140:	12800178 	mov	w24, #0xfffffff4            	// #-12
    1144:	f9400bb3 	ldr	x19, [x29, #16]
    1148:	a942dfb6 	ldp	x22, x23, [x29, #40]
    114c:	17ffffc7 	b	1068 <blk_mq_init_sched+0x110>
    1150:	f9800011 	prfm	pstl1strm, [x0]
    1154:	c85f7c01 	ldxr	x1, [x0]
    1158:	b27e0021 	orr	x1, x1, #0x4
    115c:	c8027c01 	stxr	w2, x1, [x0]
    1160:	35ffffa2 	cbnz	w2, 1154 <blk_mq_init_sched+0x1fc>
    1164:	17fffd23 	b	5f0 <blk_mq_sched_mark_restart_hctx+0x38>
    1168:	f9800051 	prfm	pstl1strm, [x2]
    116c:	c85f7c40 	ldxr	x0, [x2]
    1170:	b27e0000 	orr	x0, x0, #0x4
    1174:	c8017c40 	stxr	w1, x0, [x2]
    1178:	35ffffa1 	cbnz	w1, 116c <blk_mq_init_sched+0x214>
    117c:	17fffd75 	b	750 <__blk_mq_sched_dispatch_requests+0x158>
    1180:	f9800091 	prfm	pstl1strm, [x4]
    1184:	c85f7c82 	ldxr	x2, [x4]
    1188:	8a210042 	bic	x2, x2, x1
    118c:	c8037c82 	stxr	w3, x2, [x4]
    1190:	35ffffa3 	cbnz	w3, 1184 <blk_mq_init_sched+0x22c>
    1194:	17fffdd4 	b	8e4 <blk_mq_sched_restart+0x54>
    1198:	d53cd042 	mrs	x2, tpidr_el2
    119c:	d53cd042 	mrs	x2, tpidr_el2
    11a0:	f823001f 	stadd	x3, [x0]
    11a4:	d503201f 	nop
    11a8:	d503201f 	nop
    11ac:	d503201f 	nop
    11b0:	d53cd042 	mrs	x2, tpidr_el2
    11b4:	f823001f 	stadd	x3, [x0]
    11b8:	d503201f 	nop
    11bc:	d503201f 	nop
    11c0:	d503201f 	nop
    11c4:	f9800011 	prfm	pstl1strm, [x0]
    11c8:	c85f7c01 	ldxr	x1, [x0]
    11cc:	91000421 	add	x1, x1, #0x1
    11d0:	c8027c01 	stxr	w2, x1, [x0]
    11d4:	35ffffa2 	cbnz	w2, 11c8 <blk_mq_init_sched+0x270>
    11d8:	17fffeea 	b	d80 <blk_mq_sched_insert_requests+0x168>
    11dc:	f9800031 	prfm	pstl1strm, [x1]
    11e0:	c85f7c20 	ldxr	x0, [x1]
    11e4:	cb020000 	sub	x0, x0, x2
    11e8:	c803fc20 	stlxr	w3, x0, [x1]
    11ec:	35ffffa3 	cbnz	w3, 11e0 <blk_mq_init_sched+0x288>
    11f0:	d5033bbf 	dmb	ish
    11f4:	17fffef3 	b	dc0 <blk_mq_sched_insert_requests+0x1a8>

Disassembly of section __ksymtab_strings:

0000000000000000 <__kstrtab_blk_mq_sched_mark_restart_hctx>:

   0:	5f6b6c62 	.inst	0x5f6b6c62 ; undefined
	struct request *rqb = container_of(b, struct request, queuelist);
   4:	735f716d 	.inst	0x735f716d ; undefined

   8:	64656863 	.inst	0x64656863 ; undefined
static bool blk_mq_dispatch_hctx_list(struct list_head *rq_list)
   c:	72616d5f 	.inst	0x72616d5f ; undefined

  10:	65725f6b 	fnmla	z11.h, p7/m, z27.h, z18.h
static bool blk_mq_dispatch_hctx_list(struct list_head *rq_list)
  14:	72617473 	.inst	0x72617473 ; undefined
  18:	63685f74 	.inst	0x63685f74 ; undefined
  1c:	00007874 	.inst	0x00007874 ; undefined

000000000000001f <__kstrtabns_blk_mq_sched_mark_restart_hctx>:
	...

0000000000000020 <__kstrtab_blk_mq_sched_try_insert_merge>:
static inline bool rq_mergeable(struct request *rq)
  20:	5f6b6c62 	.inst	0x5f6b6c62 ; undefined
		return false;
  24:	735f716d 	.inst	0x735f716d ; undefined
  28:	64656863 	.inst	0x64656863 ; undefined
  2c:	7972745f 	ldrh	wzr, [x2, #6458]
  30:	736e695f 	.inst	0x736e695f ; undefined
		return false;
  34:	5f747265 	sqdmlsl	s5, h19, v4.h[3]
  38:	6772656d 	.inst	0x6772656d ; undefined
  3c:	Address 0x000000000000003c is out of bounds.


000000000000003e <__kstrtabns_blk_mq_sched_try_insert_merge>:
	...

Disassembly of section ___ksymtab_gpl+blk_mq_sched_mark_restart_hctx:

0000000000000000 <__ksymtab_blk_mq_sched_mark_restart_hctx>:
	...

Disassembly of section ___ksymtab_gpl+blk_mq_sched_try_insert_merge:

0000000000000000 <__ksymtab_blk_mq_sched_try_insert_merge>:
	...

Disassembly of section __jump_table:

0000000000000000 <__jump_table>:
	...

Disassembly of section .altinstructions:

0000000000000000 <.altinstructions>:
	...

   8:	0404001f 	.inst	0x0404001f ; undefined
	...
static bool blk_mq_dispatch_hctx_list(struct list_head *rq_list)
  14:	0404001f 	.inst	0x0404001f ; undefined
	...
static inline bool rq_mergeable(struct request *rq)
  20:	10100015 	adr	x21, 20000 <blk_mq_init_sched+0x1f0a8>
	...
		return false;
  2c:	0404001f 	.inst	0x0404001f ; undefined
	...
		return false;
  38:	10100015 	adr	x21, 20038 <blk_mq_init_sched+0x1f0e0>

Disassembly of section __bug_table:

0000000000000000 <__bug_table>:
	...

   8:	090101b5 	.inst	0x090101b5 ; undefined

Disassembly of section .rodata.str:

0000000000000000 <.L144721>:
   0:	636f6c62 	.word	0x636f6c62
	struct request *rqb = container_of(b, struct request, queuelist);
   4:	6c622f6b 	.word	0x6c622f6b

   8:	716d2d6b 	.word	0x716d2d6b
static bool blk_mq_dispatch_hctx_list(struct list_head *rq_list)
   c:	6863732d 	.word	0x6863732d

  10:	632e6465 	.word	0x632e6465
	...

Disassembly of section .discard.addressable:

0000000000000000 <__UNIQUE_ID___addressable_blk_mq_sched_try_insert_merge416>:
	...

0000000000000008 <__UNIQUE_ID___addressable_blk_mq_sched_mark_restart_hctx408>:
	...

Disassembly of section .debug_info:

0000000000000000 <.debug_info>:
       0:	0000543c 	.inst	0x0000543c ; undefined
	struct request *rqb = container_of(b, struct request, queuelist);
       4:	00000004 	.inst	0x00000004 ; undefined

       8:	01080000 	.inst	0x01080000 ; undefined
static bool blk_mq_dispatch_hctx_list(struct list_head *rq_list)
       c:	00000000 	.inst	0x00000000 ; undefined

      10:	00000001 	.inst	0x00000001 ; undefined
	...
static inline bool rq_mergeable(struct request *rq)
      20:	00115000 	.inst	0x00115000 ; undefined
	...
		return false;
      2c:	06010200 	.inst	0x06010200 ; undefined
      30:	00000000 	.inst	0x00000000 ; undefined
		return false;
      34:	00000003 	.inst	0x00000003 ; undefined
      38:	3f151100 	.inst	0x3f151100 ; undefined
      3c:	02000000 	.inst	0x02000000 ; undefined
      40:	00000801 	.inst	0x00000801 ; undefined
      44:	02020000 	.inst	0x02020000 ; undefined
{
      48:	00000005 	.inst	0x00000005 ; undefined
      4c:	00000300 	.inst	0x00000300 ; undefined
		return false;
      50:	18110000 	ldr	w0, 22050 <blk_mq_init_sched+0x210f8>
      54:	00000058 	.inst	0x00000058 ; undefined
      58:	00070202 	.inst	0x00070202 ; undefined
      5c:	04000000 	add	z0.b, p0/m, z0.b, z0.b
	if (rq->cmd_flags & REQ_NOMERGE_FLAGS)
      60:	6e690504 	uhadd	v4.8h, v8.8h, v9.8h
      64:	5f050074 	.inst	0x5f050074 ; undefined
      68:	03000000 	.inst	0x03000000 ; undefined
      6c:	00000000 	.inst	0x00000000 ; undefined
      70:	00761b11 	.inst	0x00761b11 ; undefined
static bool blk_mq_sched_bypass_insert(struct blk_mq_hw_ctx *hctx,
      74:	04020000 	.inst	0x04020000 ; undefined
      78:	00000007 	.inst	0x00000007 ; undefined
      7c:	00000300 	.inst	0x00000300 ; undefined
				       struct request *rq)
      80:	1e110000 	.inst	0x1e110000 ; undefined
      84:	00000088 	.inst	0x00000088 ; undefined
{
      88:	00050802 	.inst	0x00050802 ; undefined
      8c:	03000000 	.inst	0x03000000 ; undefined
      90:	00000000 	.inst	0x00000000 ; undefined
      94:	009a1f11 	.inst	0x009a1f11 ; undefined
	struct elevator_queue *e = q->elevator;
      98:	08020000 	stxrb	w2, w0, [x0]
      9c:	00000007 	.inst	0x00000007 ; undefined
      a0:	38750600 	.inst	0x38750600 ; undefined
      a4:	34111200 	cbz	w0, 222e4 <blk_mq_init_sched+0x2138c>
      a8:	05000000 	orr	z0.s, z0.s, #0x1
      ac:	000000a1 	.inst	0x000000a1 ; undefined
      b0:	32337506 	orr	w6, w8, #0xffffe7ff
      b4:	6b151200 	subs	w0, w16, w21, lsl #4
      b8:	06000000 	.inst	0x06000000 ; undefined
      bc:	00343673 	.inst	0x00343673 ; NYI

      c0:	007d1612 	.inst	0x007d1612 ; undefined
	struct elevator_queue *e = q->elevator;
      c4:	75060000 	.inst	0x75060000 ; undefined
      c8:	12003436 	and	w22, w1, #0x3fff
	bool multi_hctxs = false, run_queue = false;
      cc:	00008f17 	.inst	0x00008f17 ; undefined
	struct elevator_queue *e = q->elevator;
      d0:	04070700 	.inst	0x04070700 ; undefined
      d4:	00000076 	.inst	0x00000076 ; undefined
      d8:	00eb0a43 	.inst	0x00eb0a43 ; undefined
	else
      dc:	00080000 	.inst	0x00080000 ; undefined
	bool dispatched = false, busy = false;
      e0:	00000000 	.inst	0x00000000 ; undefined

      e4:	00000008 	.inst	0x00000008 ; undefined
	else
      e8:	02000100 	.inst	0x02000100 ; undefined
	do {
      ec:	00000508 	.inst	0x00000508 ; undefined
			break;
      f0:	00030000 	.inst	0x00030000 ; undefined
		max_dispatch = hctx->queue->nr_requests;
      f4:	13000000 	sbfx	w0, w0, #0, #1
      f8:	0000fd10 	.inst	0x0000fd10 ; undefined
		/*
      fc:	07080200 	.inst	0x07080200 ; undefined

     100:	00000000 	.inst	0x00000000 ; undefined
     104:	0000fd05 	.inst	0x0000fd05 ; undefined
     108:	00fd0900 	.inst	0x00fd0900 ; undefined
     10c:	09050000 	.inst	0x09050000 ; undefined
     110:	03000001 	.inst	0x03000001 ; undefined
     114:	00000000 	.inst	0x00000000 ; undefined
     118:	00f24813 	.inst	0x00f24813 ; undefined
	struct list_head *next = smp_load_acquire(&head->next);
     11c:	080a0000 	stxrb	w10, w0, [x0]
	return (next == head) && (next == head->prev);
     120:	00000124 	.inst	0x00000124 ; undefined
     124:	00080102 	.inst	0x00080102 ; undefined
     128:	05000000 	orr	z0.s, z0.s, #0x1
     12c:	00000124 	.inst	0x00000124 ; undefined
     130:	00000003 	.inst	0x00000003 ; undefined

     134:	401e1400 	.inst	0x401e1400 ; undefined
     138:	05000001 	orr	z1.s, z1.s, #0x1
     13c:	00000130 	.inst	0x00000130 ; undefined
static inline void blk_mq_set_rq_budget_token(struct request *rq, int token)
     140:	00020102 	.inst	0x00020102 ; undefined
     144:	03000000 	.inst	0x03000000 ; undefined
     148:	00000000 	.inst	0x00000000 ; undefined

     14c:	01133714 	.inst	0x01133714 ; undefined
			blk_mq_put_dispatch_budget(q, budget_token);
     150:	00030000 	.inst	0x00030000 ; undefined
     154:	14000000 	b	154 <.debug_info+0x154>
     158:	0000b068 	.inst	0x0000b068 ; undefined
     15c:	00000300 	.inst	0x00000300 ; undefined
     160:	94140000 	bl	500160 <blk_mq_init_sched+0x4ff208>
			/*
     164:	00000076 	.inst	0x00000076 ; undefined
static inline int blk_mq_get_dispatch_budget(struct request_queue *q)
     168:	00000003 	.inst	0x00000003 ; undefined
     16c:	c6991400 	.inst	0xc6991400 ; undefined
     170:	0b000000 	add	w0, w0, w0
{
     174:	00000003 	.inst	0x00000003 ; undefined
     178:	73a81400 	.inst	0x73a81400 ; undefined
     17c:	0b000001 	add	w1, w0, w0
			blk_mq_delay_run_hw_queues(q, BLK_MQ_BUDGET_DELAY);
     180:	00000003 	.inst	0x00000003 ; undefined
		/*
     184:	7faf1400 	.inst	0x7faf1400 ; undefined
     188:	0c000001 	st4	{v1.8b-v4.8b}, [x0]
     18c:	00000000 	.inst	0x00000000 ; undefined
     190:	00018b05 	.inst	0x00018b05 ; undefined
     194:	0a080d00 	and	w0, w8, w8, lsl #3
static int blk_mq_do_dispatch_sched(struct blk_mq_hw_ctx *hctx)
     198:	00019d08 	.inst	0x00019d08 ; undefined
     19c:	000f0e00 	.inst	0x000f0e00 ; undefined
     1a0:	16000000 	b	fffffffff80001a0 <blk_mq_init_sched+0xfffffffff7fff248>
     1a4:	0001304f 	.inst	0x0001304f ; undefined
     1a8:	00000c00 	.inst	0x00000c00 ; undefined
     1ac:	00100000 	.inst	0x00100000 ; undefined
     1b0:	15000000 	b	40001b0 <blk_mq_init_sched+0x3fff258>
     1b4:	01ba0231 	.inst	0x01ba0231 ; undefined
     1b8:	30110000 	adr	x0, 221b9 <blk_mq_init_sched+0x21261>
     1bc:	c9000001 	.inst	0xc9000001 ; undefined
     1c0:	12000001 	and	w1, w0, #0x1
     1c4:	000000fd 	.inst	0x000000fd ; undefined
     1c8:	01e41300 	.inst	0x01e41300 ; undefined
     1cc:	01d90000 	.inst	0x01d90000 ; undefined
     1d0:	fd140000 	str	d0, [x0, #10240]
static inline int blk_mq_get_rq_budget_token(struct request *rq)
     1d4:	0f000000 	.inst	0x0f000000 ; undefined
     1d8:	01c90500 	.inst	0x01c90500 ; undefined
     1dc:	080a0000 	stxrb	w10, w0, [x0]
     1e0:	000001ae 	.inst	0x000001ae ; undefined
     1e4:	0001de05 	.inst	0x0001de05 ; undefined
{
     1e8:	00001500 	.inst	0x00001500 ; undefined
     1ec:	32150000 	orr	w0, w0, #0x800
     1f0:	0001d902 	.inst	0x0001d902 ; undefined
	__list_add(new, head->prev, head);
     1f4:	00000c00 	.inst	0x00000c00 ; undefined
		if (rq->mq_hctx != hctx)
     1f8:	f5130000 	.inst	0xf5130000 ; undefined
	new->prev = prev;
     1fc:	05000001 	orr	z1.s, z1.s, #0x1
	} while (count < max_dispatch);
     200:	16000002 	b	fffffffff8000208 <blk_mq_init_sched+0xfffffffff7fff2b0>
	next->prev = new;
     204:	00000f00 	.inst	0x00000f00 ; undefined
			multi_hctxs = true;
     208:	dc160000 	.inst	0xdc160000 ; undefined
	WRITE_ONCE(prev->next, new);
     20c:	000001fa 	.inst	0x000001fa ; undefined

     210:	0000000f 	.inst	0x0000000f ; undefined
		/*
     214:	fadd1600 	.inst	0xfadd1600 ; undefined
     218:	0c000001 	st4	{v1.8b-v4.8b}, [x0]
	} while (count < max_dispatch);
     21c:	00000000 	.inst	0x00000000 ; undefined
     220:	0000000c 	.inst	0x0000000c ; undefined
     224:	2b080a00 	adds	w0, w16, w8, lsl #2
	if (!count) {
     228:	17000002 	b	fffffffffc000230 <blk_mq_init_sched+0xfffffffffbfff2d8>
     22c:	00000003 	.inst	0x00000003 ; undefined
			blk_mq_delay_run_hw_queues(q, BLK_MQ_BUDGET_DELAY);
     230:	5f781700 	ssra	d0, d24, #8
	LIST_HEAD(rq_list);
     234:	13000000 	sbfx	w0, w0, #0, #1
		 * Requests from different hctx may be dequeued from some
     238:	0000022c 	.inst	0x0000022c ; undefined
			dispatched |= blk_mq_dispatch_hctx_list(&rq_list);
     23c:	00000242 	.inst	0x00000242 ; undefined
     240:	000f0016 	.inst	0x000f0016 ; undefined
	LIST_HEAD(rq_list);
     244:	17000000 	b	fffffffffc000244 <blk_mq_init_sched+0xfffffffffbfff2ec>
			dispatched |= blk_mq_dispatch_hctx_list(&rq_list);
     248:	00023787 	.inst	0x00023787 ; undefined
     24c:	00000f00 	.inst	0x00000f00 ; undefined
     250:	87170000 	.inst	0x87170000 ; undefined
     254:	00000237 	.inst	0x00000237 ; undefined
	LIST_HEAD(hctx_list);
     258:	00012413 	.inst	0x00012413 ; undefined
			list_cut_before(&hctx_list, rq_list, &rq->queuelist);
     25c:	00026300 	.inst	0x00026300 ; undefined
     260:	0f001600 	orr	v0.2s, #0x10
	struct request *rq;
     264:	00000000 	.inst	0x00000000 ; undefined
			list_cut_before(&hctx_list, rq_list, &rq->queuelist);
     268:	02589017 	.inst	0x02589017 ; undefined

     26c:	000f0000 	.inst	0x000f0000 ; undefined
			list_cut_before(&hctx_list, rq_list, &rq->queuelist);
     270:	17000000 	b	fffffffffc000270 <blk_mq_init_sched+0xfffffffffbfff318>
			goto dispatch;
     274:	00011e91 	.inst	0x00011e91 ; undefined
	list_for_each_entry(rq, rq_list, queuelist) {
     278:	00000f00 	.inst	0x00000f00 ; undefined
			goto dispatch;
     27c:	92170000 	and	x0, x0, #0x20000000200
     280:	00000076 	.inst	0x00000076 ; undefined
     284:	0000000c 	.inst	0x0000000c ; undefined
     288:	00000f00 	.inst	0x00000f00 ; undefined
     28c:	98170000 	ldrsw	x0, 2e28c <blk_mq_init_sched+0x2d334>
     290:	00000284 	.inst	0x00000284 ; undefined
			list_cut_before(&hctx_list, rq_list, &rq->queuelist);
     294:	0000000f 	.inst	0x0000000f ; undefined
	list_splice_tail_init(rq_list, &hctx_list);
     298:	309b1700 	adr	x0, fffffffffff36579 <blk_mq_init_sched+0xfffffffffff35621>
			list_cut_before(&hctx_list, rq_list, &rq->queuelist);
     29c:	0f000001 	.inst	0x0f000001 ; undefined
     2a0:	00000000 	.inst	0x00000000 ; undefined
     2a4:	0225a117 	.inst	0x0225a117 ; undefined
     2a8:	000f0000 	.inst	0x000f0000 ; undefined
	return READ_ONCE(head->next) == head;
     2ac:	17000000 	b	fffffffffc0002ac <blk_mq_init_sched+0xfffffffffbfff354>
	if (!list_empty(list)) {
     2b0:	000130a3 	.inst	0x000130a3 ; undefined
     2b4:	02201300 	.inst	0x02201300 ; undefined
	struct list_head *last = list->prev;
     2b8:	02c50000 	.inst	0x02c50000 ; undefined
	prev->next = first;
     2bc:	fd140000 	str	d0, [x0, #10240]
	first->prev = prev;
     2c0:	3c000000 	stur	b0, [x0]
	last->next = next;
     2c4:	00000f00 	.inst	0x00000f00 ; undefined
	WRITE_ONCE(list->next, list);
     2c8:	13180000 	sbfiz	w0, w0, #8, #1
	list->prev = list;
     2cc:	000002b5 	.inst	0x000002b5 ; undefined
	next->prev = last;
     2d0:	0000000f 	.inst	0x0000000f ; undefined

     2d4:	20141800 	.inst	0x20141800 ; undefined
     2d8:	03000002 	.inst	0x03000002 ; undefined
	return READ_ONCE(head->next) == head;
     2dc:	00000000 	.inst	0x00000000 ; undefined
     2e0:	01800d19 	.inst	0x01800d19 ; undefined
	} else {
     2e4:	eb110000 	subs	x0, x0, x17
		dispatched = blk_mq_dispatch_rq_list(hctx, &rq_list, count);
     2e8:	f5000000 	.inst	0xf5000000 ; undefined
     2ec:	12000002 	and	w2, w0, #0x1
	return !!dispatched;
     2f0:	0000005f 	.inst	0x0000005f ; undefined
}
     2f4:	00000f00 	.inst	0x00000f00 ; undefined
     2f8:	0a1a0000 	and	w0, w0, w26
{
     2fc:	00000300 	.inst	0x00000300 ; undefined
     300:	02e6080a 	.inst	0x02e6080a ; undefined
	if (head->next == entry) {
     304:	000f0000 	.inst	0x000f0000 ; undefined
     308:	1a000000 	adc	w0, w0, w0
	list->next->prev = list;
     30c:	00007613 	.inst	0x00007613 ; undefined
	list->prev = entry->prev;
     310:	00000f00 	.inst	0x00000f00 ; undefined
     314:	181a0000 	ldr	w0, 34314 <blk_mq_init_sched+0x333bc>
	list->prev->next = list;
     318:	0000005f 	.inst	0x0000005f ; undefined
	entry->prev = head;
     31c:	0000000f 	.inst	0x0000000f ; undefined
	head->next = entry;
     320:	fd191a00 	str	d0, [x16, #12848]
     324:	0f000000 	.inst	0x0f000000 ; undefined
			blk_mq_delay_run_hw_queues(q, BLK_MQ_BUDGET_DELAY);
     328:	00000000 	.inst	0x00000000 ; undefined
     32c:	005f1a1a 	.inst	0x005f1a1a ; undefined
		 * Requests from different hctx may be dequeued from some
     330:	000f0000 	.inst	0x000f0000 ; undefined

     334:	1a000000 	adc	w0, w0, w0
     338:	00005f1b 	.inst	0x00005f1b ; undefined
     33c:	00000f00 	.inst	0x00000f00 ; undefined
     340:	1c1a0000 	ldr	s0, 34340 <blk_mq_init_sched+0x333e8>
     344:	0000005f 	.inst	0x0000005f ; undefined
	return !!dispatched;
     348:	0000000f 	.inst	0x0000000f ; undefined
     34c:	5f1d1a00 	fmla	h0, h16, v13.h[5]
	WRITE_ONCE(list->next, list);
     350:	0f000000 	.inst	0x0f000000 ; undefined
     354:	00000000 	.inst	0x00000000 ; undefined
	list_for_each_entry(rq, rq_list, queuelist) {
     358:	00fd1f1a 	.inst	0x00fd1f1a ; undefined
     35c:	000f0000 	.inst	0x000f0000 ; undefined
static int blk_mq_do_dispatch_sched(struct blk_mq_hw_ctx *hctx)
     360:	1a000000 	adc	w0, w0, w0
     364:	00013020 	.inst	0x00013020 ; undefined
		if (hctx->sched_tags) {
     368:	00000f00 	.inst	0x00000f00 ; undefined
     36c:	221a0000 	.inst	0x221a0000 ; undefined
     370:	0000005f 	.inst	0x0000005f ; undefined
     374:	0000000f 	.inst	0x0000000f ; undefined
     378:	5f231a00 	fmla	h0, h16, v3.h[6]
     37c:	0f000000 	.inst	0x0f000000 ; undefined
     380:	00000000 	.inst	0x00000000 ; undefined
		}
     384:	005f241a 	.inst	0x005f241a ; undefined
     388:	000f0000 	.inst	0x000f0000 ; undefined
     38c:	1a000000 	adc	w0, w0, w0
     390:	00013026 	.inst	0x00013026 ; undefined
     394:	00000f00 	.inst	0x00000f00 ; undefined
     398:	2d1a0000 	stp	s0, s0, [x0, #208]
		blk_mq_exit_sched_shared_tags(q);
     39c:	00000174 	.inst	0x00000174 ; undefined
     3a0:	0000000c 	.inst	0x0000000c ; undefined
		}
     3a4:	03a00500 	.inst	0x03a00500 ; undefined
     3a8:	a5130000 	ld1rqw	{z0.s}, p0/z, [x0, x19, lsl #2]
     3ac:	ba000003 	adcs	x3, x0, x0
     3b0:	14000003 	b	3bc <.debug_info+0x3bc>
     3b4:	000000fd 	.inst	0x000000fd ; undefined
	}
     3b8:	aa050011 	orr	x17, x0, x5
     3bc:	0f000003 	.inst	0x0f000003 ; undefined

     3c0:	00000000 	.inst	0x00000000 ; undefined
{
     3c4:	03ba561a 	.inst	0x03ba561a ; undefined
     3c8:	000f0000 	.inst	0x000f0000 ; undefined
	if (blk_mq_is_shared_tags(flags))
     3cc:	1b000000 	madd	w0, w0, w0, w0
     3d0:	0000fd40 	.inst	0x0000fd40 ; undefined
     3d4:	00000c00 	.inst	0x00000c00 ; undefined
     3d8:	000c0000 	.inst	0x000c0000 ; undefined
{
     3dc:	03000000 	.inst	0x03000000 ; undefined
static void blk_mq_sched_tags_teardown(struct request_queue *q, unsigned int flags)
     3e0:	00000000 	.inst	0x00000000 ; undefined
     3e4:	03da1d1c 	.inst	0x03da1d1c ; undefined
{
     3e8:	030b0000 	.inst	0x030b0000 ; undefined

     3ec:	00000000 	.inst	0x00000000 ; undefined
     3f0:	03ea221d 	.inst	0x03ea221d ; undefined
     3f4:	000c0000 	.inst	0x000c0000 ; undefined
     3f8:	13000000 	sbfx	w0, w0, #0, #1
     3fc:	0000012b 	.inst	0x0000012b ; undefined
	LIST_HEAD(rq_list);
     400:	00000406 	.inst	0x00000406 ; undefined
     404:	fb050016 	.inst	0xfb050016 ; undefined
     408:	0f000003 	.inst	0x0f000003 ; undefined
     40c:	00000000 	.inst	0x00000000 ; undefined
     410:	04060d1e 	.inst	0x04060d1e ; undefined
     414:	000f0000 	.inst	0x000f0000 ; undefined
     418:	1e000000 	.inst	0x1e000000 ; undefined
     41c:	0004060e 	.inst	0x0004060e ; undefined
     420:	00000f00 	.inst	0x00000f00 ; undefined
     424:	101e0000 	adr	x0, 3c424 <blk_mq_init_sched+0x3b4cc>
     428:	0000005f 	.inst	0x0000005f ; undefined
     42c:	00005f13 	.inst	0x00005f13 ; undefined

     430:	00043700 	.inst	0x00043700 ; undefined
	int ret = 0;
     434:	0f001600 	orr	v0.2s, #0x10
     438:	00000000 	.inst	0x00000000 ; undefined
	LIST_HEAD(rq_list);
     43c:	042c421e 	index	z30.b, #-16, #12
     440:	000f0000 	.inst	0x000f0000 ; undefined
     444:	1e000000 	.inst	0x1e000000 ; undefined
	struct blk_mq_ctx *ctx = READ_ONCE(hctx->dispatch_from);
     448:	0002584d 	.inst	0x0002584d ; undefined
	struct request *rq;
     44c:	00000f00 	.inst	0x00000f00 ; undefined
     450:	501e0000 	adr	x0, 3c452 <blk_mq_init_sched+0x3b4fa>
static inline void blk_mq_set_rq_budget_token(struct request *rq, int token)
     454:	0000005f 	.inst	0x0000005f ; undefined
     458:	0000000f 	.inst	0x0000000f ; undefined
     45c:	5fb71e00 	.inst	0x5fb71e00 ; undefined

     460:	0f000000 	.inst	0x0f000000 ; undefined
			blk_mq_put_dispatch_budget(q, budget_token);
     464:	00000000 	.inst	0x00000000 ; undefined
     468:	005fb81e 	.inst	0x005fb81e ; undefined
     46c:	00150000 	.inst	0x00150000 ; undefined
     470:	1e000000 	.inst	0x1e000000 ; undefined
			/*
     474:	005f0140 	.inst	0x005f0140 ; undefined
static inline int blk_mq_get_rq_budget_token(struct request *rq)
     478:	000c0000 	.inst	0x000c0000 ; undefined
     47c:	05000000 	orr	z0.s, z0.s, #0x1
     480:	0000047a 	.inst	0x0000047a ; undefined
     484:	00000015 	.inst	0x00000015 ; undefined
{
     488:	02b51e00 	.inst	0x02b51e00 ; undefined
     48c:	0000047f 	.inst	0x0000047f ; undefined
     490:	0000000f 	.inst	0x0000000f ; undefined
	__list_add(new, head, head->next);
     494:	5ff01f00 	.inst	0x5ff01f00 ; undefined
		/* round robin for fair dispatch */
     498:	0f000000 	.inst	0x0f000000 ; undefined
	WRITE_ONCE(prev->next, new);
     49c:	00000000 	.inst	0x00000000 ; undefined
	WRITE_ONCE(hctx->dispatch_from, ctx);
     4a0:	0130f21f 	.inst	0x0130f21f ; undefined
     4a4:	00180000 	.inst	0x00180000 ; undefined
	next->prev = new;
     4a8:	07000000 	.inst	0x07000000 ; undefined
	new->prev = prev;
     4ac:	00007604 	.inst	0x00007604 ; undefined
	if (++idx == hctx->nr_ctx)
     4b0:	e2f81f00 	.inst	0xe2f81f00 ; undefined
     4b4:	08000004 	stxrb	w0, w4, [x0]

     4b8:	00000000 	.inst	0x00000000 ; undefined

     4bc:	00000800 	.inst	0x00000800 ; undefined
	if (++idx == hctx->nr_ctx)
     4c0:	08010000 	stxrb	w1, w0, [x0]
	WRITE_ONCE(hctx->dispatch_from, ctx);
     4c4:	00000000 	.inst	0x00000000 ; undefined
	if (++idx == hctx->nr_ctx)
     4c8:	00000802 	.inst	0x00000802 ; undefined

     4cc:	08030000 	stxrb	w3, w0, [x0]
     4d0:	00000000 	.inst	0x00000000 ; undefined
     4d4:	00000804 	.inst	0x00000804 ; undefined
     4d8:	08050000 	stxrb	w5, w0, [x0]
     4dc:	00000000 	.inst	0x00000000 ; undefined

     4e0:	00150006 	.inst	0x00150006 ; undefined
	WRITE_ONCE(hctx->dispatch_from, ctx);
     4e4:	1f000000 	fmadd	s0, s0, s0, s0
     4e8:	04a60100 	add	z0.s, z8.s, z6.s
     4ec:	00150000 	.inst	0x00150000 ; undefined
	struct list_head *next = smp_load_acquire(&head->next);
     4f0:	1f000000 	fmadd	s0, s0, s0, s0
	return (next == head) && (next == head->prev);
     4f4:	04060102 	.inst	0x04060102 ; undefined
     4f8:	00150000 	.inst	0x00150000 ; undefined
     4fc:	1f000000 	fmadd	s0, s0, s0, s0
     500:	0406010d 	.inst	0x0406010d ; undefined
     504:	000c0000 	.inst	0x000c0000 ; undefined

     508:	0f000000 	.inst	0x0f000000 ; undefined
     50c:	00000000 	.inst	0x00000000 ; undefined
     510:	05060920 	.inst	0x05060920 ; undefined
     514:	000c0000 	.inst	0x000c0000 ; undefined

     518:	0c000000 	st4	{v0.8b-v3.8b}, [x0]
     51c:	00000000 	.inst	0x00000000 ; undefined
     520:	0000000f 	.inst	0x0000000f ; undefined
			blk_mq_put_dispatch_budget(q, budget_token);
     524:	1b672100 	.inst	0x1b672100 ; undefined
     528:	13000005 	sbfx	w5, w0, #0, #1
{
     52c:	000000fd 	.inst	0x000000fd ; undefined
     530:	0000053b 	.inst	0x0000053b ; undefined
     534:	0000fd14 	.inst	0x0000fd14 ; undefined
			/*
     538:	15000000 	b	4000538 <blk_mq_init_sched+0x3fff5e0>
     53c:	00000000 	.inst	0x00000000 ; undefined
static inline int blk_mq_get_dispatch_budget(struct request_queue *q)
     540:	2b01a421 	.inst	0x2b01a421 ; undefined
     544:	15000005 	b	4000558 <blk_mq_init_sched+0x3fff600>
     548:	00000000 	.inst	0x00000000 ; undefined
{
     54c:	2b01aa21 	.inst	0x2b01aa21 ; undefined
     550:	15000005 	b	4000564 <blk_mq_init_sched+0x3fff60c>
     554:	00000000 	.inst	0x00000000 ; undefined
		}
     558:	20028121 	.inst	0x20028121 ; undefined
     55c:	15000002 	b	4000564 <blk_mq_init_sched+0x3fff60c>
     560:	00000000 	.inst	0x00000000 ; undefined

     564:	16035621 	b	fffffffff80d5de8 <blk_mq_init_sched+0xfffffffff80d4e90>

     568:	15000005 	b	400057c <blk_mq_init_sched+0x3fff624>

     56c:	00000000 	.inst	0x00000000 ; undefined
}
     570:	16035721 	b	fffffffff80d61f4 <blk_mq_init_sched+0xfffffffff80d529c>
static int __blk_mq_sched_dispatch_requests(struct blk_mq_hw_ctx *hctx)
     574:	15000005 	b	4000588 <blk_mq_init_sched+0x3fff630>
     578:	00000000 	.inst	0x00000000 ; undefined
     57c:	16035821 	b	fffffffff80d6600 <blk_mq_init_sched+0xfffffffff80d56a8>
     580:	0f000005 	.inst	0x0f000005 ; undefined
     584:	00000000 	.inst	0x00000000 ; undefined
     588:	00767722 	.inst	0x00767722 ; undefined
     58c:	000f0000 	.inst	0x000f0000 ; undefined
     590:	22000000 	.inst	0x22000000 ; undefined
     594:	00007677 	.inst	0x00007677 ; undefined
     598:	00000c00 	.inst	0x00000c00 ; undefined
     59c:	00030000 	.inst	0x00030000 ; undefined
     5a0:	23000000 	.inst	0x23000000 ; undefined
     5a4:	00059911 	.inst	0x00059911 ; undefined
		}
     5a8:	00000f00 	.inst	0x00000f00 ; undefined
     5ac:	27230000 	.inst	0x27230000 ; undefined
static int __blk_mq_sched_dispatch_requests(struct blk_mq_hw_ctx *hctx)
     5b0:	00000076 	.inst	0x00000076 ; undefined
     5b4:	0000000f 	.inst	0x0000000f ; undefined
     5b8:	995a2300 	.inst	0x995a2300 ; undefined
	if (test_bit(BLK_MQ_S_SCHED_RESTART, &hctx->state))
     5bc:	0f000005 	.inst	0x0f000005 ; undefined
     5c0:	00000000 	.inst	0x00000000 ; undefined
     5c4:	05995b23 	mov	z3.s, p9/m, #-39
{
     5c8:	000f0000 	.inst	0x000f0000 ; undefined
	set_bit(BLK_MQ_S_SCHED_RESTART, &hctx->state);
     5cc:	23000000 	.inst	0x23000000 ; undefined
     5d0:	0005995c 	.inst	0x0005995c ; undefined
     5d4:	00000f00 	.inst	0x00000f00 ; undefined
ATOMIC64_OP(or, stset)
     5d8:	5d230000 	.inst	0x5d230000 ; undefined
     5dc:	00000599 	.inst	0x00000599 ; undefined
}
     5e0:	0000000f 	.inst	0x0000000f ; undefined
     5e4:	995e2300 	.inst	0x995e2300 ; undefined
ATOMIC64_OPS(or, orr, L)
     5e8:	0f000005 	.inst	0x0f000005 ; undefined
     5ec:	00000000 	.inst	0x00000000 ; undefined
     5f0:	01746523 	.inst	0x01746523 ; undefined
     5f4:	000f0000 	.inst	0x000f0000 ; undefined
	const bool has_sched = q->elevator;
     5f8:	23000000 	.inst	0x23000000 ; undefined
     5fc:	00059e67 	.inst	0x00059e67 ; undefined
     600:	00001000 	.inst	0x00001000 ; undefined
     604:	dd230000 	.inst	0xdd230000 ; undefined
     608:	00060d02 	.inst	0x00060d02 ; undefined
     60c:	05991300 	mov	z0.s, p9/z, #-104
     610:	061d0000 	.inst	0x061d0000 ; undefined
     614:	fd140000 	str	d0, [x0, #10240]
     618:	00000000 	.inst	0x00000000 ; undefined
	/*
     61c:	01041300 	.inst	0x01041300 ; undefined
		if (!list_empty(&hctx->dispatch))
     620:	062d0000 	.inst	0x062d0000 ; undefined
	const bool has_sched = q->elevator;
     624:	fd140000 	str	d0, [x0, #10240]
     628:	03000000 	.inst	0x03000000 ; undefined
     62c:	061d0500 	.inst	0x061d0500 ; undefined
	LIST_HEAD(rq_list);
     630:	00150000 	.inst	0x00150000 ; undefined
	/*
     634:	23000000 	.inst	0x23000000 ; undefined
	LIST_HEAD(rq_list);
     638:	062d030e 	.inst	0x062d030e ; undefined
	/*
     63c:	04130000 	umulh	z0.b, p0/m, z0.b, z0.b
	struct list_head *next = smp_load_acquire(&head->next);
     640:	54000001 	b.ne	640 <.debug_info+0x640>  // b.any
	return (next == head) && (next == head->prev);
     644:	14000006 	b	65c <.debug_info+0x65c>
     648:	000000fd 	.inst	0x000000fd ; undefined
	raw_spin_lock(&lock->rlock);
     64c:	00fd1440 	.inst	0x00fd1440 ; undefined
     650:	00030000 	.inst	0x00030000 ; undefined
	return READ_ONCE(head->next) == head;
     654:	00063e05 	.inst	0x00063e05 ; undefined
		spin_unlock(&hctx->lock);
     658:	00001500 	.inst	0x00001500 ; undefined
     65c:	63230000 	.inst	0x63230000 ; undefined
     660:	00065403 	.inst	0x00065403 ; undefined
	if (!list_empty(list)) {
     664:	00000f00 	.inst	0x00000f00 ; undefined
     668:	30240000 	adr	x0, 48669 <blk_mq_init_sched+0x47711>
	struct list_head *last = list->prev;
     66c:	00000076 	.inst	0x00000076 ; undefined
	first->prev = prev;
     670:	0000000f 	.inst	0x0000000f ; undefined
		__list_splice(list, head, head->next);
     674:	c6b42500 	.inst	0xc6b42500 ; undefined
	prev->next = first;
     678:	0f000000 	.inst	0x0f000000 ; undefined
	last->next = next;
     67c:	00000000 	.inst	0x00000000 ; undefined
	next->prev = last;
     680:	00bbb625 	.inst	0x00bbb625 ; undefined
	WRITE_ONCE(list->next, list);
     684:	000f0000 	.inst	0x000f0000 ; undefined
	list->prev = list;
     688:	25000000 	cmpge	p0.b, p0/z, z0.b, #0
	raw_spin_unlock(&lock->rlock);
     68c:	0000c6bb 	.inst	0x0000c6bb ; undefined
     690:	00000f00 	.inst	0x00000f00 ; undefined
	return READ_ONCE(head->next) == head;
     694:	be250000 	.inst	0xbe250000 ; undefined
		if (blk_mq_dispatch_rq_list(hctx, &rq_list, 0)) {
     698:	000000c6 	.inst	0x000000c6 ; undefined
     69c:	00000019 	.inst	0x00000019 ; undefined
     6a0:	fd082d00 	str	d0, [x8, #4184]
	if (test_bit(BLK_MQ_S_SCHED_RESTART, &hctx->state))
     6a4:	0c000000 	st4	{v0.8b-v3.8b}, [x0]
     6a8:	00000000 	.inst	0x00000000 ; undefined
				ret = blk_mq_do_dispatch_sched(hctx);
     6ac:	0000fd13 	.inst	0x0000fd13 ; undefined
     6b0:	0006bc00 	.inst	0x0006bc00 ; undefined
     6b4:	00fd1400 	.inst	0x00fd1400 ; undefined
     6b8:	00ff0000 	.inst	0x00ff0000 ; undefined

     6bc:	0000000f 	.inst	0x0000000f ; undefined
				ret = blk_mq_do_dispatch_sched(hctx);
     6c0:	ac132600 	stnp	q0, q9, [x16, #608]
     6c4:	0f000006 	.inst	0x0f000006 ; undefined
			else
     6c8:	00000000 	.inst	0x00000000 ; undefined
     6cc:	005f2227 	.inst	0x005f2227 ; undefined

     6d0:	c6130000 	.inst	0xc6130000 ; undefined
     6d4:	e2000000 	.inst	0xe2000000 ; undefined
     6d8:	14000006 	b	6f0 <.debug_info+0x6f0>
	return ret;
     6dc:	000000fd 	.inst	0x000000fd ; undefined
     6e0:	000f00ff 	.inst	0x000f00ff ; undefined
void blk_mq_sched_dispatch_requests(struct blk_mq_hw_ctx *hctx)
     6e4:	27000000 	.inst	0x27000000 ; undefined
     6e8:	0006d230 	.inst	0x0006d230 ; undefined
     6ec:	00000c00 	.inst	0x00000c00 ; undefined
     6f0:	000f0000 	.inst	0x000f0000 ; undefined
     6f4:	27000000 	.inst	0x27000000 ; undefined
     6f8:	0006ed54 	.inst	0x0006ed54 ; undefined
     6fc:	00000f00 	.inst	0x00000f00 ; undefined
     700:	55270000 	.inst	0x55270000 ; undefined
     704:	000000eb 	.inst	0x000000eb ; undefined
     708:	0000000f 	.inst	0x0000000f ; undefined
     70c:	76ae2400 	.inst	0x76ae2400 ; undefined
     710:	0f000000 	.inst	0x0f000000 ; undefined
	set_bit(BLK_MQ_S_SCHED_RESTART, &hctx->state);
     714:	00000000 	.inst	0x00000000 ; undefined
     718:	005fb224 	.inst	0x005fb224 ; undefined
     71c:	c61a0000 	.inst	0xc61a0000 ; undefined
     720:	0f000000 	.inst	0x0f000000 ; undefined
     724:	00000000 	.inst	0x00000000 ; undefined
				ret = blk_mq_do_dispatch_sched(hctx);
     728:	072e5728 	.inst	0x072e5728 ; undefined
     72c:	080a0000 	stxrb	w10, w0, [x0]
     730:	0000071e 	.inst	0x0000071e ; undefined
     734:	0000000c 	.inst	0x0000000c ; undefined

     738:	07340500 	.inst	0x07340500 ; undefined
				ret = blk_mq_do_dispatch_sched(hctx);
     73c:	000f0000 	.inst	0x000f0000 ; undefined
     740:	29000000 	stp	w0, w0, [x0]
     744:	00074940 	.inst	0x00074940 ; undefined
     748:	39080a00 	strb	w0, [x16, #514]
     74c:	0f000007 	.inst	0x0f000007 ; undefined
     750:	00000000 	.inst	0x00000000 ; undefined
     754:	00fd8b2a 	.inst	0x00fd8b2a ; undefined
     758:	000f0000 	.inst	0x000f0000 ; undefined
     75c:	2a000000 	orr	w0, w0, w0

     760:	0000fd8c 	.inst	0x0000fd8c ; undefined
				ret = blk_mq_do_dispatch_sched(hctx);
     764:	00000c00 	.inst	0x00000c00 ; undefined
     768:	000f0000 	.inst	0x000f0000 ; undefined
     76c:	2b000000 	adds	w0, w0, w0
	return (next == head) && (next == head->prev);
     770:	00005f14 	.inst	0x00005f14 ; undefined
     774:	00000f00 	.inst	0x00000f00 ; undefined
     778:	152b0000 	b	4ac0778 <blk_mq_init_sched+0x4abf820>
	return READ_ONCE(head->next) == head;
     77c:	0000005f 	.inst	0x0000005f ; undefined
		if (blk_mq_dispatch_rq_list(hctx, &rq_list, 0)) {
     780:	0000000f 	.inst	0x0000000f ; undefined
     784:	58232c00 	ldr	x0, 46d04 <blk_mq_init_sched+0x45dac>
	} else if (hctx->dispatch_busy) {
     788:	0f000002 	.inst	0x0f000002 ; undefined
     78c:	00000000 	.inst	0x00000000 ; undefined

     790:	0258232c 	.inst	0x0258232c ; undefined
     794:	000f0000 	.inst	0x000f0000 ; undefined
     798:	2c000000 	stnp	s0, s0, [x0]
	return ret;
     79c:	00025823 	.inst	0x00025823 ; undefined
     7a0:	00000f00 	.inst	0x00000f00 ; undefined
     7a4:	242c0000 	cmphs	p0.b, p0/z, z0.b, #48
		ret = blk_mq_do_dispatch_ctx(hctx);
     7a8:	00000258 	.inst	0x00000258 ; undefined
     7ac:	0000000f 	.inst	0x0000000f ; undefined
		blk_mq_flush_busy_ctxs(hctx, &rq_list);
     7b0:	58242c00 	ldr	x0, 48d30 <blk_mq_init_sched+0x47dd8>
     7b4:	0f000002 	.inst	0x0f000002 ; undefined
     7b8:	00000000 	.inst	0x00000000 ; undefined
     7bc:	0258242c 	.inst	0x0258242c ; undefined
	}
     7c0:	000f0000 	.inst	0x000f0000 ; undefined
     7c4:	2c000000 	stnp	s0, s0, [x0]
     7c8:	00025825 	.inst	0x00025825 ; undefined

     7cc:	00000f00 	.inst	0x00000f00 ; undefined
     7d0:	252c0000 	.inst	0x252c0000 ; undefined
     7d4:	00000258 	.inst	0x00000258 ; undefined
     7d8:	0000000f 	.inst	0x0000000f ; undefined

     7dc:	58262c00 	ldr	x0, 4cd5c <blk_mq_init_sched+0x4be04>
     7e0:	0f000002 	.inst	0x0f000002 ; undefined
void blk_mq_sched_dispatch_requests(struct blk_mq_hw_ctx *hctx)
     7e4:	00000000 	.inst	0x00000000 ; undefined
{
     7e8:	0258262c 	.inst	0x0258262c ; undefined
     7ec:	000f0000 	.inst	0x000f0000 ; undefined
     7f0:	2c000000 	stnp	s0, s0, [x0]
     7f4:	00025827 	.inst	0x00025827 ; undefined
     7f8:	00000f00 	.inst	0x00000f00 ; undefined
	ioc = current->io_context;
     7fc:	272c0000 	.inst	0x272c0000 ; undefined
	if (!ioc)
     800:	00000258 	.inst	0x00000258 ; undefined
     804:	0000000f 	.inst	0x0000000f ; undefined
     808:	58282c00 	ldr	x0, 50d88 <blk_mq_init_sched+0x4fe30>
     80c:	0f000002 	.inst	0x0f000002 ; undefined
     810:	00000000 	.inst	0x00000000 ; undefined
	struct request_queue *q = rq->q;
     814:	0258282c 	.inst	0x0258282c ; undefined
	raw_spin_lock_irq(&lock->rlock);
     818:	000f0000 	.inst	0x000f0000 ; undefined
     81c:	2c000000 	stnp	s0, s0, [x0]
     820:	00025829 	.inst	0x00025829 ; undefined
	icq = ioc_lookup_icq(ioc, q);
     824:	00000f00 	.inst	0x00000f00 ; undefined
     828:	2a2c0000 	orn	w0, w0, w12
     82c:	00000258 	.inst	0x00000258 ; undefined
     830:	0000000f 	.inst	0x0000000f ; undefined
	raw_spin_unlock_irq(&lock->rlock);
     834:	582a2c00 	ldr	x0, 54db4 <blk_mq_init_sched+0x53e5c>
     838:	0f000002 	.inst	0x0f000002 ; undefined
	if (!icq) {
     83c:	00000000 	.inst	0x00000000 ; undefined
	get_io_context(icq->ioc);
     840:	02582a2c 	.inst	0x02582a2c ; undefined
     844:	000f0000 	.inst	0x000f0000 ; undefined
	rq->elv.icq = icq;
     848:	2c000000 	stnp	s0, s0, [x0]
     84c:	0002582b 	.inst	0x0002582b ; undefined
     850:	00000f00 	.inst	0x00000f00 ; undefined
     854:	2b2c0000 	adds	w0, w0, w12, uxtb
}
     858:	00000258 	.inst	0x00000258 ; undefined
     85c:	0000000f 	.inst	0x0000000f ; undefined
     860:	582c2c00 	ldr	x0, 58de0 <blk_mq_init_sched+0x57e88>
     864:	0f000002 	.inst	0x0f000002 ; undefined
		icq = ioc_create_icq(ioc, q, GFP_ATOMIC);
     868:	00000000 	.inst	0x00000000 ; undefined
     86c:	02582c2c 	.inst	0x02582c2c ; undefined
     870:	000f0000 	.inst	0x000f0000 ; undefined
     874:	2c000000 	stnp	s0, s0, [x0]
     878:	0002582d 	.inst	0x0002582d ; undefined
		if (!icq)
     87c:	00000f00 	.inst	0x00000f00 ; undefined
     880:	2d2c0000 	stp	s0, s0, [x0, #-160]
     884:	00000258 	.inst	0x00000258 ; undefined
     888:	0000000f 	.inst	0x0000000f ; undefined
     88c:	582e2c00 	ldr	x0, 5ce0c <blk_mq_init_sched+0x5beb4>
     890:	0f000002 	.inst	0x0f000002 ; undefined
	clear_bit(BLK_MQ_S_SCHED_RESTART, &hctx->state);
     894:	00000000 	.inst	0x00000000 ; undefined
     898:	02582e2c 	.inst	0x02582e2c ; undefined
     89c:	000f0000 	.inst	0x000f0000 ; undefined
{
     8a0:	2c000000 	stnp	s0, s0, [x0]
     8a4:	0002582f 	.inst	0x0002582f ; undefined
	/*
     8a8:	00000f00 	.inst	0x00000f00 ; undefined
{
     8ac:	2f2c0000 	.inst	0x2f2c0000 ; undefined
     8b0:	00000258 	.inst	0x00000258 ; undefined
     8b4:	0000000f 	.inst	0x0000000f ; undefined
ATOMIC64_OP(andnot, stclr)
     8b8:	58302c00 	ldr	x0, 60e38 <blk_mq_init_sched+0x5fee0>
     8bc:	0f000002 	.inst	0x0f000002 ; undefined
	blk_mq_run_hw_queue(hctx, true);
     8c0:	00000000 	.inst	0x00000000 ; undefined

     8c4:	0258302c 	.inst	0x0258302c ; undefined
     8c8:	000f0000 	.inst	0x000f0000 ; undefined
static int sched_rq_cmp(void *priv, const struct list_head *a,
     8cc:	2c000000 	stnp	s0, s0, [x0]
     8d0:	00025833 	.inst	0x00025833 ; undefined
     8d4:	00000f00 	.inst	0x00000f00 ; undefined
ATOMIC64_OPS(andnot, bic, )
     8d8:	332c0000 	.inst	0x332c0000 ; undefined
     8dc:	00000258 	.inst	0x00000258 ; undefined
     8e0:	0000000f 	.inst	0x0000000f ; undefined
	blk_mq_run_hw_queue(hctx, true);
     8e4:	58362c00 	ldr	x0, 6ce64 <blk_mq_init_sched+0x6bf0c>

     8e8:	0f000002 	.inst	0x0f000002 ; undefined
     8ec:	00000000 	.inst	0x00000000 ; undefined
static int sched_rq_cmp(void *priv, const struct list_head *a,
     8f0:	0258362c 	.inst	0x0258362c ; undefined
     8f4:	000f0000 	.inst	0x000f0000 ; undefined
     8f8:	2c000000 	stnp	s0, s0, [x0]
     8fc:	00025839 	.inst	0x00025839 ; undefined
     900:	00000f00 	.inst	0x00000f00 ; undefined
	/* RCU or SRCU read lock is needed before checking quiesced flag */
     904:	392c0000 	strb	w0, [x0, #2816]

     908:	00000258 	.inst	0x00000258 ; undefined
     90c:	0000001b 	.inst	0x0000001b ; undefined
     910:	1b3b2c00 	.inst	0x1b3b2c00 ; undefined
     914:	00000000 	.inst	0x00000000 ; undefined

     918:	000f3b2c 	.inst	0x000f3b2c ; undefined
     91c:	2e000000 	ext	v0.8b, v0.8b, v0.8b, #0
     920:	0002580a 	.inst	0x0002580a ; undefined
     924:	00000f00 	.inst	0x00000f00 ; undefined
     928:	0a2e0000 	bic	w0, w0, w14
	/*
     92c:	00000258 	.inst	0x00000258 ; undefined
     930:	0000000f 	.inst	0x0000000f ; undefined
     934:	580b2e00 	ldr	x0, 16ef4 <blk_mq_init_sched+0x15f9c>
			blk_mq_run_hw_queue(hctx, true);
     938:	0f000002 	.inst	0x0f000002 ; undefined
     93c:	00000000 	.inst	0x00000000 ; undefined
     940:	02580b2e 	.inst	0x02580b2e ; undefined
bool __blk_mq_sched_bio_merge(struct request_queue *q, struct bio *bio,
     944:	000f0000 	.inst	0x000f0000 ; undefined
     948:	2e000000 	ext	v0.8b, v0.8b, v0.8b, #0
     94c:	0002580c 	.inst	0x0002580c ; undefined
     950:	00000f00 	.inst	0x00000f00 ; undefined
	}
     954:	0c2e0000 	.inst	0x0c2e0000 ; undefined
     958:	00000258 	.inst	0x00000258 ; undefined
     95c:	0000000f 	.inst	0x0000000f ; undefined
     960:	580d2e00 	ldr	x0, 1af20 <blk_mq_init_sched+0x19fc8>
}
     964:	0f000002 	.inst	0x0f000002 ; undefined
     968:	00000000 	.inst	0x00000000 ; undefined
     96c:	02580d2e 	.inst	0x02580d2e ; undefined
     970:	000f0000 	.inst	0x000f0000 ; undefined
     974:	2e000000 	ext	v0.8b, v0.8b, v0.8b, #0
	struct blk_mq_ctx *ctx;
     978:	0002580e 	.inst	0x0002580e ; undefined
     97c:	00000f00 	.inst	0x00000f00 ; undefined
     980:	0e2e0000 	saddl	v0.8h, v0.8b, v14.8b
     984:	00000258 	.inst	0x00000258 ; undefined
     988:	0000000f 	.inst	0x0000000f ; undefined
     98c:	580f2e00 	ldr	x0, 1ef4c <blk_mq_init_sched+0x1dff4>
     990:	0f000002 	.inst	0x0f000002 ; undefined
     994:	00000000 	.inst	0x00000000 ; undefined
	struct blk_mq_hw_ctx *hctx;
     998:	02580f2e 	.inst	0x02580f2e ; undefined

     99c:	000f0000 	.inst	0x000f0000 ; undefined
     9a0:	2e000000 	ext	v0.8b, v0.8b, v0.8b, #0
     9a4:	00025810 	.inst	0x00025810 ; undefined
     9a8:	00000f00 	.inst	0x00000f00 ; undefined
	ctx = blk_mq_get_ctx(q);
     9ac:	102e0000 	adr	x0, 5c9ac <blk_mq_init_sched+0x5ba54>
     9b0:	00000258 	.inst	0x00000258 ; undefined
	return rq_mergeable(rq) && elv_attempt_insert_merge(q, rq, free);
     9b4:	0000000f 	.inst	0x0000000f ; undefined
     9b8:	58112e00 	ldr	x0, 22f78 <blk_mq_init_sched+0x22020>
     9bc:	0f000002 	.inst	0x0f000002 ; undefined
     9c0:	00000000 	.inst	0x00000000 ; undefined
     9c4:	0258112e 	.inst	0x0258112e ; undefined
     9c8:	000f0000 	.inst	0x000f0000 ; undefined
     9cc:	2e000000 	ext	v0.8b, v0.8b, v0.8b, #0
	/* input parameter */
     9d0:	00025812 	.inst	0x00025812 ; undefined
	asm(ALTERNATIVE("mrs %0, tpidr_el1",
     9d4:	00000f00 	.inst	0x00000f00 ; undefined
     9d8:	122e0000 	and	w0, w0, #0x40000
 * This assumes per-cpu software queueing queues. They could be per-node
     9dc:	00000258 	.inst	0x00000258 ; undefined
     9e0:	0000000f 	.inst	0x0000000f ; undefined
     9e4:	58132e00 	ldr	x0, 26fa4 <blk_mq_init_sched+0x2604c>
	if (!(hctx->flags & BLK_MQ_F_SHOULD_MERGE) ||
     9e8:	0f000002 	.inst	0x0f000002 ; undefined
	return ctx->hctxs[type];
     9ec:	00000000 	.inst	0x00000000 ; undefined
 * This assumes per-cpu software queueing queues. They could be per-node
     9f0:	0258132e 	.inst	0x0258132e ; undefined
     9f4:	000f0000 	.inst	0x000f0000 ; undefined
     9f8:	2e000000 	ext	v0.8b, v0.8b, v0.8b, #0
	
     9fc:	00025814 	.inst	0x00025814 ; undefined
 * sysfs helpers
     a00:	00000f00 	.inst	0x00000f00 ; undefined
     a04:	142e0000 	b	b80a04 <blk_mq_init_sched+0xb7faac>
     a08:	00000258 	.inst	0x00000258 ; undefined
		return false;
     a0c:	0000000f 	.inst	0x0000000f ; undefined
     a10:	58162e00 	ldr	x0, 2cfd0 <blk_mq_init_sched+0x2c078>
     a14:	0f000002 	.inst	0x0f000002 ; undefined

     a18:	00000000 	.inst	0x00000000 ; undefined
	    list_empty_careful(&ctx->rq_lists[type]))
     a1c:	0258162e 	.inst	0x0258162e ; undefined

     a20:	000f0000 	.inst	0x000f0000 ; undefined
     a24:	2e000000 	ext	v0.8b, v0.8b, v0.8b, #0
	struct list_head *next = smp_load_acquire(&head->next);
     a28:	00025817 	.inst	0x00025817 ; undefined
	return (next == head) && (next == head->prev);
     a2c:	00000f00 	.inst	0x00000f00 ; undefined
     a30:	172e0000 	b	fffffffffcb80a30 <blk_mq_init_sched+0xfffffffffcb7fad8>
	raw_spin_lock(&lock->rlock);
     a34:	00000258 	.inst	0x00000258 ; undefined
     a38:	0000b013 	.inst	0x0000b013 ; undefined

     a3c:	000a4800 	.inst	0x000a4800 ; undefined
     a40:	00fd1400 	.inst	0x00fd1400 ; undefined
     a44:	00010000 	.inst	0x00010000 ; undefined
     a48:	0000000f 	.inst	0x0000000f ; undefined

     a4c:	38442f00 	ldrb	w0, [x24, #66]!

     a50:	0f00000a 	.inst	0x0f00000a ; undefined
     a54:	00000000 	.inst	0x00000000 ; undefined
     a58:	0220492f 	.inst	0x0220492f ; undefined
	spin_unlock(&ctx->lock);
     a5c:	030b0000 	.inst	0x030b0000 ; undefined
	return ret;
     a60:	00000000 	.inst	0x00000000 ; undefined
	spin_unlock(&ctx->lock);
     a64:	0a5e2730 	and	w16, w25, w30, lsr #9
     a68:	030b0000 	.inst	0x030b0000 ; undefined
	raw_spin_unlock(&lock->rlock);
     a6c:	00000000 	.inst	0x00000000 ; undefined
     a70:	0a6a2b30 	bic	w16, w25, w10, lsr #10
	return rq_mergeable(rq) && elv_attempt_insert_merge(q, rq, free);
     a74:	000f0000 	.inst	0x000f0000 ; undefined
     a78:	31000000 	adds	w0, w0, #0x0
     a7c:	0000760b 	.inst	0x0000760b ; undefined
     a80:	00000f00 	.inst	0x00000f00 ; undefined
     a84:	08320000 	.inst	0x08320000 ; undefined
     a88:	0000005f 	.inst	0x0000005f ; undefined
     a8c:	0000000f 	.inst	0x0000000f ; undefined
     a90:	7f313300 	.inst	0x7f313300 ; undefined
}
     a94:	0f000004 	.inst	0x0f000004 ; undefined
     a98:	00000000 	.inst	0x00000000 ; undefined
     a9c:	047f3133 	orr	z19.d, z9.d, z31.d
 * sysfs helpers
     aa0:	000f0000 	.inst	0x000f0000 ; undefined
     aa4:	34000000 	cbz	w0, aa4 <.debug_info+0xaa4>
     aa8:	00019541 	.inst	0x00019541 ; undefined
		return false;
     aac:	00000f00 	.inst	0x00000f00 ; undefined
     ab0:	42340000 	.inst	0x42340000 ; undefined
     ab4:	00000ab8 	.inst	0x00000ab8 ; undefined
     ab8:	0104080a 	.inst	0x0104080a ; undefined
     abc:	00180000 	.inst	0x00180000 ; undefined
     ac0:	07000000 	.inst	0x07000000 ; undefined
     ac4:	00007604 	.inst	0x00007604 ; undefined
     ac8:	e8573400 	.inst	0xe8573400 ; undefined
     acc:	0800000a 	stxrb	w0, w10, [x0]
	/* default per sw-queue merge */
     ad0:	00000000 	.inst	0x00000000 ; undefined
     ad4:	00000800 	.inst	0x00000800 ; undefined
	return rq_mergeable(rq) && elv_attempt_insert_merge(q, rq, free);
     ad8:	08010000 	stxrb	w1, w0, [x0]
     adc:	00000000 	.inst	0x00000000 ; undefined
     ae0:	00000802 	.inst	0x00000802 ; undefined
     ae4:	00030000 	.inst	0x00030000 ; undefined
     ae8:	000b0313 	.inst	0x000b0313 ; undefined
     aec:	000af800 	.inst	0x000af800 ; undefined

     af0:	00fd1400 	.inst	0x00fd1400 ; undefined
     af4:	00020000 	.inst	0x00020000 ; undefined
     af8:	000ae805 	.inst	0x000ae805 ; undefined
     afc:	2b080a00 	adds	w0, w16, w8, lsl #2
     b00:	05000001 	orr	z1.s, z1.s, #0x1
     b04:	00000afd 	.inst	0x00000afd ; undefined
     b08:	0000000f 	.inst	0x0000000f ; undefined
     b0c:	f85e3400 	ldr	x0, [x0], #-29
     b10:	0f00000a 	.inst	0x0f00000a ; undefined
     b14:	00000000 	.inst	0x00000000 ; undefined
     b18:	0abe6034 	bic	w20, w1, w30, asr #24
     b1c:	000f0000 	.inst	0x000f0000 ; undefined
     b20:	35000000 	cbnz	w0, b20 <.debug_info+0xb20>
     b24:	0000fd13 	.inst	0x0000fd13 ; undefined
     b28:	00000f00 	.inst	0x00000f00 ; undefined
		/*
     b2c:	de360000 	.inst	0xde360000 ; undefined
	if (blk_mq_sched_bypass_insert(hctx, rq)) {
     b30:	000000c6 	.inst	0x000000c6 ; undefined

     b34:	0000000f 	.inst	0x0000000f ; undefined
		 * sw queue, meantime we add flush request to dispatch queue(
     b38:	300e3700 	adr	x0, 1d219 <blk_mq_init_sched+0x1c2c1>
     b3c:	0c000001 	st4	{v1.8b-v4.8b}, [x0]
     b40:	00000000 	.inst	0x00000000 ; undefined
     b44:	0000000f 	.inst	0x0000000f ; undefined
     b48:	3f443800 	.inst	0x3f443800 ; undefined

     b4c:	0f00000b 	.inst	0x0f00000b ; undefined
     b50:	00000000 	.inst	0x00000000 ; undefined
     b54:	01686639 	.inst	0x01686639 ; undefined
     b58:	00150000 	.inst	0x00150000 ; undefined
     b5c:	39000000 	strb	w0, [x0]
     b60:	00fd0129 	.inst	0x00fd0129 ; undefined
	} else {
     b64:	000f0000 	.inst	0x000f0000 ; undefined
	new->next = next;
     b68:	3a000000 	adcs	w0, w0, w0
		spin_unlock(&ctx->lock);
     b6c:	00005f52 	.inst	0x00005f52 ; undefined
	new->prev = prev;
     b70:	00000f00 	.inst	0x00000f00 ; undefined
	WRITE_ONCE(prev->next, new);
     b74:	533a0000 	.inst	0x533a0000 ; undefined
	next->prev = new;
     b78:	0000005f 	.inst	0x0000005f ; undefined
	}
     b7c:	0000fd13 	.inst	0x0000fd13 ; undefined
     b80:	000b8c00 	.inst	0x000b8c00 ; undefined
     b84:	00fd1400 	.inst	0x00fd1400 ; undefined
     b88:	00070000 	.inst	0x00070000 ; undefined
     b8c:	0000000f 	.inst	0x0000000f ; undefined
     b90:	7c543a00 	.inst	0x7c543a00 ; undefined
				  struct blk_mq_ctx *ctx,
     b94:	0f00000b 	.inst	0x0f00000b ; undefined
				  struct list_head *list, bool run_queue_async)
     b98:	00000000 	.inst	0x00000000 ; undefined
     b9c:	005f560e 	.inst	0x005f560e ; undefined
     ba0:	00150000 	.inst	0x00150000 ; undefined
{
     ba4:	0e000000 	tbl	v0.8b, {v0.16b}, v0.8b
     ba8:	03d50102 	.inst	0x03d50102 ; undefined
     bac:	00150000 	.inst	0x00150000 ; undefined
     bb0:	0e000000 	tbl	v0.8b, {v0.16b}, v0.8b
     bb4:	03d50103 	.inst	0x03d50103 ; undefined
     bb8:	00150000 	.inst	0x00150000 ; undefined
     bbc:	0e000000 	tbl	v0.8b, {v0.16b}, v0.8b
     bc0:	03d50104 	.inst	0x03d50104 ; undefined
     bc4:	00150000 	.inst	0x00150000 ; undefined
     bc8:	0e000000 	tbl	v0.8b, {v0.16b}, v0.8b
     bcc:	03d50105 	.inst	0x03d50105 ; undefined
	if (e) {
     bd0:	00150000 	.inst	0x00150000 ; undefined
		LIST_HEAD(list);
     bd4:	0e000000 	tbl	v0.8b, {v0.16b}, v0.8b
     bd8:	005f03ed 	.inst	0x005f03ed ; undefined
     bdc:	00150000 	.inst	0x00150000 ; undefined

     be0:	0e000000 	tbl	v0.8b, {v0.16b}, v0.8b
	raw_spin_lock(&lock->rlock);
     be4:	005f03ee 	.inst	0x005f03ee ; undefined
     be8:	00180000 	.inst	0x00180000 ; undefined
     bec:	07000000 	.inst	0x07000000 ; undefined
	if (run_queue)
     bf0:	00007604 	.inst	0x00007604 ; undefined
     bf4:	1a093b00 	.inst	0x1a093b00 ; undefined
     bf8:	0800000c 	stxrb	w0, w12, [x0]
     bfc:	00000000 	.inst	0x00000000 ; undefined
     c00:	00000800 	.inst	0x00000800 ; undefined
	raw_spin_unlock(&lock->rlock);
     c04:	08010000 	stxrb	w1, w0, [x0]
     c08:	00000000 	.inst	0x00000000 ; undefined
     c0c:	00000802 	.inst	0x00000802 ; undefined
{
     c10:	08030000 	stxrb	w3, w0, [x0]
     c14:	00000000 	.inst	0x00000000 ; undefined
	 * blk_mq_sched_insert_requests() is called from flush plug
     c18:	701c0004 	adr	x4, 38c1b <blk_mq_init_sched+0x37cc3>
     c1c:	0f006469 	movi	v9.2s, #0x3, lsl #24
     c20:	00000000 	.inst	0x00000000 ; undefined
     c24:	0c1a493b 	.inst	0x0c1a493b ; undefined
     c28:	000f0000 	.inst	0x000f0000 ; undefined
     c2c:	3b000000 	.inst	0x3b000000 ; undefined
     c30:	00047f4b 	.inst	0x00047f4b ; undefined
     c34:	00000c00 	.inst	0x00000c00 ; undefined
     c38:	000f0000 	.inst	0x000f0000 ; undefined
     c3c:	3b000000 	.inst	0x3b000000 ; undefined
	 * from being released.
     c40:	000c3570 	.inst	0x000c3570 ; undefined
	__rcu_read_lock();
     c44:	00000f00 	.inst	0x00000f00 ; undefined
	percpu_ptr = READ_ONCE(ref->percpu_count_ptr);
     c48:	723b0000 	ands	w0, w0, #0x20
	if (unlikely(percpu_ptr & __PERCPU_REF_ATOMIC_DEAD))
     c4c:	0000005f 	.inst	0x0000005f ; undefined
     c50:	0000000f 	.inst	0x0000000f ; undefined
     c54:	5f733b00 	sqdmlal	s0, h24, v3.h[7]
	u32 pc = READ_ONCE(current_thread_info()->preempt.count);
     c58:	0f000000 	.inst	0x0f000000 ; undefined
	pc += val;
     c5c:	00000000 	.inst	0x00000000 ; undefined
	WRITE_ONCE(current_thread_info()->preempt.count, pc);
     c60:	005f733b 	.inst	0x005f733b ; undefined
PERCPU_OP(add, add, stadd)
     c64:	000f0000 	.inst	0x000f0000 ; undefined
	asm(ALTERNATIVE("mrs %0, tpidr_el1",
     c68:	3c000000 	stur	b0, [x0]
PERCPU_OP(add, add, stadd)
     c6c:	00005f23 	.inst	0x00005f23 ; undefined
     c70:	00000f00 	.inst	0x00000f00 ; undefined
     c74:	243c0000 	cmphs	p0.b, p0/z, z0.b, #112
     c78:	0000005f 	.inst	0x0000005f ; undefined
     c7c:	0000000f 	.inst	0x0000000f ; undefined
	u64 pc = READ_ONCE(ti->preempt_count);
     c80:	5f523c00 	.inst	0x5f523c00 ; undefined
	WRITE_ONCE(ti->preempt.count, --pc);
     c84:	0f000000 	.inst	0x0f000000 ; undefined
     c88:	00000000 	.inst	0x00000000 ; undefined
	return !pc || !READ_ONCE(ti->preempt_count);
     c8c:	005f533c 	.inst	0x005f533c ; undefined
		this_cpu_add(*percpu_count, nr);
     c90:	000c0000 	.inst	0x000c0000 ; undefined
	__rcu_read_unlock();
     c94:	0f000000 	.inst	0x0f000000 ; undefined
		 * try to issue requests directly if the hw queue isn't
     c98:	00000000 	.inst	0x00000000 ; undefined
     c9c:	0c92133d 	.inst	0x0c92133d ; undefined
		 * busy in case of 'none' scheduler, and this way may save
     ca0:	000f0000 	.inst	0x000f0000 ; undefined
		 * us one extra enqueue & dequeue to sw queue.
     ca4:	3e000000 	.inst	0x3e000000 ; undefined
     ca8:	00005f0a 	.inst	0x00005f0a ; undefined
     cac:	00000f00 	.inst	0x00000f00 ; undefined
     cb0:	0b3e0000 	add	w0, w0, w30, uxtb
     cb4:	0000005f 	.inst	0x0000005f ; undefined
     cb8:	0000000c 	.inst	0x0000000c ; undefined
static int blk_mq_sched_alloc_map_and_rqs(struct request_queue *q,
     cbc:	00001d00 	.inst	0x00001d00 ; undefined
     cc0:	4f3f0000 	.inst	0x4f3f0000 ; undefined
     cc4:	000000c6 	.inst	0x000000c6 ; undefined
	__rcu_read_lock();
     cc8:	00001d40 	.inst	0x00001d40 ; undefined
	percpu_ptr = READ_ONCE(ref->percpu_count_ptr);
     ccc:	503f0000 	adr	x0, 7ecce <blk_mq_init_sched+0x7dd76>
	if (unlikely(percpu_ptr & __PERCPU_REF_ATOMIC_DEAD))
     cd0:	00000109 	.inst	0x00000109 ; undefined
     cd4:	00000f40 	.inst	0x00000f40 ; undefined
     cd8:	bd3f0000 	str	s0, [x0, #16128]
	u32 pc = READ_ONCE(current_thread_info()->preempt.count);
     cdc:	000000fd 	.inst	0x000000fd ; undefined
	pc += val;
     ce0:	0000000f 	.inst	0x0000000f ; undefined
	WRITE_ONCE(current_thread_info()->preempt.count, pc);
     ce4:	5f0b4000 	.inst	0x5f0b4000 ; undefined
     ce8:	15000000 	b	4000ce8 <blk_mq_init_sched+0x3fffd90>
	asm(ALTERNATIVE("mrs %0, tpidr_el1",
     cec:	00000000 	.inst	0x00000000 ; undefined
PERCPU_OP(add, add, stadd)
     cf0:	5f012e40 	.inst	0x5f012e40 ; undefined
     cf4:	0f000000 	.inst	0x0f000000 ; undefined
     cf8:	00000000 	.inst	0x00000000 ; undefined
     cfc:	0076ca41 	.inst	0x0076ca41 ; undefined
     d00:	000c0000 	.inst	0x000c0000 ; undefined
	u64 pc = READ_ONCE(ti->preempt_count);
     d04:	15000000 	b	4000d04 <blk_mq_init_sched+0x3fffdac>
	WRITE_ONCE(ti->preempt.count, --pc);
     d08:	00000000 	.inst	0x00000000 ; undefined
     d0c:	13017c42 	asr	w2, w2, #1
	return !pc || !READ_ONCE(ti->preempt_count);
     d10:	0a00000d 	and	w13, w0, w0
		this_cpu_sub(*percpu_count, nr);
     d14:	000d0208 	.inst	0x000d0208 ; undefined
	__rcu_read_unlock();
     d18:	00001500 	.inst	0x00001500 ; undefined
{
     d1c:	7d420000 	ldr	h0, [x0, #256]
     d20:	000d1301 	.inst	0x000d1301 ; undefined
     d24:	00001500 	.inst	0x00001500 ; undefined
     d28:	7e420000 	.inst	0x7e420000 ; undefined
     d2c:	000d1301 	.inst	0x000d1301 ; undefined
     d30:	00001500 	.inst	0x00001500 ; undefined
     d34:	7f420000 	.inst	0x7f420000 ; undefined
     d38:	000d1301 	.inst	0x000d1301 ; undefined
     d3c:	00001500 	.inst	0x00001500 ; undefined
     d40:	80420000 	.inst	0x80420000 ; undefined
     d44:	000d1301 	.inst	0x000d1301 ; undefined
     d48:	00001500 	.inst	0x00001500 ; undefined
     d4c:	81420000 	.inst	0x81420000 ; undefined
     d50:	000d1301 	.inst	0x000d1301 ; undefined
     d54:	00001500 	.inst	0x00001500 ; undefined
     d58:	82420000 	.inst	0x82420000 ; undefined
     d5c:	000d1301 	.inst	0x000d1301 ; undefined
     d60:	04070700 	.inst	0x04070700 ; undefined
		atomic_long_add(nr, &ref->data->count);
     d64:	00000076 	.inst	0x00000076 ; undefined
     d68:	0dd20b44 	ld1	{v4.b}[2], [x26], x18
     d6c:	001e0000 	.inst	0x001e0000 ; undefined
ATOMIC64_OP(add, stadd)
     d70:	00000000 	.inst	0x00000000 ; undefined
     d74:	1e000200 	.inst	0x1e000200 ; undefined
     d78:	00000000 	.inst	0x00000000 ; undefined
ATOMIC64_OPS(add, add, I)
     d7c:	00040000 	.inst	0x00040000 ; undefined
     d80:	0000001e 	.inst	0x0000001e ; undefined
	else if (unlikely(atomic_long_sub_and_test(nr, &ref->data->count)))
     d84:	08000000 	stxrb	w0, w0, [x0]
     d88:	00001e00 	.inst	0x00001e00 ; undefined
     d8c:	00000000 	.inst	0x00000000 ; undefined
ATOMIC64_OP_SUB_RETURN(        , al, "memory")
     d90:	001e0010 	.inst	0x001e0010 ; undefined
     d94:	00000000 	.inst	0x00000000 ; undefined
     d98:	1e002000 	.inst	0x1e002000 ; undefined
     d9c:	00000000 	.inst	0x00000000 ; undefined
     da0:	00400000 	.inst	0x00400000 ; undefined
		ref->data->release(ref);
     da4:	0000001e 	.inst	0x0000001e ; undefined
     da8:	80000000 	.inst	0x80000000 ; undefined
     dac:	00001e00 	.inst	0x00001e00 ; undefined
     db0:	00000000 	.inst	0x00000000 ; undefined
     db4:	001e0100 	.inst	0x001e0100 ; undefined
ATOMIC64_OPS(sub, sub, J)
     db8:	00000000 	.inst	0x00000000 ; undefined
     dbc:	1e020000 	.inst	0x1e020000 ; undefined
	else if (unlikely(atomic_long_sub_and_test(nr, &ref->data->count)))
     dc0:	00000000 	.inst	0x00000000 ; undefined
     dc4:	04000000 	add	z0.b, p0/m, z0.b, z0.b
		blk_mq_insert_requests(hctx, ctx, list);
     dc8:	0000001e 	.inst	0x0000001e ; undefined
     dcc:	00000000 	.inst	0x00000000 ; undefined
     dd0:	080a0008 	stxrb	w10, w8, [x0]
     dd4:	00000dd8 	.inst	0x00000dd8 ; undefined
	percpu_ref_put(&q->q_usage_counter);
     dd8:	0000000c 	.inst	0x0000000c ; undefined
     ddc:	00000f00 	.inst	0x00000f00 ; undefined
     de0:	15450000 	b	5140de0 <blk_mq_init_sched+0x513fe88>
     de4:	0000005f 	.inst	0x0000005f ; undefined
     de8:	0000100b 	.inst	0x0000100b ; undefined
	}
     dec:	27460000 	.inst	0x27460000 ; undefined
     df0:	000de803 	.inst	0x000de803 ; undefined
     df4:	00001800 	.inst	0x00001800 ; undefined
	return READ_ONCE(head->next) == head;
     df8:	04070000 	.inst	0x04070000 ; undefined

     dfc:	00000076 	.inst	0x00000076 ; undefined
     e00:	0e3daa47 	.inst	0x0e3daa47 ; undefined
     e04:	00080000 	.inst	0x00080000 ; undefined
		blk_mq_free_rqs(q->tag_set, q->sched_shared_tags,
     e08:	00000000 	.inst	0x00000000 ; undefined
     e0c:	00000008 	.inst	0x00000008 ; undefined
     e10:	00080100 	.inst	0x00080100 ; undefined
     e14:	02000000 	.inst	0x02000000 ; undefined
     e18:	00000008 	.inst	0x00000008 ; undefined
			if (hctx->sched_tags)
     e1c:	00080300 	.inst	0x00080300 ; undefined
{
     e20:	04000000 	add	z0.b, p0/m, z0.b, z0.b
     e24:	00000008 	.inst	0x00000008 ; undefined
     e28:	00080500 	.inst	0x00080500 ; undefined
	}
     e2c:	06000000 	.inst	0x06000000 ; undefined
     e30:	00000008 	.inst	0x00000008 ; undefined
     e34:	00080700 	.inst	0x00080700 ; undefined
     e38:	08000000 	stxrb	w0, w0, [x0]

     e3c:	00001500 	.inst	0x00001500 ; undefined
}
     e40:	41470000 	.inst	0x41470000 ; undefined
     e44:	00007601 	.inst	0x00007601 ; undefined

     e48:	00000c00 	.inst	0x00000c00 ; undefined
}
     e4c:	00150000 	.inst	0x00150000 ; undefined

     e50:	47000000 	.inst	0x47000000 ; undefined
     e54:	0e490166 	.inst	0x0e490166 ; undefined
     e58:	030b0000 	.inst	0x030b0000 ; undefined
	}
     e5c:	00000000 	.inst	0x00000000 ; undefined
     e60:	0e5a6248 	.inst	0x0e5a6248 ; undefined
     e64:	000f0000 	.inst	0x000f0000 ; undefined
     e68:	48000000 	stxrh	w0, w0, [x0]
	unsigned int i;
     e6c:	000e5b63 	.inst	0x000e5b63 ; undefined
     e70:	00001f00 	.inst	0x00001f00 ; undefined
     e74:	04070000 	.inst	0x04070000 ; undefined
     e78:	00000076 	.inst	0x00000076 ; undefined
				blk_mq_free_rqs(q->tag_set,
     e7c:	b4018748 	cbz	x8, 3f64 <.debug_info+0x3f64>
     e80:	0800000e 	stxrb	w0, w14, [x0]
     e84:	00000000 	.inst	0x00000000 ; undefined
	unsigned int i;
     e88:	00000800 	.inst	0x00000800 ; undefined
     e8c:	08010000 	stxrb	w1, w0, [x0]
     e90:	00000000 	.inst	0x00000000 ; undefined
     e94:	00000802 	.inst	0x00000802 ; undefined
	queue_for_each_hw_ctx(q, hctx, i) {
     e98:	08020000 	stxrb	w2, w0, [x0]
     e9c:	00000000 	.inst	0x00000000 ; undefined
     ea0:	00000803 	.inst	0x00000803 ; undefined
     ea4:	08040000 	stxrb	w4, w0, [x0]
     ea8:	00000000 	.inst	0x00000000 ; undefined
     eac:	00000805 	.inst	0x00000805 ; undefined
     eb0:	00060000 	.inst	0x00060000 ; undefined
		}
     eb4:	000e5b13 	.inst	0x000e5b13 ; undefined
     eb8:	000ec400 	.inst	0x000ec400 ; undefined
     ebc:	00fd1400 	.inst	0x00fd1400 ; undefined
     ec0:	00050000 	.inst	0x00050000 ; undefined
     ec4:	00000015 	.inst	0x00000015 ; undefined
     ec8:	019b4800 	.inst	0x019b4800 ; undefined
     ecc:	00000eb4 	.inst	0x00000eb4 ; undefined
		flags = hctx->flags;
     ed0:	00000015 	.inst	0x00000015 ; undefined
     ed4:	01c04800 	.inst	0x01c04800 ; undefined
	}
     ed8:	00000076 	.inst	0x00000076 ; undefined
	blk_mq_debugfs_unregister_sched(q);
     edc:	00000015 	.inst	0x00000015 ; undefined
     ee0:	01c14800 	.inst	0x01c14800 ; undefined
	}
     ee4:	00000076 	.inst	0x00000076 ; undefined
     ee8:	76040707 	.inst	0x76040707 ; undefined
     eec:	49000000 	.inst	0x49000000 ; undefined
     ef0:	000f142b 	.inst	0x000f142b ; undefined
	blk_mq_debugfs_unregister_sched(q);
     ef4:	00000800 	.inst	0x00000800 ; undefined
	if (e->type->ops.exit_sched)
     ef8:	08000000 	stxrb	w0, w0, [x0]
		}
     efc:	00000000 	.inst	0x00000000 ; undefined
     f00:	00000801 	.inst	0x00000801 ; undefined
     f04:	08020000 	stxrb	w2, w0, [x0]
     f08:	00000000 	.inst	0x00000000 ; undefined
	blk_mq_sched_tags_teardown(q, flags);
     f0c:	00000803 	.inst	0x00000803 ; undefined
     f10:	00040000 	.inst	0x00040000 ; undefined
}
     f14:	00000018 	.inst	0x00000018 ; undefined
     f18:	76040700 	.inst	0x76040700 ; undefined
     f1c:	4a000000 	eor	w0, w0, w0
     f20:	000f3819 	.inst	0x000f3819 ; undefined
     f24:	00000800 	.inst	0x00000800 ; undefined
     f28:	08000000 	stxrb	w0, w0, [x0]
     f2c:	00000000 	.inst	0x00000000 ; undefined
     f30:	00000801 	.inst	0x00000801 ; undefined
     f34:	00020000 	.inst	0x00020000 ; undefined
     f38:	0000000c 	.inst	0x0000000c ; undefined
     f3c:	00001500 	.inst	0x00001500 ; undefined
     f40:	624b0000 	.inst	0x624b0000 ; undefined
     f44:	000f3801 	.inst	0x000f3801 ; undefined
     f48:	00001500 	.inst	0x00001500 ; undefined
     f4c:	634b0000 	.inst	0x634b0000 ; undefined
     f50:	000cb801 	.inst	0x000cb801 ; undefined
     f54:	00001f00 	.inst	0x00001f00 ; undefined

     f58:	04050000 	.inst	0x04050000 ; undefined
     f5c:	0000005f 	.inst	0x0000005f ; undefined
     f60:	8002c14b 	.inst	0x8002c14b ; undefined
     f64:	2000000f 	.inst	0x2000000f ; undefined
	if (!e) {
     f68:	00000000 	.inst	0x00000000 ; undefined

     f6c:	0000087f 	.inst	0x0000087f ; undefined
     f70:	08000000 	stxrb	w0, w0, [x0]
     f74:	00000000 	.inst	0x00000000 ; undefined
     f78:	00000801 	.inst	0x00000801 ; undefined
		if (ret)
     f7c:	00020000 	.inst	0x00020000 ; undefined
     f80:	0000000c 	.inst	0x0000000c ; undefined
     f84:	00001500 	.inst	0x00001500 ; undefined
	if (!e) {
     f88:	7c4b0000 	ldur	h0, [x0, #176]
		if (ret)
     f8c:	000f9106 	.inst	0x000f9106 ; undefined
     f90:	1a080a00 	.inst	0x1a080a00 ; undefined
     f94:	2100000c 	.inst	0x2100000c ; undefined
     f98:	00000000 	.inst	0x00000000 ; undefined

     f9c:	0000fd13 	.inst	0x0000fd13 ; undefined
     fa0:	000fad00 	.inst	0x000fad00 ; undefined

     fa4:	00fd2200 	.inst	0x00fd2200 ; undefined
     fa8:	07ff0000 	.inst	0x07ff0000 ; undefined
     fac:	00001500 	.inst	0x00001500 ; undefined
     fb0:	5e4b0000 	.inst	0x5e4b0000 ; undefined
     fb4:	000f9c07 	.inst	0x000f9c07 ; undefined
						    q->nr_requests);
     fb8:	00001f00 	.inst	0x00001f00 ; undefined
     fbc:	04070000 	.inst	0x04070000 ; undefined

     fc0:	00000076 	.inst	0x00000076 ; undefined
     fc4:	de087e4b 	.inst	0xde087e4b ; undefined
     fc8:	0800000f 	stxrb	w0, w15, [x0]
     fcc:	00000000 	.inst	0x00000000 ; undefined
	hctx->sched_tags = blk_mq_alloc_map_and_rqs(q->tag_set, hctx_idx,
     fd0:	00000800 	.inst	0x00000800 ; undefined

     fd4:	08010000 	stxrb	w1, w0, [x0]
     fd8:	00000000 	.inst	0x00000000 ; undefined
     fdc:	000c0002 	.inst	0x000c0002 ; undefined
	hctx->sched_tags = blk_mq_alloc_map_and_rqs(q->tag_set, hctx_idx,
     fe0:	15000000 	b	4000fe0 <blk_mq_init_sched+0x4000088>
	return 0;
     fe4:	00000000 	.inst	0x00000000 ; undefined
     fe8:	de02504c 	.inst	0xde02504c ; undefined
     fec:	1000000f 	adr	x15, fec <.debug_info+0xfec>
     ff0:	00000000 	.inst	0x00000000 ; undefined
static void blk_mq_exit_sched_shared_tags(struct request_queue *queue)
     ff4:	7602c14c 	.inst	0x7602c14c ; undefined
{
     ff8:	13000000 	sbfx	w0, w0, #0, #1
     ffc:	0000003f 	.inst	0x0000003f ; undefined
    1000:	0000100b 	.inst	0x0000100b ; undefined

    1004:	0000fd14 	.inst	0x0000fd14 ; undefined
    1008:	0f001300 	fmla	v0.4h, v24.4h, v0.h[0]
    100c:	00000000 	.inst	0x00000000 ; undefined
    1010:	0ffb0e4d 	.inst	0x0ffb0e4d ; undefined
    1014:	00180000 	.inst	0x00180000 ; undefined
	return 0;
    1018:	07000000 	.inst	0x07000000 ; undefined
int blk_mq_init_sched(struct request_queue *q, struct elevator_type *e)
    101c:	00007604 	.inst	0x00007604 ; undefined
    1020:	582a4e00 	ldr	x0, 559e0 <blk_mq_init_sched+0x54a88>
    1024:	08000010 	stxrb	w0, w16, [x0]
    1028:	00000000 	.inst	0x00000000 ; undefined
    102c:	00000800 	.inst	0x00000800 ; undefined

    1030:	08010000 	stxrb	w1, w0, [x0]
    1034:	00000000 	.inst	0x00000000 ; undefined
    1038:	00000802 	.inst	0x00000802 ; undefined
    103c:	08030000 	stxrb	w3, w0, [x0]
    1040:	00000000 	.inst	0x00000000 ; undefined
	queue_for_each_hw_ctx(q, hctx, i) {
    1044:	00000803 	.inst	0x00000803 ; undefined
}
    1048:	08040000 	stxrb	w4, w0, [x0]
    104c:	00000000 	.inst	0x00000000 ; undefined

    1050:	00000805 	.inst	0x00000805 ; undefined
    1054:	00060000 	.inst	0x00060000 ; undefined
    1058:	000b0313 	.inst	0x000b0313 ; undefined
 * called in either blk_queue_cleanup or elevator_switch, tagset
    105c:	00106800 	.inst	0x00106800 ; undefined
 * is required for freeing requests
    1060:	00fd1400 	.inst	0x00fd1400 ; undefined
    1064:	00050000 	.inst	0x00050000 ; undefined
 */
    1068:	00105805 	.inst	0x00105805 ; undefined
    106c:	00000f00 	.inst	0x00000f00 ; undefined
    1070:	474e0000 	.inst	0x474e0000 ; undefined
    1074:	00001068 	.inst	0x00001068 ; undefined
    1078:	0000000f 	.inst	0x0000000f ; undefined
	/*
    107c:	5f5a4e00 	.inst	0x5f5a4e00 ; undefined
	 * since we don't split into sync/async like the old code did.
    1080:	18000000 	ldr	w0, 1080 <.debug_info+0x1080>
	 * Default to double of smaller one between hw queue_depth and 128,
    1084:	00000000 	.inst	0x00000000 ; undefined
    1088:	00760407 	.inst	0x00760407 ; undefined
 */
    108c:	834e0000 	.inst	0x834e0000 ; undefined
    1090:	000010bf 	.inst	0x000010bf ; undefined
    1094:	00000008 	.inst	0x00000008 ; undefined
    1098:	00080000 	.inst	0x00080000 ; undefined
    109c:	01000000 	.inst	0x01000000 ; undefined
			if (ret) {
    10a0:	00000008 	.inst	0x00000008 ; undefined
    10a4:	00080200 	.inst	0x00080200 ; undefined
				blk_mq_sched_free_rqs(q);
    10a8:	03000000 	.inst	0x03000000 ; undefined
    10ac:	00000008 	.inst	0x00000008 ; undefined
    10b0:	00080400 	.inst	0x00080400 ; undefined
    10b4:	05000000 	orr	z0.s, z0.s, #0x1
    10b8:	00000008 	.inst	0x00000008 ; undefined
err_free_map_and_rqs:
    10bc:	18000600 	ldr	w0, 117c <.debug_info+0x117c>
    10c0:	00000000 	.inst	0x00000000 ; undefined
    10c4:	00760407 	.inst	0x00760407 ; undefined
				blk_mq_sched_free_rqs(q);
    10c8:	904e0000 	adrp	x0, 9c001000 <blk_mq_init_sched+0x9c0000a8>
    10cc:	00001119 	.inst	0x00001119 ; undefined
    10d0:	00000008 	.inst	0x00000008 ; undefined
    10d4:	00080000 	.inst	0x00080000 ; undefined
				blk_mq_exit_sched(q, eq);
    10d8:	01000000 	.inst	0x01000000 ; undefined
				kobject_put(&eq->kobj);
    10dc:	00000008 	.inst	0x00000008 ; undefined
				blk_mq_sched_free_rqs(q);
    10e0:	00080100 	.inst	0x00080100 ; undefined
    10e4:	02000000 	.inst	0x02000000 ; undefined
				blk_mq_exit_sched(q, eq);
    10e8:	00000008 	.inst	0x00000008 ; undefined
				kobject_put(&eq->kobj);
    10ec:	00080300 	.inst	0x00080300 ; undefined
    10f0:	04000000 	add	z0.b, p0/m, z0.b, z0.b
    10f4:	00000008 	.inst	0x00000008 ; undefined
				return ret;
    10f8:	00080500 	.inst	0x00080500 ; undefined
			}
    10fc:	06000000 	.inst	0x06000000 ; undefined
		}
    1100:	00000008 	.inst	0x00000008 ; undefined
				kobject_put(&eq->kobj);
    1104:	00080700 	.inst	0x00080700 ; undefined
		}
    1108:	08000000 	stxrb	w0, w0, [x0]
		blk_mq_debugfs_register_sched_hctx(q, hctx);
    110c:	00000008 	.inst	0x00000008 ; undefined
    1110:	00080900 	.inst	0x00080900 ; undefined
    1114:	0a000000 	and	w0, w0, w0
	}
    1118:	00001800 	.inst	0x00001800 ; undefined
    111c:	04070000 	.inst	0x04070000 ; undefined

    1120:	00000076 	.inst	0x00000076 ; undefined
    1124:	1233a34e 	and	w14, w26, #0xe03fe03f
    1128:	00080000 	.inst	0x00080000 ; undefined
    112c:	00000000 	.inst	0x00000000 ; undefined
    1130:	00000008 	.inst	0x00000008 ; undefined
    1134:	00080000 	.inst	0x00080000 ; undefined
    1138:	01000000 	.inst	0x01000000 ; undefined
    113c:	00000008 	.inst	0x00000008 ; undefined
}
    1140:	00080200 	.inst	0x00080200 ; undefined
    1144:	03000000 	.inst	0x03000000 ; undefined
    1148:	00000008 	.inst	0x00000008 ; undefined
    114c:	00080400 	.inst	0x00080400 ; undefined
    1150:	05000000 	orr	z0.s, z0.s, #0x1
    1154:	00000008 	.inst	0x00000008 ; undefined
    1158:	00080600 	.inst	0x00080600 ; undefined
    115c:	07000000 	.inst	0x07000000 ; undefined
    1160:	00000008 	.inst	0x00000008 ; undefined
    1164:	00080800 	.inst	0x00080800 ; undefined
    1168:	09000000 	.inst	0x09000000 ; undefined
    116c:	00000008 	.inst	0x00000008 ; undefined
    1170:	00080a00 	.inst	0x00080a00 ; undefined
    1174:	0a000000 	and	w0, w0, w0
    1178:	00000008 	.inst	0x00000008 ; undefined
    117c:	00080b00 	.inst	0x00080b00 ; undefined
    1180:	0c000000 	st4	{v0.8b-v3.8b}, [x0]
    1184:	00000008 	.inst	0x00000008 ; undefined
    1188:	00080c00 	.inst	0x00080c00 ; undefined
    118c:	0d000000 	st1	{v0.b}[0], [x0]
    1190:	00000008 	.inst	0x00000008 ; undefined
    1194:	00080e00 	.inst	0x00080e00 ; undefined
    1198:	0e000000 	tbl	v0.8b, {v0.16b}, v0.8b
    119c:	00000008 	.inst	0x00000008 ; undefined
    11a0:	00080f00 	.inst	0x00080f00 ; undefined
    11a4:	10000000 	adr	x0, 11a4 <.debug_info+0x11a4>
    11a8:	00000008 	.inst	0x00000008 ; undefined
    11ac:	00081100 	.inst	0x00081100 ; undefined
    11b0:	12000000 	and	w0, w0, #0x1
    11b4:	00000008 	.inst	0x00000008 ; undefined
    11b8:	00081300 	.inst	0x00081300 ; undefined
    11bc:	14000000 	b	11bc <.debug_info+0x11bc>
    11c0:	00000008 	.inst	0x00000008 ; undefined
    11c4:	00081500 	.inst	0x00081500 ; undefined
    11c8:	16000000 	b	fffffffff80011c8 <blk_mq_init_sched+0xfffffffff8000270>
    11cc:	00000008 	.inst	0x00000008 ; undefined
    11d0:	00081700 	.inst	0x00081700 ; undefined
    11d4:	18000000 	ldr	w0, 11d4 <.debug_info+0x11d4>
    11d8:	00000008 	.inst	0x00000008 ; undefined
    11dc:	00081900 	.inst	0x00081900 ; undefined
    11e0:	1a000000 	adc	w0, w0, w0
    11e4:	00000008 	.inst	0x00000008 ; undefined
    11e8:	00081b00 	.inst	0x00081b00 ; undefined
    11ec:	1c000000 	ldr	s0, 11ec <.debug_info+0x11ec>
    11f0:	00000008 	.inst	0x00000008 ; undefined
    11f4:	00081d00 	.inst	0x00081d00 ; undefined
    11f8:	1e000000 	.inst	0x1e000000 ; undefined
    11fc:	00000008 	.inst	0x00000008 ; undefined
    1200:	00081f00 	.inst	0x00081f00 ; undefined
    1204:	20000000 	.inst	0x20000000 ; undefined
    1208:	00000008 	.inst	0x00000008 ; undefined
    120c:	00082100 	.inst	0x00082100 ; undefined
    1210:	22000000 	.inst	0x22000000 ; undefined
    1214:	00000008 	.inst	0x00000008 ; undefined
    1218:	00082300 	.inst	0x00082300 ; undefined
    121c:	24000000 	cmphs	p0.b, p0/z, z0.b, z0.b
    1220:	00000008 	.inst	0x00000008 ; undefined
    1224:	00082500 	.inst	0x00082500 ; undefined
    1228:	26000000 	.inst	0x26000000 ; undefined
    122c:	00000008 	.inst	0x00000008 ; undefined
    1230:	1f002700 	fmadd	s0, s24, s0, s9
    1234:	00000000 	.inst	0x00000000 ; undefined
    1238:	00760407 	.inst	0x00760407 ; undefined
    123c:	0a4e0000 	and	w0, w0, w14, lsr #0
    1240:	00126a01 	.inst	0x00126a01 ; undefined
    1244:	00000800 	.inst	0x00000800 ; undefined
    1248:	08000000 	stxrb	w0, w0, [x0]
    124c:	00000000 	.inst	0x00000000 ; undefined
    1250:	00000801 	.inst	0x00000801 ; undefined
    1254:	08020000 	stxrb	w2, w0, [x0]
    1258:	00000000 	.inst	0x00000000 ; undefined
    125c:	00000803 	.inst	0x00000803 ; undefined
    1260:	08040000 	stxrb	w4, w0, [x0]
    1264:	00000000 	.inst	0x00000000 ; undefined
    1268:	001f0005 	.inst	0x001f0005 ; undefined
    126c:	07000000 	.inst	0x07000000 ; undefined
    1270:	00007604 	.inst	0x00007604 ; undefined
    1274:	01494e00 	.inst	0x01494e00 ; undefined
    1278:	00001295 	.inst	0x00001295 ; undefined
    127c:	00000008 	.inst	0x00000008 ; undefined
    1280:	00080000 	.inst	0x00080000 ; undefined
    1284:	01000000 	.inst	0x01000000 ; undefined
    1288:	00000008 	.inst	0x00000008 ; undefined
    128c:	00080200 	.inst	0x00080200 ; undefined
    1290:	03000000 	.inst	0x03000000 ; undefined
    1294:	04072300 	.inst	0x04072300 ; undefined
    1298:	00000076 	.inst	0x00000076 ; undefined
    129c:	b602e24e 	tbz	x14, #32, 6ee4 <blk_mq_init_sched+0x5f8c>
    12a0:	08000012 	stxrb	w0, w18, [x0]
    12a4:	00000000 	.inst	0x00000000 ; undefined
    12a8:	00000800 	.inst	0x00000800 ; undefined
    12ac:	08010000 	stxrb	w1, w0, [x0]
    12b0:	00000000 	.inst	0x00000000 ; undefined
    12b4:	00150002 	.inst	0x00150002 ; undefined
    12b8:	4e000000 	tbl	v0.16b, {v0.16b}, v0.16b
    12bc:	0dd2030e 	ld1	{v14.b}[0], [x24], x18
    12c0:	000c0000 	.inst	0x000c0000 ; undefined
    12c4:	0c000000 	st4	{v0.8b-v3.8b}, [x0]
    12c8:	00000000 	.inst	0x00000000 ; undefined
    12cc:	0000000c 	.inst	0x0000000c ; undefined
    12d0:	00000f00 	.inst	0x00000f00 ; undefined
    12d4:	e74f0000 	.inst	0xe74f0000 ; undefined
    12d8:	000012cc 	.inst	0x000012cc ; undefined
    12dc:	00000015 	.inst	0x00000015 ; undefined
    12e0:	03fe4e00 	.inst	0x03fe4e00 ; undefined
    12e4:	0000005f 	.inst	0x0000005f ; undefined
    12e8:	00005f13 	.inst	0x00005f13 ; undefined
    12ec:	0012f800 	.inst	0x0012f800 ; undefined
    12f0:	00fd1400 	.inst	0x00fd1400 ; undefined
    12f4:	00030000 	.inst	0x00030000 ; undefined
    12f8:	00000015 	.inst	0x00000015 ; undefined
    12fc:	04214e00 	index	z0.b, w16, w1
    1300:	000012e8 	.inst	0x000012e8 ; undefined
    1304:	00000015 	.inst	0x00000015 ; undefined
    1308:	042c4e00 	index	z0.b, w16, w12
    130c:	0000005f 	.inst	0x0000005f ; undefined
    1310:	00000015 	.inst	0x00000015 ; undefined
    1314:	042d4e00 	index	z0.b, w16, w13
    1318:	00000258 	.inst	0x00000258 ; undefined
    131c:	0000000f 	.inst	0x0000000f ; undefined
    1320:	fd115000 	str	d0, [x0, #8864]
    1324:	0f000000 	.inst	0x0f000000 ; undefined
    1328:	00000000 	.inst	0x00000000 ; undefined
    132c:	00fd1a50 	.inst	0x00fd1a50 ; undefined
    1330:	000f0000 	.inst	0x000f0000 ; undefined
    1334:	50000000 	adr	x0, 1336 <.debug_info+0x1336>
    1338:	0000fd34 	.inst	0x0000fd34 ; undefined
    133c:	00000c00 	.inst	0x00000c00 ; undefined
    1340:	3d130000 	str	b0, [x0, #1216]
    1344:	52000013 	eor	w19, w0, #0x1
    1348:	14000013 	b	1394 <.debug_info+0x1394>
    134c:	000000fd 	.inst	0x000000fd ; undefined
    1350:	000f00ff 	.inst	0x000f00ff ; undefined
    1354:	50000000 	adr	x0, 1356 <.debug_info+0x1356>
    1358:	00134249 	.inst	0x00134249 ; undefined
    135c:	00000f00 	.inst	0x00000f00 ; undefined
    1360:	0c510000 	.inst	0x0c510000 ; undefined
    1364:	00000e5b 	.inst	0x00000e5b ; undefined
    1368:	0000000f 	.inst	0x0000000f ; undefined
    136c:	300e5100 	adr	x0, 1dd8d <blk_mq_init_sched+0x1ce35>
    1370:	13000001 	sbfx	w1, w0, #0, #1
    1374:	00000599 	.inst	0x00000599 ; undefined
    1378:	00001389 	.inst	0x00001389 ; undefined
    137c:	0000fd14 	.inst	0x0000fd14 ; undefined
    1380:	fd140f00 	str	d0, [x24, #10264]
    1384:	00000000 	.inst	0x00000000 ; undefined
    1388:	00000f00 	.inst	0x00000f00 ; undefined
    138c:	11510000 	add	w0, w0, #0x440, lsl #12
    1390:	00001373 	.inst	0x00001373 ; undefined
    1394:	00139f13 	.inst	0x00139f13 ; undefined
    1398:	00139f00 	.inst	0x00139f00 ; undefined
    139c:	0a001600 	and	w0, w16, w0, lsl #5
    13a0:	0012c208 	.inst	0x0012c208 ; undefined
    13a4:	00000f00 	.inst	0x00000f00 ; undefined
    13a8:	09520000 	.inst	0x09520000 ; undefined
    13ac:	00001394 	.inst	0x00001394 ; undefined
    13b0:	0000000c 	.inst	0x0000000c ; undefined
    13b4:	00001500 	.inst	0x00001500 ; undefined
    13b8:	354e0000 	cbnz	w0, 9d3b8 <blk_mq_init_sched+0x9c460>
    13bc:	0013c105 	.inst	0x0013c105 ; undefined
    13c0:	c7080a00 	.inst	0xc7080a00 ; undefined
    13c4:	0a000013 	and	w19, w0, w0
    13c8:	0013b008 	.inst	0x0013b008 ; undefined
    13cc:	00001500 	.inst	0x00001500 ; undefined
    13d0:	9c4e0000 	ldr	q0, 9d3d0 <blk_mq_init_sched+0x9c478>
    13d4:	0000fd05 	.inst	0x0000fd05 ; undefined
    13d8:	00000f00 	.inst	0x00000f00 ; undefined
    13dc:	4c530000 	.inst	0x4c530000 ; undefined
    13e0:	0000005f 	.inst	0x0000005f ; undefined
    13e4:	0000000f 	.inst	0x0000000f ; undefined
    13e8:	5f535300 	.inst	0x5f535300 ; undefined
    13ec:	15000000 	b	40013ec <blk_mq_init_sched+0x4000494>
    13f0:	00000000 	.inst	0x00000000 ; undefined
    13f4:	5d028f54 	.inst	0x5d028f54 ; undefined
    13f8:	13000001 	sbfx	w1, w0, #0, #1
    13fc:	00000066 	.inst	0x00000066 ; undefined
    1400:	00001406 	.inst	0x00001406 ; undefined
    1404:	fb050016 	.inst	0xfb050016 ; undefined
    1408:	0f000013 	.inst	0x0f000013 ; undefined
    140c:	00000000 	.inst	0x00000000 ; undefined
    1410:	14062d55 	b	18c964 <blk_mq_init_sched+0x18ba0c>
    1414:	000c0000 	.inst	0x000c0000 ; undefined
    1418:	0f000000 	.inst	0x0f000000 ; undefined
    141c:	00000000 	.inst	0x00000000 ; undefined
    1420:	005fcc55 	.inst	0x005fcc55 ; undefined
    1424:	000f0000 	.inst	0x000f0000 ; undefined
    1428:	55000000 	.inst	0x55000000 ; undefined
    142c:	00005fcd 	.inst	0x00005fcd ; undefined
    1430:	00000f00 	.inst	0x00000f00 ; undefined
    1434:	ce550000 	.inst	0xce550000 ; undefined
    1438:	0000005f 	.inst	0x0000005f ; undefined
    143c:	0000000f 	.inst	0x0000000f ; undefined
    1440:	5fcf5500 	.inst	0x5fcf5500 ; undefined
    1444:	13000000 	sbfx	w0, w0, #0, #1
    1448:	00001416 	.inst	0x00001416 ; undefined
    144c:	00001452 	.inst	0x00001452 ; undefined
    1450:	000f0016 	.inst	0x000f0016 ; undefined
    1454:	55000000 	.inst	0x55000000 ; undefined
    1458:	001447d1 	.inst	0x001447d1 ; undefined
    145c:	00000f00 	.inst	0x00000f00 ; undefined
    1460:	d2550000 	eor	x0, x0, #0x80000000000
    1464:	00001447 	.inst	0x00001447 ; undefined
    1468:	0000000f 	.inst	0x0000000f ; undefined
    146c:	47d35500 	.inst	0x47d35500 ; undefined
    1470:	0f000014 	.inst	0x0f000014 ; undefined
    1474:	00000000 	.inst	0x00000000 ; undefined
    1478:	1447d455 	b	11f65cc <blk_mq_init_sched+0x11f5674>
    147c:	000f0000 	.inst	0x000f0000 ; undefined
    1480:	56000000 	.inst	0x56000000 ; undefined
    1484:	0014472c 	.inst	0x0014472c ; undefined
    1488:	00000f00 	.inst	0x00000f00 ; undefined
    148c:	14570000 	b	15c148c <blk_mq_init_sched+0x15c0534>
    1490:	00000258 	.inst	0x00000258 ; undefined
    1494:	0000030b 	.inst	0x0000030b ; undefined
    1498:	99580000 	.inst	0x99580000 ; undefined
    149c:	00001494 	.inst	0x00001494 ; undefined
    14a0:	0000000c 	.inst	0x0000000c ; undefined
    14a4:	14a00500 	b	28028a4 <blk_mq_init_sched+0x280194c>
    14a8:	000f0000 	.inst	0x000f0000 ; undefined
    14ac:	59000000 	.inst	0x59000000 ; undefined
    14b0:	0014a53c 	.inst	0x0014a53c ; undefined
    14b4:	00000f00 	.inst	0x00000f00 ; undefined
    14b8:	3d590000 	ldr	b0, [x0, #1600]
    14bc:	000014a5 	.inst	0x000014a5 ; undefined
    14c0:	0000000f 	.inst	0x0000000f ; undefined
    14c4:	a53e5900 	ld1sh	{z0.s}, p6/z, [x8, x30, lsl #1]
    14c8:	0c000014 	st4	{v20.8b-v23.8b}, [x0]
    14cc:	00000000 	.inst	0x00000000 ; undefined
    14d0:	0000000f 	.inst	0x0000000f ; undefined
    14d4:	cb485900 	sub	x0, x8, x8, lsr #22
    14d8:	0c000014 	st4	{v20.8b-v23.8b}, [x0]
    14dc:	00000000 	.inst	0x00000000 ; undefined
    14e0:	0000000c 	.inst	0x0000000c ; undefined
    14e4:	14e00500 	b	38028e4 <blk_mq_init_sched+0x380198c>
    14e8:	000f0000 	.inst	0x000f0000 ; undefined
    14ec:	59000000 	.inst	0x59000000 ; undefined
    14f0:	000de9e1 	.inst	0x000de9e1 ; undefined
    14f4:	00001500 	.inst	0x00001500 ; undefined
    14f8:	fe590000 	.inst	0xfe590000 ; undefined
    14fc:	00005f01 	.inst	0x00005f01 ; undefined
    1500:	8b080a00 	add	x0, x16, x8, lsl #2
    1504:	05000001 	orr	z1.s, z1.s, #0x1
    1508:	00001501 	.inst	0x00001501 ; undefined
    150c:	03df080a 	.inst	0x03df080a ; undefined
    1510:	000c0000 	.inst	0x000c0000 ; undefined
    1514:	0f000000 	.inst	0x0f000000 ; undefined
    1518:	00000000 	.inst	0x00000000 ; undefined
    151c:	1512205a 	b	4489684 <blk_mq_init_sched+0x448872c>
    1520:	000f0000 	.inst	0x000f0000 ; undefined
    1524:	5b000000 	.inst	0x5b000000 ; undefined
    1528:	00005f16 	.inst	0x00005f16 ; undefined
    152c:	00000c00 	.inst	0x00000c00 ; undefined
    1530:	00030000 	.inst	0x00030000 ; undefined
    1534:	5b000000 	.inst	0x5b000000 ; undefined
    1538:	00152d1a 	.inst	0x00152d1a ; undefined
    153c:	15320500 	b	4c8293c <blk_mq_init_sched+0x4c819e4>
    1540:	000f0000 	.inst	0x000f0000 ; undefined
    1544:	5b000000 	.inst	0x5b000000 ; undefined
    1548:	00153d2e 	.inst	0x00153d2e ; undefined
    154c:	00000f00 	.inst	0x00000f00 ; undefined
    1550:	2f5b0000 	mla	v0.4h, v0.4h, v11.h[1]
    1554:	0000153d 	.inst	0x0000153d ; undefined
    1558:	0000000f 	.inst	0x0000000f ; undefined
    155c:	5f0c5c00 	.inst	0x5f0c5c00 ; undefined
    1560:	15000000 	b	4001560 <blk_mq_init_sched+0x4000608>
    1564:	00000000 	.inst	0x00000000 ; undefined
    1568:	5f01225c 	.inst	0x5f01225c ; undefined
    156c:	0c000000 	st4	{v0.8b-v3.8b}, [x0]
    1570:	00000000 	.inst	0x00000000 ; undefined
    1574:	00000015 	.inst	0x00000015 ; undefined
    1578:	01455c00 	.inst	0x01455c00 ; undefined
    157c:	00001580 	.inst	0x00001580 ; undefined
    1580:	156f080a 	b	5bc35a8 <blk_mq_init_sched+0x5bc2650>
    1584:	000f0000 	.inst	0x000f0000 ; undefined
    1588:	5d000000 	.inst	0x5d000000 ; undefined
    158c:	0003eb2d 	.inst	0x0003eb2d ; undefined
    1590:	00000f00 	.inst	0x00000f00 ; undefined
    1594:	2e5d0000 	.inst	0x2e5d0000 ; undefined
    1598:	000003df 	.inst	0x000003df ; undefined
    159c:	0000000f 	.inst	0x0000000f ; undefined
    15a0:	97305d00 	bl	fffffffffcc189a0 <blk_mq_init_sched+0xfffffffffcc17a48>
    15a4:	0f00000f 	.inst	0x0f00000f ; undefined
    15a8:	00000000 	.inst	0x00000000 ; undefined
    15ac:	0f80315d 	sqdmlal	v29.2d, v10.2s, v0.s[0]
    15b0:	00150000 	.inst	0x00150000 ; undefined
    15b4:	5e000000 	sha1c	q0, s0, v0.4s
    15b8:	144701e0 	b	11c1d38 <blk_mq_init_sched+0x11c0de0>
    15bc:	000f0000 	.inst	0x000f0000 ; undefined
    15c0:	5f000000 	.inst	0x5f000000 ; undefined
    15c4:	00005f1d 	.inst	0x00005f1d ; undefined
    15c8:	00000f00 	.inst	0x00000f00 ; undefined
    15cc:	2b600000 	.inst	0x2b600000 ; undefined
    15d0:	000003f6 	.inst	0x000003f6 ; undefined
    15d4:	0000000c 	.inst	0x0000000c ; undefined
    15d8:	00000f00 	.inst	0x00000f00 ; undefined
    15dc:	2a610000 	orn	w0, w0, w1, lsr #0
    15e0:	000015d4 	.inst	0x000015d4 ; undefined
    15e4:	0f80080a 	.inst	0x0f80080a ; undefined
    15e8:	030b0000 	.inst	0x030b0000 ; undefined
    15ec:	00000000 	.inst	0x00000000 ; undefined
    15f0:	15ea1962 	b	7a87b78 <blk_mq_init_sched+0x7a86c20>
    15f4:	eb050000 	subs	x0, x0, x5
    15f8:	0b000015 	add	w21, w0, w0
    15fc:	00000003 	.inst	0x00000003 ; undefined
    1600:	fb126300 	.inst	0xfb126300 ; undefined
    1604:	05000015 	orr	z21.s, z21.s, #0x1
    1608:	000015fc 	.inst	0x000015fc ; undefined
    160c:	0000000f 	.inst	0x0000000f ; undefined
    1610:	f6216300 	.inst	0xf6216300 ; undefined
    1614:	0f000015 	.inst	0x0f000015 ; undefined
    1618:	00000000 	.inst	0x00000000 ; undefined
    161c:	16072263 	b	fffffffff81c9fa8 <blk_mq_init_sched+0xfffffffff81c9050>
    1620:	ab130000 	adds	x0, x0, x19
    1624:	32000000 	orr	w0, w0, #0x1
    1628:	14000016 	b	1680 <.debug_info+0x1680>
    162c:	000000fd 	.inst	0x000000fd ; undefined
    1630:	2205000f 	.inst	0x2205000f ; undefined
    1634:	0f000016 	.inst	0x0f000016 ; undefined
    1638:	00000000 	.inst	0x00000000 ; undefined
    163c:	16325e63 	b	fffffffff8c98fc8 <blk_mq_init_sched+0xfffffffff8c98070>
    1640:	000f0000 	.inst	0x000f0000 ; undefined
    1644:	63000000 	.inst	0x63000000 ; undefined
    1648:	0016325f 	.inst	0x0016325f ; undefined
    164c:	00000c00 	.inst	0x00000c00 ; undefined
    1650:	000c0000 	.inst	0x000c0000 ; undefined
    1654:	0f000000 	.inst	0x0f000000 ; undefined
    1658:	00000000 	.inst	0x00000000 ; undefined
    165c:	00767564 	.inst	0x00767564 ; undefined
    1660:	000c0000 	.inst	0x000c0000 ; undefined
    1664:	0c000000 	st4	{v0.8b-v3.8b}, [x0]
    1668:	00000000 	.inst	0x00000000 ; undefined
    166c:	0000000f 	.inst	0x0000000f ; undefined
    1670:	62506500 	.inst	0x62506500 ; undefined
    1674:	0f000016 	.inst	0x0f000016 ; undefined
    1678:	00000000 	.inst	0x00000000 ; undefined
    167c:	00765265 	.inst	0x00765265 ; undefined
    1680:	000f0000 	.inst	0x000f0000 ; undefined
    1684:	65000000 	.inst	0x65000000 ; undefined
    1688:	00166753 	.inst	0x00166753 ; undefined
    168c:	00000f00 	.inst	0x00000f00 ; undefined
    1690:	54650000 	b.eq	cb690 <blk_mq_init_sched+0xca738>  // b.none
    1694:	0000005f 	.inst	0x0000005f ; undefined
    1698:	0000000f 	.inst	0x0000000f ; undefined
    169c:	5f546500 	.inst	0x5f546500 ; undefined
    16a0:	0f000000 	.inst	0x0f000000 ; undefined
    16a4:	00000000 	.inst	0x00000000 ; undefined
    16a8:	005f5565 	.inst	0x005f5565 ; undefined
    16ac:	000f0000 	.inst	0x000f0000 ; undefined
    16b0:	65000000 	.inst	0x65000000 ; undefined
    16b4:	00005f56 	.inst	0x00005f56 ; undefined
    16b8:	00000f00 	.inst	0x00000f00 ; undefined
    16bc:	57650000 	.inst	0x57650000 ; undefined
    16c0:	0000005f 	.inst	0x0000005f ; undefined
    16c4:	0000000f 	.inst	0x0000000f ; undefined
    16c8:	5f586500 	.inst	0x5f586500 ; undefined
    16cc:	07000000 	.inst	0x07000000 ; undefined
    16d0:	00760407 	.inst	0x00760407 ; undefined
    16d4:	90660000 	adrp	x0, cc001000 <blk_mq_init_sched+0xcc0000a8>
    16d8:	000016ef 	.inst	0x000016ef ; undefined
    16dc:	00000008 	.inst	0x00000008 ; undefined
    16e0:	00080000 	.inst	0x00080000 ; undefined
    16e4:	10000000 	adr	x0, 16e4 <.debug_info+0x16e4>
    16e8:	00000008 	.inst	0x00000008 ; undefined
    16ec:	0f001100 	fmla	v0.4h, v8.4h, v0.h[0]
    16f0:	00000000 	.inst	0x00000000 ; undefined
    16f4:	03dfc167 	.inst	0x03dfc167 ; undefined
    16f8:	07070000 	.inst	0x07070000 ; undefined
    16fc:	00007604 	.inst	0x00007604 ; undefined
    1700:	3efd6700 	.inst	0x3efd6700 ; undefined
    1704:	08000017 	stxrb	w0, w23, [x0]
    1708:	00000000 	.inst	0x00000000 ; undefined
    170c:	00000800 	.inst	0x00000800 ; undefined
    1710:	08010000 	stxrb	w1, w0, [x0]
    1714:	00000000 	.inst	0x00000000 ; undefined
    1718:	00000802 	.inst	0x00000802 ; undefined
    171c:	08030000 	stxrb	w3, w0, [x0]
    1720:	00000000 	.inst	0x00000000 ; undefined
    1724:	00000804 	.inst	0x00000804 ; undefined
    1728:	08050000 	stxrb	w5, w0, [x0]
    172c:	00000000 	.inst	0x00000000 ; undefined
    1730:	00000806 	.inst	0x00000806 ; undefined
    1734:	08070000 	stxrb	w7, w0, [x0]
    1738:	00000000 	.inst	0x00000000 ; undefined
    173c:	000c0008 	.inst	0x000c0008 ; undefined
    1740:	15000000 	b	4001740 <blk_mq_init_sched+0x40007e8>
    1744:	00000000 	.inst	0x00000000 ; undefined
    1748:	3e010e67 	.inst	0x3e010e67 ; undefined
    174c:	0c000017 	st4	{v23.8b-v26.8b}, [x0]
    1750:	00000000 	.inst	0x00000000 ; undefined
    1754:	00174f05 	.inst	0x00174f05 ; undefined
    1758:	00001500 	.inst	0x00001500 ; undefined
    175c:	a7650000 	.inst	0xa7650000 ; undefined
    1760:	00175401 	.inst	0x00175401 ; undefined
    1764:	04072300 	.inst	0x04072300 ; undefined
    1768:	00000076 	.inst	0x00000076 ; undefined
    176c:	9205a865 	and	x5, x3, #0xf83ff83ff83ff83f
    1770:	08000017 	stxrb	w0, w23, [x0]
    1774:	00000000 	.inst	0x00000000 ; undefined
    1778:	00000800 	.inst	0x00000800 ; undefined
    177c:	08010000 	stxrb	w1, w0, [x0]
    1780:	00000000 	.inst	0x00000000 ; undefined
    1784:	00000802 	.inst	0x00000802 ; undefined
    1788:	08030000 	stxrb	w3, w0, [x0]
    178c:	00000000 	.inst	0x00000000 ; undefined
    1790:	000c0004 	.inst	0x000c0004 ; undefined
    1794:	0c000000 	st4	{v0.8b-v3.8b}, [x0]
    1798:	00000000 	.inst	0x00000000 ; undefined
    179c:	00179705 	.inst	0x00179705 ; undefined
    17a0:	00000c00 	.inst	0x00000c00 ; undefined
    17a4:	00150000 	.inst	0x00150000 ; undefined
    17a8:	65000000 	.inst	0x65000000 ; undefined
    17ac:	17b20a3a 	b	fffffffffec84094 <blk_mq_init_sched+0xfffffffffec8313c>
    17b0:	080a0000 	stxrb	w10, w0, [x0]
    17b4:	000017a1 	.inst	0x000017a1 ; undefined
    17b8:	00000015 	.inst	0x00000015 ; undefined
    17bc:	0acf6500 	and	w0, w8, w15, ror #25
    17c0:	00001580 	.inst	0x00001580 ; undefined
    17c4:	00000015 	.inst	0x00000015 ; undefined
    17c8:	0ad46500 	and	w0, w8, w20, ror #25
    17cc:	000017d0 	.inst	0x000017d0 ; undefined
    17d0:	1792080a 	b	fffffffffe4837f8 <blk_mq_init_sched+0xfffffffffe4828a0>
    17d4:	00150000 	.inst	0x00150000 ; undefined
    17d8:	65000000 	.inst	0x65000000 ; undefined
    17dc:	047f0adc 	.inst	0x047f0adc ; undefined
    17e0:	00150000 	.inst	0x00150000 ; undefined
    17e4:	65000000 	.inst	0x65000000 ; undefined
    17e8:	047f0add 	.inst	0x047f0add ; undefined
    17ec:	080a0000 	stxrb	w10, w0, [x0]
    17f0:	000017f4 	.inst	0x000017f4 ; undefined
    17f4:	6f69621c 	umlsl2	v28.4s, v16.8h, v9.h[2]
    17f8:	00001500 	.inst	0x00001500 ; undefined
    17fc:	f0650000 	adrp	x0, ca004000 <blk_mq_init_sched+0xca0030a8>
    1800:	00047f0c 	.inst	0x00047f0c ; undefined
    1804:	00001500 	.inst	0x00001500 ; undefined
    1808:	fc650000 	.inst	0xfc650000 ; undefined
    180c:	00179c0c 	.inst	0x00179c0c ; undefined
    1810:	00001500 	.inst	0x00001500 ; undefined
    1814:	0e650000 	saddl	v0.4s, v0.4h, v5.4h
    1818:	00179c0d 	.inst	0x00179c0d ; undefined
    181c:	00001500 	.inst	0x00001500 ; undefined
    1820:	47650000 	.inst	0x47650000 ; undefined
    1824:	0017540d 	.inst	0x0017540d ; undefined
    1828:	00001500 	.inst	0x00001500 ; undefined
    182c:	4b650000 	.inst	0x4b650000 ; undefined
    1830:	0014e50d 	.inst	0x0014e50d ; undefined
    1834:	00001500 	.inst	0x00001500 ; undefined
    1838:	4f650000 	.inst	0x4f650000 ; undefined
    183c:	00047f0d 	.inst	0x00047f0d ; undefined
    1840:	00001500 	.inst	0x00001500 ; undefined
    1844:	50650000 	adr	x0, cb846 <blk_mq_init_sched+0xca8ee>
    1848:	00179c0d 	.inst	0x00179c0d ; undefined
    184c:	14951300 	b	254644c <blk_mq_init_sched+0x25454f4>
    1850:	18580000 	ldr	w0, b1850 <blk_mq_init_sched+0xb08f8>
    1854:	00160000 	.inst	0x00160000 ; undefined
    1858:	0000000f 	.inst	0x0000000f ; undefined
    185c:	4d346800 	.inst	0x4d346800 ; undefined
    1860:	1c000018 	ldr	s24, 1860 <.debug_info+0x1860>
    1864:	00616469 	.inst	0x00616469 ; undefined
    1868:	0000000c 	.inst	0x0000000c ; undefined
    186c:	18680500 	ldr	w0, d190c <blk_mq_init_sched+0xd09b4>
    1870:	000f0000 	.inst	0x000f0000 ; undefined
    1874:	69000000 	.inst	0x69000000 ; undefined
    1878:	0000c629 	.inst	0x0000c629 ; undefined
    187c:	00000c00 	.inst	0x00000c00 ; undefined
    1880:	000c0000 	.inst	0x000c0000 ; undefined
    1884:	0f000000 	.inst	0x0f000000 ; undefined
    1888:	00000000 	.inst	0x00000000 ; undefined
    188c:	186dab69 	ldr	w9, dcdf8 <blk_mq_init_sched+0xdbea0>
    1890:	000c0000 	.inst	0x000c0000 ; undefined
    1894:	0f000000 	.inst	0x0f000000 ; undefined
    1898:	00000000 	.inst	0x00000000 ; undefined
    189c:	17b2e569 	b	fffffffffecbae40 <blk_mq_init_sched+0xfffffffffecb9ee8>
    18a0:	000f0000 	.inst	0x000f0000 ; undefined
    18a4:	69000000 	.inst	0x69000000 ; undefined
    18a8:	0017b2e7 	.inst	0x0017b2e7 ; undefined
    18ac:	00000f00 	.inst	0x00000f00 ; undefined
    18b0:	e9690000 	.inst	0xe9690000 ; undefined
    18b4:	000017b2 	.inst	0x000017b2 ; undefined
    18b8:	0000000f 	.inst	0x0000000f ; undefined
    18bc:	b2eb6900 	.inst	0xb2eb6900 ; undefined
    18c0:	0f000017 	.inst	0x0f000017 ; undefined
    18c4:	00000000 	.inst	0x00000000 ; undefined
    18c8:	17b2ed69 	b	fffffffffecbce6c <blk_mq_init_sched+0xfffffffffecbbf14>
    18cc:	000c0000 	.inst	0x000c0000 ; undefined
    18d0:	05000000 	orr	z0.s, z0.s, #0x1
    18d4:	000018ce 	.inst	0x000018ce ; undefined
    18d8:	0000000c 	.inst	0x0000000c ; undefined
    18dc:	18d80500 	ldr	w0, fffffffffffb197c <blk_mq_init_sched+0xfffffffffffb0a24>
    18e0:	dd130000 	.inst	0xdd130000 ; undefined
    18e4:	ed000018 	.inst	0xed000018 ; undefined
    18e8:	16000018 	b	fffffffff8001948 <blk_mq_init_sched+0xfffffffff80009f0>
    18ec:	18e20500 	ldr	w0, fffffffffffc598c <blk_mq_init_sched+0xfffffffffffc4a34>
    18f0:	000f0000 	.inst	0x000f0000 ; undefined
    18f4:	6a000000 	ands	w0, w0, w0
    18f8:	0018ed53 	.inst	0x0018ed53 ; undefined
    18fc:	00000f00 	.inst	0x00000f00 ; undefined
    1900:	536a0000 	.inst	0x536a0000 ; undefined
    1904:	000018ed 	.inst	0x000018ed ; undefined
    1908:	00000015 	.inst	0x00000015 ; undefined
    190c:	019b6a00 	.inst	0x019b6a00 ; undefined
    1910:	000018d3 	.inst	0x000018d3 ; undefined
    1914:	00000015 	.inst	0x00000015 ; undefined
    1918:	01a06a00 	.inst	0x01a06a00 ; undefined
    191c:	000018d3 	.inst	0x000018d3 ; undefined
    1920:	00000015 	.inst	0x00000015 ; undefined
    1924:	01a56a00 	.inst	0x01a56a00 ; undefined
    1928:	000018d3 	.inst	0x000018d3 ; undefined
    192c:	00000015 	.inst	0x00000015 ; undefined
    1930:	01aa6a00 	.inst	0x01aa6a00 ; undefined
    1934:	000018d3 	.inst	0x000018d3 ; undefined
    1938:	00000015 	.inst	0x00000015 ; undefined
    193c:	01af6a00 	.inst	0x01af6a00 ; undefined
    1940:	000018d3 	.inst	0x000018d3 ; undefined
    1944:	00000015 	.inst	0x00000015 ; undefined
    1948:	01b66a00 	.inst	0x01b66a00 ; undefined
    194c:	000018d3 	.inst	0x000018d3 ; undefined
    1950:	00000015 	.inst	0x00000015 ; undefined
    1954:	01bb6a00 	.inst	0x01bb6a00 ; undefined
    1958:	000018d3 	.inst	0x000018d3 ; undefined
    195c:	00000015 	.inst	0x00000015 ; undefined
    1960:	01c06a00 	.inst	0x01c06a00 ; undefined
    1964:	000018d3 	.inst	0x000018d3 ; undefined
    1968:	00000015 	.inst	0x00000015 ; undefined
    196c:	01c56a00 	.inst	0x01c56a00 ; undefined
    1970:	000018d3 	.inst	0x000018d3 ; undefined
    1974:	00000015 	.inst	0x00000015 ; undefined
    1978:	01ca6a00 	.inst	0x01ca6a00 ; undefined
    197c:	000018d3 	.inst	0x000018d3 ; undefined
    1980:	00000015 	.inst	0x00000015 ; undefined
    1984:	01d16a00 	.inst	0x01d16a00 ; undefined
    1988:	000018d3 	.inst	0x000018d3 ; undefined
    198c:	00000015 	.inst	0x00000015 ; undefined
    1990:	01d66a00 	.inst	0x01d66a00 ; undefined
    1994:	000018d3 	.inst	0x000018d3 ; undefined
    1998:	00000015 	.inst	0x00000015 ; undefined
    199c:	01dc6a00 	.inst	0x01dc6a00 ; undefined
    19a0:	000018d3 	.inst	0x000018d3 ; undefined
    19a4:	00000015 	.inst	0x00000015 ; undefined
    19a8:	01e26a00 	.inst	0x01e26a00 ; undefined
    19ac:	000018d3 	.inst	0x000018d3 ; undefined
    19b0:	00000015 	.inst	0x00000015 ; undefined
    19b4:	024b6a00 	.inst	0x024b6a00 ; undefined
    19b8:	000018d3 	.inst	0x000018d3 ; undefined
    19bc:	00000015 	.inst	0x00000015 ; undefined
    19c0:	024d6a00 	.inst	0x024d6a00 ; undefined
    19c4:	000018d3 	.inst	0x000018d3 ; undefined
    19c8:	0000000c 	.inst	0x0000000c ; undefined
    19cc:	00000f00 	.inst	0x00000f00 ; undefined
    19d0:	226b0000 	.inst	0x226b0000 ; undefined
    19d4:	000000c6 	.inst	0x000000c6 ; undefined
    19d8:	0000000c 	.inst	0x0000000c ; undefined
    19dc:	00000f00 	.inst	0x00000f00 ; undefined
    19e0:	496c0000 	.inst	0x496c0000 ; undefined
    19e4:	000019d8 	.inst	0x000019d8 ; undefined
    19e8:	00000015 	.inst	0x00000015 ; undefined
    19ec:	012b6c00 	.inst	0x012b6c00 ; undefined
    19f0:	0000005f 	.inst	0x0000005f ; undefined
    19f4:	00000015 	.inst	0x00000015 ; undefined
    19f8:	03376c00 	.inst	0x03376c00 ; undefined
    19fc:	00001a00 	.inst	0x00001a00 ; undefined
    1a00:	1892080a 	ldr	w10, fffffffffff25b00 <blk_mq_init_sched+0xfffffffffff24ba8>
    1a04:	00150000 	.inst	0x00150000 ; undefined
    1a08:	6c000000 	stnp	d0, d0, [x0]
    1a0c:	187d0338 	ldr	w24, fba70 <blk_mq_init_sched+0xfab18>
    1a10:	00150000 	.inst	0x00150000 ; undefined
    1a14:	6c000000 	stnp	d0, d0, [x0]
    1a18:	005f0339 	.inst	0x005f0339 ; undefined
    1a1c:	000f0000 	.inst	0x000f0000 ; undefined
    1a20:	6d000000 	stp	d0, d0, [x0]
    1a24:	0019c80e 	.inst	0x0019c80e ; undefined
    1a28:	00000f00 	.inst	0x00000f00 ; undefined
    1a2c:	0f6d0000 	.inst	0x0f6d0000 ; undefined
    1a30:	000019c8 	.inst	0x000019c8 ; undefined
    1a34:	0000000f 	.inst	0x0000000f ; undefined
    1a38:	c8106d00 	stxr	w16, x0, [x8]
    1a3c:	0a000019 	and	w25, w0, w0
    1a40:	001a4508 	.inst	0x001a4508 ; undefined
    1a44:	00000c00 	.inst	0x00000c00 ; undefined
    1a48:	07070000 	.inst	0x07070000 ; undefined
    1a4c:	00007604 	.inst	0x00007604 ; undefined
    1a50:	703f0f00 	adr	x0, 7fc33 <blk_mq_init_sched+0x7ecdb>
    1a54:	0800001a 	stxrb	w0, w26, [x0]
    1a58:	00000000 	.inst	0x00000000 ; undefined
    1a5c:	00000801 	.inst	0x00000801 ; undefined
    1a60:	08020000 	stxrb	w2, w0, [x0]
    1a64:	00000000 	.inst	0x00000000 ; undefined
    1a68:	00000803 	.inst	0x00000803 ; undefined
    1a6c:	00020000 	.inst	0x00020000 ; undefined
    1a70:	0000000f 	.inst	0x0000000f ; undefined
    1a74:	c80a6e00 	stxr	w10, x0, [x16]
    1a78:	0f000019 	.inst	0x0f000019 ; undefined
    1a7c:	00000000 	.inst	0x00000000 ; undefined
    1a80:	19c80b6e 	.inst	0x19c80b6e ; undefined
    1a84:	000f0000 	.inst	0x000f0000 ; undefined
    1a88:	6e000000 	ext	v0.16b, v0.16b, v0.16b, #0
    1a8c:	0019c80c 	.inst	0x0019c80c ; undefined
    1a90:	00000f00 	.inst	0x00000f00 ; undefined
    1a94:	0d6e0000 	.inst	0x0d6e0000 ; undefined
    1a98:	000019c8 	.inst	0x000019c8 ; undefined
    1a9c:	0000000f 	.inst	0x0000000f ; undefined
    1aa0:	c80e6e00 	stxr	w14, x0, [x16]
    1aa4:	0f000019 	.inst	0x0f000019 ; undefined
    1aa8:	00000000 	.inst	0x00000000 ; undefined
    1aac:	19c80f6e 	.inst	0x19c80f6e ; undefined
    1ab0:	000f0000 	.inst	0x000f0000 ; undefined
    1ab4:	6e000000 	ext	v0.16b, v0.16b, v0.16b, #0
    1ab8:	0019c810 	.inst	0x0019c810 ; undefined
    1abc:	00000c00 	.inst	0x00000c00 ; undefined
    1ac0:	000f0000 	.inst	0x000f0000 ; undefined
    1ac4:	6f000000 	.inst	0x6f000000 ; undefined
    1ac8:	001abdb9 	.inst	0x001abdb9 ; undefined
    1acc:	00000f00 	.inst	0x00000f00 ; undefined
    1ad0:	ba6f0000 	.inst	0xba6f0000 ; undefined
    1ad4:	00001abd 	.inst	0x00001abd ; undefined
    1ad8:	0000000f 	.inst	0x0000000f ; undefined
    1adc:	30227000 	adr	x0, 468dd <blk_mq_init_sched+0x45985>
    1ae0:	13000001 	sbfx	w1, w0, #0, #1
    1ae4:	000000fd 	.inst	0x000000fd ; undefined
    1ae8:	00001af4 	.inst	0x00001af4 ; undefined
    1aec:	0000fd22 	.inst	0x0000fd22 ; undefined
    1af0:	0001ff00 	.inst	0x0001ff00 ; undefined
    1af4:	0000000f 	.inst	0x0000000f ; undefined
    1af8:	e33b7100 	.inst	0xe33b7100 ; undefined
    1afc:	1300001a 	sbfx	w26, w0, #0, #1
    1b00:	00000a5f 	.inst	0x00000a5f ; undefined
    1b04:	00001b10 	.inst	0x00001b10 ; undefined
    1b08:	0000fd22 	.inst	0x0000fd22 ; undefined
    1b0c:	0001ff00 	.inst	0x0001ff00 ; undefined
    1b10:	00000015 	.inst	0x00000015 ; undefined
    1b14:	02247100 	.inst	0x02247100 ; undefined
    1b18:	00001aff 	.inst	0x00001aff ; undefined
    1b1c:	000a5f13 	.inst	0x000a5f13 ; undefined
    1b20:	001b2700 	.inst	0x001b2700 ; undefined
    1b24:	15001600 	b	4007324 <blk_mq_init_sched+0x40063cc>
    1b28:	00000000 	.inst	0x00000000 ; undefined
    1b2c:	1c022571 	ldr	s17, 5fd8 <blk_mq_init_sched+0x5080>
    1b30:	1500001b 	b	4001b9c <blk_mq_init_sched+0x4000c44>
    1b34:	00000000 	.inst	0x00000000 ; undefined
    1b38:	ff022671 	.inst	0xff022671 ; undefined
    1b3c:	1500001a 	b	4001ba4 <blk_mq_init_sched+0x4000c4c>
    1b40:	00000000 	.inst	0x00000000 ; undefined
    1b44:	ff022771 	.inst	0xff022771 ; undefined
    1b48:	1500001a 	b	4001bb0 <blk_mq_init_sched+0x4000c58>
    1b4c:	00000000 	.inst	0x00000000 ; undefined
    1b50:	1c022871 	ldr	s17, 605c <blk_mq_init_sched+0x5104>
    1b54:	1500001b 	b	4001bc0 <blk_mq_init_sched+0x4000c68>
    1b58:	00000000 	.inst	0x00000000 ; undefined
    1b5c:	ff022971 	.inst	0xff022971 ; undefined
    1b60:	1500001a 	b	4001bc8 <blk_mq_init_sched+0x4000c70>
    1b64:	00000000 	.inst	0x00000000 ; undefined
    1b68:	ff022a71 	.inst	0xff022a71 ; undefined
    1b6c:	0f00001a 	.inst	0x0f00001a ; undefined
    1b70:	00000000 	.inst	0x00000000 ; undefined
    1b74:	005f2d72 	.inst	0x005f2d72 ; undefined
    1b78:	000f0000 	.inst	0x000f0000 ; undefined
    1b7c:	72000000 	ands	w0, w0, #0x1
    1b80:	0002db3c 	.inst	0x0002db3c ; undefined
    1b84:	00000f00 	.inst	0x00000f00 ; undefined
    1b88:	51720000 	sub	w0, w0, #0xc80, lsl #12
    1b8c:	00000195 	.inst	0x00000195 ; undefined
    1b90:	0000000f 	.inst	0x0000000f ; undefined
    1b94:	5f527200 	sqdmlsl	s0, h16, v2.h[1]
    1b98:	0f000000 	.inst	0x0f000000 ; undefined
    1b9c:	00000000 	.inst	0x00000000 ; undefined
    1ba0:	005f5572 	.inst	0x005f5572 ; undefined
    1ba4:	000f0000 	.inst	0x000f0000 ; undefined
    1ba8:	72000000 	ands	w0, w0, #0x1
    1bac:	0000665b 	.inst	0x0000665b ; undefined
    1bb0:	00000f00 	.inst	0x00000f00 ; undefined
    1bb4:	5c720000 	ldr	d0, e5bb4 <blk_mq_init_sched+0xe4c5c>
    1bb8:	00000066 	.inst	0x00000066 ; undefined
    1bbc:	0000000f 	.inst	0x0000000f ; undefined
    1bc0:	5f5d7200 	sqdmlsl	s0, h16, v13.h[1]
    1bc4:	0f000000 	.inst	0x0f000000 ; undefined
    1bc8:	00000000 	.inst	0x00000000 ; undefined
    1bcc:	00666072 	.inst	0x00666072 ; undefined
    1bd0:	000f0000 	.inst	0x000f0000 ; undefined
    1bd4:	72000000 	ands	w0, w0, #0x1
    1bd8:	00006661 	.inst	0x00006661 ; undefined
    1bdc:	00000f00 	.inst	0x00000f00 ; undefined
    1be0:	62720000 	.inst	0x62720000 ; undefined
    1be4:	0000005f 	.inst	0x0000005f ; undefined
    1be8:	0000000f 	.inst	0x0000000f ; undefined
    1bec:	5fcc7200 	.inst	0x5fcc7200 ; undefined
    1bf0:	0f000000 	.inst	0x0f000000 ; undefined
    1bf4:	00000000 	.inst	0x00000000 ; undefined
    1bf8:	00fdce72 	.inst	0x00fdce72 ; undefined
    1bfc:	000f0000 	.inst	0x000f0000 ; undefined
    1c00:	72000000 	ands	w0, w0, #0x1
    1c04:	0000fdcf 	.inst	0x0000fdcf ; undefined
    1c08:	00000f00 	.inst	0x00000f00 ; undefined
    1c0c:	d1720000 	sub	x0, x0, #0xc80, lsl #12
    1c10:	0000005f 	.inst	0x0000005f ; undefined
    1c14:	0000000f 	.inst	0x0000000f ; undefined
    1c18:	5fd27200 	.inst	0x5fd27200 ; undefined
    1c1c:	0f000000 	.inst	0x0f000000 ; undefined
    1c20:	00000000 	.inst	0x00000000 ; undefined
    1c24:	00fdd372 	.inst	0x00fdd372 ; undefined
    1c28:	6b130000 	subs	w0, w0, w19
    1c2c:	3a00000a 	adcs	w10, w0, w0
    1c30:	1400001c 	b	1ca0 <.debug_info+0x1ca0>
    1c34:	000000fd 	.inst	0x000000fd ; undefined
    1c38:	0015000f 	.inst	0x0015000f ; undefined
    1c3c:	72000000 	ands	w0, w0, #0x1
    1c40:	1c2a01b3 	ldr	s19, 55c74 <blk_mq_init_sched+0x54d1c>
    1c44:	000f0000 	.inst	0x000f0000 ; undefined
    1c48:	73000000 	.inst	0x73000000 ; undefined
    1c4c:	00188266 	.inst	0x00188266 ; undefined
    1c50:	00000f00 	.inst	0x00000f00 ; undefined
    1c54:	74730000 	.inst	0x74730000 ; undefined
    1c58:	000000fd 	.inst	0x000000fd ; undefined
    1c5c:	00000015 	.inst	0x00000015 ; undefined
    1c60:	01257300 	.inst	0x01257300 ; undefined
    1c64:	00000dd2 	.inst	0x00000dd2 ; undefined
    1c68:	00000015 	.inst	0x00000015 ; undefined
    1c6c:	01267300 	.inst	0x01267300 ; undefined
    1c70:	000000fd 	.inst	0x000000fd ; undefined
    1c74:	00000010 	.inst	0x00000010 ; undefined
    1c78:	03957200 	.inst	0x03957200 ; undefined
    1c7c:	00001c80 	.inst	0x00001c80 ; undefined
    1c80:	001c8b24 	.inst	0x001c8b24 ; undefined
    1c84:	0dd21200 	ld1	{v0.b}[4], [x16], x18
    1c88:	1f000000 	fmadd	s0, s0, s0, s0
    1c8c:	00000000 	.inst	0x00000000 ; undefined
    1c90:	00760407 	.inst	0x00760407 ; undefined
    1c94:	98720000 	ldrsw	x0, e5c94 <blk_mq_init_sched+0xe4d3c>
    1c98:	001cbc03 	.inst	0x001cbc03 ; undefined
    1c9c:	00000800 	.inst	0x00000800 ; undefined
    1ca0:	08000000 	stxrb	w0, w0, [x0]
    1ca4:	00000000 	.inst	0x00000000 ; undefined
    1ca8:	00000801 	.inst	0x00000801 ; undefined
    1cac:	08020000 	stxrb	w2, w0, [x0]
    1cb0:	00000000 	.inst	0x00000000 ; undefined
    1cb4:	00000803 	.inst	0x00000803 ; undefined
    1cb8:	00040000 	.inst	0x00040000 ; undefined
    1cbc:	001cd713 	.inst	0x001cd713 ; undefined
    1cc0:	001ccc00 	.inst	0x001ccc00 ; undefined
    1cc4:	00fd1400 	.inst	0x00fd1400 ; undefined
    1cc8:	00030000 	.inst	0x00030000 ; undefined
    1ccc:	001cbc05 	.inst	0x001cbc05 ; undefined
    1cd0:	74080a00 	.inst	0x74080a00 ; undefined
    1cd4:	0500001c 	orr	z28.s, z28.s, #0x1
    1cd8:	00001cd1 	.inst	0x00001cd1 ; undefined
    1cdc:	00000015 	.inst	0x00000015 ; undefined
    1ce0:	03a37200 	.inst	0x03a37200 ; undefined
    1ce4:	00001ccc 	.inst	0x00001ccc ; undefined
    1ce8:	00000018 	.inst	0x00000018 ; undefined
    1cec:	76040700 	.inst	0x76040700 ; undefined
    1cf0:	74000000 	.inst	0x74000000 ; undefined
    1cf4:	001f5219 	.inst	0x001f5219 ; undefined
    1cf8:	00000800 	.inst	0x00000800 ; undefined
    1cfc:	08000000 	stxrb	w0, w0, [x0]
    1d00:	00000000 	.inst	0x00000000 ; undefined
    1d04:	00000801 	.inst	0x00000801 ; undefined
    1d08:	08020000 	stxrb	w2, w0, [x0]
    1d0c:	00000000 	.inst	0x00000000 ; undefined
    1d10:	00000803 	.inst	0x00000803 ; undefined
    1d14:	08040000 	stxrb	w4, w0, [x0]
    1d18:	00000000 	.inst	0x00000000 ; undefined
    1d1c:	00000805 	.inst	0x00000805 ; undefined
    1d20:	08060000 	stxrb	w6, w0, [x0]
    1d24:	00000000 	.inst	0x00000000 ; undefined
    1d28:	00000807 	.inst	0x00000807 ; undefined
    1d2c:	08080000 	stxrb	w8, w0, [x0]
    1d30:	00000000 	.inst	0x00000000 ; undefined
    1d34:	00000809 	.inst	0x00000809 ; undefined
    1d38:	080a0000 	stxrb	w10, w0, [x0]
    1d3c:	00000000 	.inst	0x00000000 ; undefined
    1d40:	0000080b 	.inst	0x0000080b ; undefined
    1d44:	080c0000 	stxrb	w12, w0, [x0]
    1d48:	00000000 	.inst	0x00000000 ; undefined
    1d4c:	0000080d 	.inst	0x0000080d ; undefined
    1d50:	080e0000 	stxrb	w14, w0, [x0]
    1d54:	00000000 	.inst	0x00000000 ; undefined
    1d58:	0000080f 	.inst	0x0000080f ; undefined
    1d5c:	08100000 	stxrb	w16, w0, [x0]
    1d60:	00000000 	.inst	0x00000000 ; undefined
    1d64:	00000811 	.inst	0x00000811 ; undefined
    1d68:	08120000 	stxrb	w18, w0, [x0]
    1d6c:	00000000 	.inst	0x00000000 ; undefined
    1d70:	00000813 	.inst	0x00000813 ; undefined
    1d74:	08140000 	stxrb	w20, w0, [x0]
    1d78:	00000000 	.inst	0x00000000 ; undefined
    1d7c:	00000815 	.inst	0x00000815 ; undefined
    1d80:	08160000 	stxrb	w22, w0, [x0]
    1d84:	00000000 	.inst	0x00000000 ; undefined
    1d88:	00000817 	.inst	0x00000817 ; undefined
    1d8c:	08180000 	stxrb	w24, w0, [x0]
    1d90:	00000000 	.inst	0x00000000 ; undefined
    1d94:	00000819 	.inst	0x00000819 ; undefined
    1d98:	081a0000 	stxrb	w26, w0, [x0]
    1d9c:	00000000 	.inst	0x00000000 ; undefined
    1da0:	0000081b 	.inst	0x0000081b ; undefined
    1da4:	081c0000 	stxrb	w28, w0, [x0]
    1da8:	00000000 	.inst	0x00000000 ; undefined
    1dac:	0000081d 	.inst	0x0000081d ; undefined
    1db0:	081e0000 	stxrb	w30, w0, [x0]
    1db4:	00000000 	.inst	0x00000000 ; undefined
    1db8:	0000081f 	.inst	0x0000081f ; undefined
    1dbc:	08200000 	.inst	0x08200000 ; undefined
    1dc0:	00000000 	.inst	0x00000000 ; undefined
    1dc4:	00000821 	.inst	0x00000821 ; undefined
    1dc8:	08220000 	.inst	0x08220000 ; undefined
    1dcc:	00000000 	.inst	0x00000000 ; undefined
    1dd0:	00000823 	.inst	0x00000823 ; undefined
    1dd4:	08240000 	.inst	0x08240000 ; undefined
    1dd8:	00000000 	.inst	0x00000000 ; undefined
    1ddc:	00000825 	.inst	0x00000825 ; undefined
    1de0:	08260000 	.inst	0x08260000 ; undefined
    1de4:	00000000 	.inst	0x00000000 ; undefined
    1de8:	00000827 	.inst	0x00000827 ; undefined
    1dec:	08280000 	.inst	0x08280000 ; undefined
    1df0:	00000000 	.inst	0x00000000 ; undefined
    1df4:	00000829 	.inst	0x00000829 ; undefined
    1df8:	082a0000 	.inst	0x082a0000 ; undefined
    1dfc:	00000000 	.inst	0x00000000 ; undefined
    1e00:	0000082b 	.inst	0x0000082b ; undefined
    1e04:	082c0000 	.inst	0x082c0000 ; undefined
    1e08:	00000000 	.inst	0x00000000 ; undefined
    1e0c:	0000082d 	.inst	0x0000082d ; undefined
    1e10:	082e0000 	.inst	0x082e0000 ; undefined
    1e14:	00000000 	.inst	0x00000000 ; undefined
    1e18:	0000082f 	.inst	0x0000082f ; undefined
    1e1c:	08300000 	.inst	0x08300000 ; undefined
    1e20:	00000000 	.inst	0x00000000 ; undefined
    1e24:	00000831 	.inst	0x00000831 ; undefined
    1e28:	08320000 	.inst	0x08320000 ; undefined
    1e2c:	00000000 	.inst	0x00000000 ; undefined
    1e30:	00000833 	.inst	0x00000833 ; undefined
    1e34:	08340000 	.inst	0x08340000 ; undefined
    1e38:	00000000 	.inst	0x00000000 ; undefined
    1e3c:	00000835 	.inst	0x00000835 ; undefined
    1e40:	08360000 	.inst	0x08360000 ; undefined
    1e44:	00000000 	.inst	0x00000000 ; undefined
    1e48:	00000837 	.inst	0x00000837 ; undefined
    1e4c:	08380000 	.inst	0x08380000 ; undefined
    1e50:	00000000 	.inst	0x00000000 ; undefined
    1e54:	00000839 	.inst	0x00000839 ; undefined
    1e58:	083a0000 	.inst	0x083a0000 ; undefined
    1e5c:	00000000 	.inst	0x00000000 ; undefined
    1e60:	0000083b 	.inst	0x0000083b ; undefined
    1e64:	083c0000 	.inst	0x083c0000 ; undefined
    1e68:	00000000 	.inst	0x00000000 ; undefined
    1e6c:	0000083d 	.inst	0x0000083d ; undefined
    1e70:	083e0000 	.inst	0x083e0000 ; undefined
    1e74:	00000000 	.inst	0x00000000 ; undefined
    1e78:	0000083f 	.inst	0x0000083f ; undefined
    1e7c:	08400000 	ldxrb	w0, [x0]
    1e80:	00000000 	.inst	0x00000000 ; undefined
    1e84:	00000841 	.inst	0x00000841 ; undefined
    1e88:	08420000 	ldxrb	w0, [x0]
    1e8c:	00000000 	.inst	0x00000000 ; undefined
    1e90:	00000843 	.inst	0x00000843 ; undefined
    1e94:	08440000 	ldxrb	w0, [x0]
    1e98:	00000000 	.inst	0x00000000 ; undefined
    1e9c:	00000845 	.inst	0x00000845 ; undefined
    1ea0:	08460000 	ldxrb	w0, [x0]
    1ea4:	00000000 	.inst	0x00000000 ; undefined
    1ea8:	00000847 	.inst	0x00000847 ; undefined
    1eac:	08480000 	ldxrb	w0, [x0]
    1eb0:	00000000 	.inst	0x00000000 ; undefined
    1eb4:	00000849 	.inst	0x00000849 ; undefined
    1eb8:	084a0000 	ldxrb	w0, [x0]
    1ebc:	00000000 	.inst	0x00000000 ; undefined
    1ec0:	0000084b 	.inst	0x0000084b ; undefined
    1ec4:	084c0000 	ldxrb	w0, [x0]
    1ec8:	00000000 	.inst	0x00000000 ; undefined
    1ecc:	0000084d 	.inst	0x0000084d ; undefined
    1ed0:	084e0000 	ldxrb	w0, [x0]
    1ed4:	00000000 	.inst	0x00000000 ; undefined
    1ed8:	0000084f 	.inst	0x0000084f ; undefined
    1edc:	08500000 	ldxrb	w0, [x0]
    1ee0:	00000000 	.inst	0x00000000 ; undefined
    1ee4:	00000851 	.inst	0x00000851 ; undefined
    1ee8:	08520000 	ldxrb	w0, [x0]
    1eec:	00000000 	.inst	0x00000000 ; undefined
    1ef0:	00000853 	.inst	0x00000853 ; undefined
    1ef4:	08540000 	ldxrb	w0, [x0]
    1ef8:	00000000 	.inst	0x00000000 ; undefined
    1efc:	00000855 	.inst	0x00000855 ; undefined
    1f00:	08560000 	ldxrb	w0, [x0]
    1f04:	00000000 	.inst	0x00000000 ; undefined
    1f08:	00000857 	.inst	0x00000857 ; undefined
    1f0c:	08580000 	ldxrb	w0, [x0]
    1f10:	00000000 	.inst	0x00000000 ; undefined
    1f14:	00000859 	.inst	0x00000859 ; undefined
    1f18:	085a0000 	ldxrb	w0, [x0]
    1f1c:	00000000 	.inst	0x00000000 ; undefined
    1f20:	0000085b 	.inst	0x0000085b ; undefined
    1f24:	085c0000 	ldxrb	w0, [x0]
    1f28:	00000000 	.inst	0x00000000 ; undefined
    1f2c:	0000085d 	.inst	0x0000085d ; undefined
    1f30:	085e0000 	ldxrb	w0, [x0]
    1f34:	00000000 	.inst	0x00000000 ; undefined
    1f38:	0000085f 	.inst	0x0000085f ; undefined
    1f3c:	08600000 	.inst	0x08600000 ; undefined
    1f40:	00000000 	.inst	0x00000000 ; undefined
    1f44:	00000861 	.inst	0x00000861 ; undefined
    1f48:	08620000 	.inst	0x08620000 ; undefined
    1f4c:	00000000 	.inst	0x00000000 ; undefined
    1f50:	000f0063 	.inst	0x000f0063 ; undefined
    1f54:	75000000 	.inst	0x75000000 ; undefined
    1f58:	00005f0d 	.inst	0x00005f0d ; undefined
    1f5c:	00000f00 	.inst	0x00000f00 ; undefined
    1f60:	12750000 	.inst	0x12750000 ; undefined
    1f64:	0000005f 	.inst	0x0000005f ; undefined
    1f68:	0000000f 	.inst	0x0000000f ; undefined
    1f6c:	1b137500 	madd	w0, w8, w19, w29
    1f70:	0c000002 	st4	{v2.8b-v5.8b}, [x0]
    1f74:	00000000 	.inst	0x00000000 ; undefined
    1f78:	0000000f 	.inst	0x0000000f ; undefined
    1f7c:	733a7500 	.inst	0x733a7500 ; undefined
    1f80:	1300001f 	sbfx	wzr, w0, #0, #1
    1f84:	000002db 	.inst	0x000002db ; undefined
    1f88:	00001f93 	.inst	0x00001f93 ; undefined
    1f8c:	0000fd14 	.inst	0x0000fd14 ; undefined
    1f90:	0f000900 	.inst	0x0f000900 ; undefined
    1f94:	00000000 	.inst	0x00000000 ; undefined
    1f98:	1f838c75 	.inst	0x1f838c75 ; undefined
    1f9c:	db130000 	.inst	0xdb130000 ; undefined
    1fa0:	ae000002 	.inst	0xae000002 ; undefined
    1fa4:	1400001f 	b	2020 <.debug_info+0x2020>
    1fa8:	000000fd 	.inst	0x000000fd ; undefined
    1fac:	000f0026 	.inst	0x000f0026 ; undefined
    1fb0:	75000000 	.inst	0x75000000 ; undefined
    1fb4:	001f9e8d 	.inst	0x001f9e8d ; undefined
    1fb8:	02db1300 	.inst	0x02db1300 ; undefined
    1fbc:	1fc90000 	fmadd	h0, h0, h9, h0
    1fc0:	fd140000 	str	d0, [x0, #10240]
    1fc4:	05000000 	orr	z0.s, z0.s, #0x1
    1fc8:	00000f00 	.inst	0x00000f00 ; undefined
    1fcc:	8e750000 	.inst	0x8e750000 ; undefined
    1fd0:	00001fb9 	.inst	0x00001fb9 ; undefined
    1fd4:	000b0313 	.inst	0x000b0313 ; undefined
    1fd8:	001fdf00 	.inst	0x001fdf00 ; undefined
    1fdc:	05001600 	orr	z0.b, z0.b, #0x40
    1fe0:	00001fd4 	.inst	0x00001fd4 ; undefined
    1fe4:	00000015 	.inst	0x00000015 ; undefined
    1fe8:	01aa7500 	.inst	0x01aa7500 ; undefined
    1fec:	00001fdf 	.inst	0x00001fdf ; undefined
    1ff0:	00000015 	.inst	0x00000015 ; undefined
    1ff4:	09bf7200 	.inst	0x09bf7200 ; undefined
    1ff8:	0000005f 	.inst	0x0000005f ; undefined
    1ffc:	00000015 	.inst	0x00000015 ; undefined
    2000:	09c07200 	.inst	0x09c07200 ; undefined
    2004:	0000005f 	.inst	0x0000005f ; undefined
    2008:	00000015 	.inst	0x00000015 ; undefined
    200c:	09c17200 	.inst	0x09c17200 ; undefined
    2010:	0000005f 	.inst	0x0000005f ; undefined
    2014:	00000015 	.inst	0x00000015 ; undefined
    2018:	09c57200 	.inst	0x09c57200 ; undefined
    201c:	000002db 	.inst	0x000002db ; undefined
    2020:	00000015 	.inst	0x00000015 ; undefined
    2024:	0a6a7200 	bic	w0, w16, w10, lsr #28
    2028:	000000fd 	.inst	0x000000fd ; undefined
    202c:	00000015 	.inst	0x00000015 ; undefined
    2030:	0ba27200 	.inst	0x0ba27200 ; undefined
    2034:	00000220 	.inst	0x00000220 ; undefined
    2038:	00000015 	.inst	0x00000015 ; undefined
    203c:	0bab7200 	.inst	0x0bab7200 ; undefined
    2040:	00000220 	.inst	0x00000220 ; undefined
    2044:	00000015 	.inst	0x00000015 ; undefined
    2048:	0bb27200 	.inst	0x0bb27200 ; undefined
    204c:	00000130 	.inst	0x00000130 ; undefined
    2050:	00000015 	.inst	0x00000015 ; undefined
    2054:	0bb37200 	.inst	0x0bb37200 ; undefined
    2058:	00000220 	.inst	0x00000220 ; undefined
    205c:	00000015 	.inst	0x00000015 ; undefined
    2060:	0bf17200 	.inst	0x0bf17200 ; undefined
    2064:	0000005f 	.inst	0x0000005f ; undefined
    2068:	00000015 	.inst	0x00000015 ; undefined
    206c:	0bfc7200 	.inst	0x0bfc7200 ; undefined
    2070:	0000005f 	.inst	0x0000005f ; undefined
    2074:	00000015 	.inst	0x00000015 ; undefined
    2078:	0c317200 	.inst	0x0c317200 ; undefined
    207c:	0000005f 	.inst	0x0000005f ; undefined
    2080:	00000015 	.inst	0x00000015 ; undefined
    2084:	0c327200 	.inst	0x0c327200 ; undefined
    2088:	0000005f 	.inst	0x0000005f ; undefined
    208c:	00000015 	.inst	0x00000015 ; undefined
    2090:	0c347200 	.inst	0x0c347200 ; undefined
    2094:	000002db 	.inst	0x000002db ; undefined
    2098:	00000015 	.inst	0x00000015 ; undefined
    209c:	0caf7200 	.inst	0x0caf7200 ; undefined
    20a0:	0000005f 	.inst	0x0000005f ; undefined
    20a4:	0000250b 	.inst	0x0000250b ; undefined
    20a8:	0d760000 	.inst	0x0d760000 ; undefined
    20ac:	000020a4 	.inst	0x000020a4 ; undefined
    20b0:	00001d40 	.inst	0x00001d40 ; undefined
    20b4:	0f760000 	.inst	0x0f760000 ; undefined
    20b8:	000020a5 	.inst	0x000020a5 ; undefined
    20bc:	00000f40 	.inst	0x00000f40 ; undefined
    20c0:	f9770000 	ldr	x0, [x0, #28160]
    20c4:	0000018b 	.inst	0x0000018b ; undefined
    20c8:	0000000f 	.inst	0x0000000f ; undefined
    20cc:	30917800 	adr	x0, fffffffffff24fcd <blk_mq_init_sched+0xfffffffffff24075>
    20d0:	1f000001 	fmadd	s1, s0, s0, s0
    20d4:	00000000 	.inst	0x00000000 ; undefined
    20d8:	00760407 	.inst	0x00760407 ; undefined
    20dc:	39780000 	ldrb	w0, [x0, #3584]
    20e0:	00210401 	.inst	0x00210401 ; NYI
    20e4:	00000800 	.inst	0x00000800 ; undefined
    20e8:	08000000 	stxrb	w0, w0, [x0]
    20ec:	00000000 	.inst	0x00000000 ; undefined
    20f0:	00000801 	.inst	0x00000801 ; undefined
    20f4:	08020000 	stxrb	w2, w0, [x0]
    20f8:	00000000 	.inst	0x00000000 ; undefined
    20fc:	00000803 	.inst	0x00000803 ; undefined
    2100:	00040000 	.inst	0x00040000 ; undefined
    2104:	00158013 	.inst	0x00158013 ; undefined
    2108:	00211a00 	.inst	0x00211a00 ; NYI
    210c:	00fd1400 	.inst	0x00fd1400 ; undefined
    2110:	14030000 	b	c2110 <blk_mq_init_sched+0xc11b8>
    2114:	000000fd 	.inst	0x000000fd ; undefined
    2118:	0015000d 	.inst	0x0015000d ; undefined
    211c:	78000000 	sturh	w0, [x0]
    2120:	2104014c 	.inst	0x2104014c ; undefined
    2124:	000f0000 	.inst	0x000f0000 ; undefined
    2128:	79000000 	strh	w0, [x0]
    212c:	00213111 	.inst	0x00213111 ; NYI
    2130:	65080a00 	.inst	0x65080a00 ; undefined
    2134:	0c000007 	st4	{v7.8b-v10.8b}, [x0]
    2138:	00000000 	.inst	0x00000000 ; undefined
    213c:	00000015 	.inst	0x00000015 ; undefined
    2140:	027d7a00 	.inst	0x027d7a00 ; undefined
    2144:	0000005f 	.inst	0x0000005f ; undefined
    2148:	00000015 	.inst	0x00000015 ; undefined
    214c:	02c47a00 	.inst	0x02c47a00 ; undefined
    2150:	00002137 	.inst	0x00002137 ; undefined
    2154:	00000015 	.inst	0x00000015 ; undefined
    2158:	02c57a00 	.inst	0x02c57a00 ; undefined
    215c:	00002137 	.inst	0x00002137 ; undefined
    2160:	0000000c 	.inst	0x0000000c ; undefined
    2164:	00000f00 	.inst	0x00000f00 ; undefined
    2168:	1a7b0000 	.inst	0x1a7b0000 ; undefined
    216c:	00002160 	.inst	0x00002160 ; undefined
    2170:	00000015 	.inst	0x00000015 ; undefined
    2174:	01447c00 	.inst	0x01447c00 ; undefined
    2178:	00000601 	.inst	0x00000601 ; undefined
    217c:	00000015 	.inst	0x00000015 ; undefined
    2180:	01e07c00 	.inst	0x01e07c00 ; undefined
    2184:	00000220 	.inst	0x00000220 ; undefined
    2188:	76040723 	.inst	0x76040723 ; undefined
    218c:	7c000000 	stur	h0, [x0]
    2190:	21d90204 	.inst	0x21d90204 ; undefined
    2194:	00080000 	.inst	0x00080000 ; undefined
    2198:	00000000 	.inst	0x00000000 ; undefined
    219c:	00000008 	.inst	0x00000008 ; undefined
    21a0:	00080100 	.inst	0x00080100 ; undefined
    21a4:	02000000 	.inst	0x02000000 ; undefined
    21a8:	00000008 	.inst	0x00000008 ; undefined
    21ac:	00080300 	.inst	0x00080300 ; undefined
    21b0:	04000000 	add	z0.b, p0/m, z0.b, z0.b
    21b4:	00000008 	.inst	0x00000008 ; undefined
    21b8:	00080500 	.inst	0x00080500 ; undefined
    21bc:	06000000 	.inst	0x06000000 ; undefined
    21c0:	00000008 	.inst	0x00000008 ; undefined
    21c4:	00080700 	.inst	0x00080700 ; undefined
    21c8:	08000000 	stxrb	w0, w0, [x0]
    21cc:	00000008 	.inst	0x00000008 ; undefined
    21d0:	00080900 	.inst	0x00080900 ; undefined
    21d4:	0a000000 	and	w0, w0, w0
    21d8:	0b031300 	add	w0, w24, w3, lsl #4
    21dc:	21e90000 	.inst	0x21e90000 ; undefined
    21e0:	fd140000 	str	d0, [x0, #10240]
    21e4:	09000000 	.inst	0x09000000 ; undefined
    21e8:	21d90500 	.inst	0x21d90500 ; undefined
    21ec:	00150000 	.inst	0x00150000 ; undefined
    21f0:	7c000000 	stur	h0, [x0]
    21f4:	21e90218 	.inst	0x21e90218 ; undefined
    21f8:	00150000 	.inst	0x00150000 ; undefined
    21fc:	7c000000 	stur	h0, [x0]
    2200:	15e4022d 	b	7902ab4 <blk_mq_init_sched+0x7901b5c>
    2204:	000c0000 	.inst	0x000c0000 ; undefined
    2208:	0f000000 	.inst	0x0f000000 ; undefined
    220c:	00000000 	.inst	0x00000000 ; undefined
    2210:	22062a7d 	.inst	0x22062a7d ; undefined
    2214:	000f0000 	.inst	0x000f0000 ; undefined
    2218:	7e000000 	.inst	0x7e000000 ; undefined
    221c:	0000fd33 	.inst	0x0000fd33 ; undefined
    2220:	00000f00 	.inst	0x00000f00 ; undefined
    2224:	197f0000 	.inst	0x197f0000 ; undefined
    2228:	0000005f 	.inst	0x0000005f ; undefined
    222c:	76040707 	.inst	0x76040707 ; undefined
    2230:	80000000 	.inst	0x80000000 ; undefined
    2234:	00229410 	.inst	0x00229410 ; NYI
    2238:	00000800 	.inst	0x00000800 ; undefined
    223c:	08000000 	stxrb	w0, w0, [x0]
    2240:	00000000 	.inst	0x00000000 ; undefined
    2244:	00000801 	.inst	0x00000801 ; undefined
    2248:	08020000 	stxrb	w2, w0, [x0]
    224c:	00000000 	.inst	0x00000000 ; undefined
    2250:	00000803 	.inst	0x00000803 ; undefined
    2254:	08040000 	stxrb	w4, w0, [x0]
    2258:	00000000 	.inst	0x00000000 ; undefined
    225c:	00000805 	.inst	0x00000805 ; undefined
    2260:	08060000 	stxrb	w6, w0, [x0]
    2264:	00000000 	.inst	0x00000000 ; undefined
    2268:	00000807 	.inst	0x00000807 ; undefined
    226c:	08080000 	stxrb	w8, w0, [x0]
    2270:	00000000 	.inst	0x00000000 ; undefined
    2274:	00000809 	.inst	0x00000809 ; undefined
    2278:	080a0000 	stxrb	w10, w0, [x0]
    227c:	00000000 	.inst	0x00000000 ; undefined
    2280:	0000080b 	.inst	0x0000080b ; undefined
    2284:	080c0000 	stxrb	w12, w0, [x0]
    2288:	00000000 	.inst	0x00000000 ; undefined
    228c:	0000080d 	.inst	0x0000080d ; undefined
    2290:	000e0000 	.inst	0x000e0000 ; undefined
    2294:	0000000f 	.inst	0x0000000f ; undefined
    2298:	5f458000 	.inst	0x5f458000 ; undefined
    229c:	0f000000 	.inst	0x0f000000 ; undefined
    22a0:	00000000 	.inst	0x00000000 ; undefined
    22a4:	02251681 	.inst	0x02251681 ; undefined
    22a8:	000f0000 	.inst	0x000f0000 ; undefined
    22ac:	81000000 	.inst	0x81000000 ; undefined
    22b0:	00022517 	.inst	0x00022517 ; undefined
    22b4:	00000f00 	.inst	0x00000f00 ; undefined
    22b8:	2c810000 	stp	s0, s0, [x0], #8
    22bc:	00000406 	.inst	0x00000406 ; undefined
    22c0:	0000000c 	.inst	0x0000000c ; undefined
    22c4:	00000c00 	.inst	0x00000c00 ; undefined
    22c8:	000f0000 	.inst	0x000f0000 ; undefined
    22cc:	82000000 	.inst	0x82000000 ; undefined
    22d0:	0017b255 	.inst	0x0017b255 ; undefined
    22d4:	00000f00 	.inst	0x00000f00 ; undefined
    22d8:	56820000 	.inst	0x56820000 ; undefined
    22dc:	000017b2 	.inst	0x000017b2 ; undefined
    22e0:	0000000f 	.inst	0x0000000f ; undefined
    22e4:	5fef8300 	.inst	0x5fef8300 ; undefined
    22e8:	0c000000 	st4	{v0.8b-v3.8b}, [x0]
    22ec:	00000000 	.inst	0x00000000 ; undefined
    22f0:	0022eb05 	.inst	0x0022eb05 ; NYI
    22f4:	00000c00 	.inst	0x00000c00 ; undefined
    22f8:	080a0000 	stxrb	w10, w0, [x0]
    22fc:	00002300 	.inst	0x00002300 ; undefined
    2300:	0000000c 	.inst	0x0000000c ; undefined
    2304:	005f1100 	.inst	0x005f1100 ; undefined
    2308:	23140000 	.inst	0x23140000 ; undefined
    230c:	fa120000 	sbcs	x0, x0, x18
    2310:	00000022 	.inst	0x00000022 ; undefined
    2314:	00000015 	.inst	0x00000015 ; undefined
    2318:	03ae8400 	.inst	0x03ae8400 ; undefined
    231c:	00002320 	.inst	0x00002320 ; undefined
    2320:	2305080a 	.inst	0x2305080a ; undefined
    2324:	00150000 	.inst	0x00150000 ; undefined
    2328:	84000000 	ld1sb	{z0.s}, p0/z, [x0, z0.s, uxtw]
    232c:	232003b0 	.inst	0x232003b0 ; undefined
    2330:	00100000 	.inst	0x00100000 ; undefined
    2334:	85000000 	.inst	0x85000000 ; undefined
    2338:	006b0131 	.inst	0x006b0131 ; undefined
    233c:	001f0000 	.inst	0x001f0000 ; undefined
    2340:	07000000 	.inst	0x07000000 ; undefined
    2344:	00007604 	.inst	0x00007604 ; undefined
    2348:	01448500 	.inst	0x01448500 ; undefined
    234c:	000023b1 	.inst	0x000023b1 ; undefined
    2350:	00000008 	.inst	0x00000008 ; undefined
    2354:	00080000 	.inst	0x00080000 ; undefined
    2358:	01000000 	.inst	0x01000000 ; undefined
    235c:	00000008 	.inst	0x00000008 ; undefined
    2360:	00080200 	.inst	0x00080200 ; undefined
    2364:	03000000 	.inst	0x03000000 ; undefined
    2368:	00000008 	.inst	0x00000008 ; undefined
    236c:	00080500 	.inst	0x00080500 ; undefined
    2370:	07000000 	.inst	0x07000000 ; undefined
    2374:	00000008 	.inst	0x00000008 ; undefined
    2378:	00080900 	.inst	0x00080900 ; undefined
    237c:	0a000000 	and	w0, w0, w0
    2380:	00000008 	.inst	0x00000008 ; undefined
    2384:	00080b00 	.inst	0x00080b00 ; undefined
    2388:	0c000000 	st4	{v0.8b-v3.8b}, [x0]
    238c:	00000008 	.inst	0x00000008 ; undefined
    2390:	00080d00 	.inst	0x00080d00 ; undefined
    2394:	0f000000 	.inst	0x0f000000 ; undefined
    2398:	00000008 	.inst	0x00000008 ; undefined
    239c:	00081100 	.inst	0x00081100 ; undefined
    23a0:	22000000 	.inst	0x22000000 ; undefined
    23a4:	00000008 	.inst	0x00000008 ; undefined
    23a8:	00082300 	.inst	0x00082300 ; undefined
    23ac:	24000000 	cmphs	p0.b, p0/z, z0.b, z0.b
    23b0:	00001f00 	.inst	0x00001f00 ; undefined
    23b4:	04070000 	.inst	0x04070000 ; undefined
    23b8:	00000076 	.inst	0x00000076 ; undefined
    23bc:	3c016785 	str	b5, [x28], #22
    23c0:	08000024 	stxrb	w0, w4, [x1]
    23c4:	00000000 	.inst	0x00000000 ; undefined
    23c8:	00000808 	.inst	0x00000808 ; undefined
    23cc:	08090000 	stxrb	w9, w0, [x0]
    23d0:	00000000 	.inst	0x00000000 ; undefined
    23d4:	0000080a 	.inst	0x0000080a ; undefined
    23d8:	080b0000 	stxrb	w11, w0, [x0]
    23dc:	00000000 	.inst	0x00000000 ; undefined
    23e0:	0000080c 	.inst	0x0000080c ; undefined
    23e4:	080d0000 	stxrb	w13, w0, [x0]
    23e8:	00000000 	.inst	0x00000000 ; undefined
    23ec:	0000080e 	.inst	0x0000080e ; undefined
    23f0:	080f0000 	stxrb	w15, w0, [x0]
    23f4:	00000000 	.inst	0x00000000 ; undefined
    23f8:	00000810 	.inst	0x00000810 ; undefined
    23fc:	08110000 	stxrb	w17, w0, [x0]
    2400:	00000000 	.inst	0x00000000 ; undefined
    2404:	00000812 	.inst	0x00000812 ; undefined
    2408:	08130000 	stxrb	w19, w0, [x0]
    240c:	00000000 	.inst	0x00000000 ; undefined
    2410:	00000814 	.inst	0x00000814 ; undefined
    2414:	08150000 	stxrb	w21, w0, [x0]
    2418:	00000000 	.inst	0x00000000 ; undefined
    241c:	00000816 	.inst	0x00000816 ; undefined
    2420:	08170000 	stxrb	w23, w0, [x0]
    2424:	00000000 	.inst	0x00000000 ; undefined
    2428:	00000818 	.inst	0x00000818 ; undefined
    242c:	08190000 	stxrb	w25, w0, [x0]
    2430:	00000000 	.inst	0x00000000 ; undefined
    2434:	0000081a 	.inst	0x0000081a ; undefined
    2438:	001b0000 	.inst	0x001b0000 ; undefined
    243c:	0000001f 	.inst	0x0000001f ; undefined
    2440:	76040700 	.inst	0x76040700 ; undefined
    2444:	85000000 	.inst	0x85000000 ; undefined
    2448:	246d01a7 	cmphs	p7.h, p0/z, z13.h, #52
    244c:	00080000 	.inst	0x00080000 ; undefined
    2450:	00000000 	.inst	0x00000000 ; undefined
    2454:	00000008 	.inst	0x00000008 ; undefined
    2458:	00080100 	.inst	0x00080100 ; undefined
    245c:	02000000 	.inst	0x02000000 ; undefined
    2460:	00000008 	.inst	0x00000008 ; undefined
    2464:	00080300 	.inst	0x00080300 ; undefined
    2468:	04000000 	add	z0.b, p0/m, z0.b, z0.b
    246c:	00000f00 	.inst	0x00000f00 ; undefined
    2470:	14860000 	b	2182470 <blk_mq_init_sched+0x2181518>
    2474:	000022f0 	.inst	0x000022f0 ; undefined
    2478:	0000000f 	.inst	0x0000000f ; undefined
    247c:	eb158600 	subs	x0, x16, x21, lsl #33
    2480:	0f000022 	.inst	0x0f000022 ; undefined
    2484:	00000000 	.inst	0x00000000 ; undefined
    2488:	22c51686 	.inst	0x22c51686 ; undefined
    248c:	000c0000 	.inst	0x000c0000 ; undefined
    2490:	15000000 	b	4002490 <blk_mq_init_sched+0x4001538>
    2494:	00000000 	.inst	0x00000000 ; undefined
    2498:	8e01a487 	.inst	0x8e01a487 ; undefined
    249c:	0c000024 	st4	{v4.8b-v7.8b}, [x1]
    24a0:	00000000 	.inst	0x00000000 ; undefined
    24a4:	24aa080a 	cmphs	p10.s, p2/z, z0.s, #40
    24a8:	000c0000 	.inst	0x000c0000 ; undefined
    24ac:	03000000 	.inst	0x03000000 ; undefined
    24b0:	00000000 	.inst	0x00000000 ; undefined
    24b4:	006b1503 	.inst	0x006b1503 ; undefined
    24b8:	000c0000 	.inst	0x000c0000 ; undefined
    24bc:	1f000000 	fmadd	s0, s0, s0, s0
    24c0:	00000000 	.inst	0x00000000 ; undefined
    24c4:	00760407 	.inst	0x00760407 ; undefined
    24c8:	a0030000 	.inst	0xa0030000 ; undefined
    24cc:	0024ea01 	.inst	0x0024ea01 ; NYI
    24d0:	00000800 	.inst	0x00000800 ; undefined
    24d4:	08000000 	stxrb	w0, w0, [x0]
    24d8:	00000000 	.inst	0x00000000 ; undefined
    24dc:	00000801 	.inst	0x00000801 ; undefined
    24e0:	08020000 	stxrb	w2, w0, [x0]
    24e4:	00000000 	.inst	0x00000000 ; undefined
    24e8:	000c0003 	.inst	0x000c0003 ; undefined
    24ec:	0a000000 	and	w0, w0, w0
    24f0:	0024ba08 	.inst	0x0024ba08 ; NYI
    24f4:	04072300 	.inst	0x04072300 ; undefined
    24f8:	00000076 	.inst	0x00000076 ; undefined
    24fc:	5f025d03 	.inst	0x5f025d03 ; undefined
    2500:	08000025 	stxrb	w0, w5, [x1]
    2504:	00000000 	.inst	0x00000000 ; undefined
    2508:	00000801 	.inst	0x00000801 ; undefined
    250c:	08020000 	stxrb	w2, w0, [x0]
    2510:	00000000 	.inst	0x00000000 ; undefined
    2514:	00000804 	.inst	0x00000804 ; undefined
    2518:	08080000 	stxrb	w8, w0, [x0]
    251c:	00000000 	.inst	0x00000000 ; undefined
    2520:	00000820 	.inst	0x00000820 ; undefined
    2524:	08400000 	ldxrb	w0, [x0]
    2528:	00000000 	.inst	0x00000000 ; undefined
    252c:	00000880 	.inst	0x00000880 ; undefined
    2530:	08080000 	stxrb	w8, w0, [x0]
    2534:	00000000 	.inst	0x00000000 ; undefined
    2538:	00000801 	.inst	0x00000801 ; undefined
    253c:	08000000 	stxrb	w0, w0, [x0]
    2540:	00000000 	.inst	0x00000000 ; undefined
    2544:	00000801 	.inst	0x00000801 ; undefined
    2548:	08020000 	stxrb	w2, w0, [x0]
    254c:	00000000 	.inst	0x00000000 ; undefined
    2550:	00002603 	.inst	0x00002603 ; undefined
    2554:	28000000 	stnp	w0, w0, [x0]
    2558:	00000008 	.inst	0x00000008 ; undefined
    255c:	0a000800 	and	w0, w0, w0, lsl #2
    2560:	00019008 	.inst	0x00019008 ; undefined
    2564:	00001500 	.inst	0x00001500 ; undefined
    2568:	16880000 	b	fffffffffa202568 <blk_mq_init_sched+0xfffffffffa201610>
    256c:	00047f01 	.inst	0x00047f01 ; undefined
    2570:	00001800 	.inst	0x00001800 ; undefined
    2574:	04070000 	.inst	0x04070000 ; undefined
    2578:	00000076 	.inst	0x00000076 ; undefined
    257c:	25f02689 	.inst	0x25f02689 ; undefined
    2580:	00080000 	.inst	0x00080000 ; undefined
    2584:	01000000 	.inst	0x01000000 ; undefined
    2588:	00000008 	.inst	0x00000008 ; undefined
    258c:	00080200 	.inst	0x00080200 ; undefined
    2590:	03000000 	.inst	0x03000000 ; undefined
    2594:	00000008 	.inst	0x00000008 ; undefined
    2598:	00080400 	.inst	0x00080400 ; undefined
    259c:	05000000 	orr	z0.s, z0.s, #0x1
    25a0:	00000008 	.inst	0x00000008 ; undefined
    25a4:	00080600 	.inst	0x00080600 ; undefined
    25a8:	07000000 	.inst	0x07000000 ; undefined
    25ac:	00000008 	.inst	0x00000008 ; undefined
    25b0:	00080800 	.inst	0x00080800 ; undefined
    25b4:	09000000 	.inst	0x09000000 ; undefined
    25b8:	00000008 	.inst	0x00000008 ; undefined
    25bc:	00080a00 	.inst	0x00080a00 ; undefined
    25c0:	0b000000 	add	w0, w0, w0
    25c4:	00000008 	.inst	0x00000008 ; undefined
    25c8:	00080c00 	.inst	0x00080c00 ; undefined
    25cc:	0d000000 	st1	{v0.b}[0], [x0]
    25d0:	00000008 	.inst	0x00000008 ; undefined
    25d4:	00080e00 	.inst	0x00080e00 ; undefined
    25d8:	0f000000 	.inst	0x0f000000 ; undefined
    25dc:	00000008 	.inst	0x00000008 ; undefined
    25e0:	00081000 	.inst	0x00081000 ; undefined
    25e4:	11000000 	add	w0, w0, #0x0
    25e8:	00000026 	.inst	0x00000026 ; undefined
    25ec:	00010000 	.inst	0x00010000 ; undefined
    25f0:	0000000f 	.inst	0x0000000f ; undefined
    25f4:	5fd58a00 	.inst	0x5fd58a00 ; undefined
    25f8:	0c000000 	st4	{v0.8b-v3.8b}, [x0]
    25fc:	00000000 	.inst	0x00000000 ; undefined
    2600:	00260b13 	.inst	0x00260b13 ; NYI
    2604:	00260b00 	.inst	0x00260b00 ; NYI
    2608:	0a001600 	and	w0, w16, w0, lsl #5
    260c:	0025fb08 	.inst	0x0025fb08 ; NYI
    2610:	00000f00 	.inst	0x00000f00 ; undefined
    2614:	628b0000 	.inst	0x628b0000 ; undefined
    2618:	00002600 	.inst	0x00002600 ; undefined
    261c:	0000000f 	.inst	0x0000000f ; undefined
    2620:	305b8c00 	adr	x0, b97a1 <blk_mq_init_sched+0xb8849>
    2624:	0f000001 	.inst	0x0f000001 ; undefined
    2628:	00000000 	.inst	0x00000000 ; undefined
    262c:	22c0728c 	.inst	0x22c0728c ; undefined
    2630:	000f0000 	.inst	0x000f0000 ; undefined
    2634:	8d000000 	.inst	0x8d000000 ; undefined
    2638:	0012c724 	.inst	0x0012c724 ; undefined
    263c:	00000f00 	.inst	0x00000f00 ; undefined
    2640:	108e0000 	adr	x0, fffffffffff1e640 <blk_mq_init_sched+0xfffffffffff1d6e8>
    2644:	000000fd 	.inst	0x000000fd ; undefined
    2648:	0000000f 	.inst	0x0000000f ; undefined
    264c:	fd118e00 	str	d0, [x16, #8984]
    2650:	0f000000 	.inst	0x0f000000 ; undefined
    2654:	00000000 	.inst	0x00000000 ; undefined
    2658:	00fd168e 	.inst	0x00fd168e ; undefined
    265c:	000f0000 	.inst	0x000f0000 ; undefined
    2660:	8e000000 	.inst	0x8e000000 ; undefined
    2664:	00009a1a 	.inst	0x00009a1a ; undefined
    2668:	00000c00 	.inst	0x00000c00 ; undefined
    266c:	000f0000 	.inst	0x000f0000 ; undefined
    2670:	8e000000 	.inst	0x8e000000 ; undefined
    2674:	0026695a 	.inst	0x0026695a ; NYI
    2678:	00001500 	.inst	0x00001500 ; undefined
    267c:	538e0000 	.inst	0x538e0000 ; undefined
    2680:	00005f02 	.inst	0x00005f02 ; undefined
    2684:	00001800 	.inst	0x00001800 ; undefined
    2688:	04070000 	.inst	0x04070000 ; undefined
    268c:	00000076 	.inst	0x00000076 ; undefined
    2690:	26a9058f 	.inst	0x26a9058f ; undefined
    2694:	00080000 	.inst	0x00080000 ; undefined
    2698:	00000000 	.inst	0x00000000 ; undefined
    269c:	00000008 	.inst	0x00000008 ; undefined
    26a0:	00080100 	.inst	0x00080100 ; undefined
    26a4:	02000000 	.inst	0x02000000 ; undefined
    26a8:	00000f00 	.inst	0x00000f00 ; undefined
    26ac:	0c8f0000 	st4	{v0.8b-v3.8b}, [x0], x15
    26b0:	00002685 	.inst	0x00002685 ; undefined
    26b4:	0000000f 	.inst	0x0000000f ; undefined
    26b8:	521e8f00 	eor	w0, w24, #0x3c003c
    26bc:	0c000001 	st4	{v1.8b-v4.8b}, [x0]
    26c0:	00000000 	.inst	0x00000000 ; undefined
    26c4:	0000000f 	.inst	0x0000000f ; undefined
    26c8:	bf218f00 	.inst	0xbf218f00 ; undefined
    26cc:	0c000026 	st4	{v6.8b-v9.8b}, [x1]
    26d0:	00000000 	.inst	0x00000000 ; undefined
    26d4:	0000000c 	.inst	0x0000000c ; undefined
    26d8:	00000f00 	.inst	0x00000f00 ; undefined
    26dc:	07900000 	.inst	0x07900000 ; undefined
    26e0:	000026e4 	.inst	0x000026e4 ; undefined
    26e4:	26cf080a 	.inst	0x26cf080a ; undefined
    26e8:	000f0000 	.inst	0x000f0000 ; undefined
    26ec:	90000000 	adrp	x0, 2000 <.debug_info+0x2000>
    26f0:	0026f508 	.inst	0x0026f508 ; NYI
    26f4:	d4080a00 	.inst	0xd4080a00 ; undefined
    26f8:	0c000026 	st4	{v6.8b-v9.8b}, [x1]
    26fc:	00000000 	.inst	0x00000000 ; undefined
    2700:	0000000f 	.inst	0x0000000f ; undefined
    2704:	fb199100 	.inst	0xfb199100 ; undefined
    2708:	0c000026 	st4	{v6.8b-v9.8b}, [x1]
    270c:	00000000 	.inst	0x00000000 ; undefined
    2710:	00270b05 	.inst	0x00270b05 ; NYI
    2714:	27101300 	.inst	0x27101300 ; undefined
    2718:	27200000 	.inst	0x27200000 ; undefined
    271c:	00160000 	.inst	0x00160000 ; undefined
    2720:	00271505 	.inst	0x00271505 ; NYI
    2724:	00000f00 	.inst	0x00000f00 ; undefined
    2728:	13920000 	extr	w0, w0, w18, #0
    272c:	00002720 	.inst	0x00002720 ; undefined
    2730:	76040707 	.inst	0x76040707 ; undefined
    2734:	93000000 	.inst	0x93000000 ; undefined
    2738:	00275640 	.inst	0x00275640 ; NYI
    273c:	00001e00 	.inst	0x00001e00 ; undefined
    2740:	ffff0000 	.inst	0xffff0000 ; undefined
    2744:	0008ffff 	.inst	0x0008ffff ; undefined
    2748:	01000000 	.inst	0x01000000 ; undefined
    274c:	0000001e 	.inst	0x0000001e ; undefined
    2750:	fffffe00 	.inst	0xfffffe00 ; undefined
    2754:	000c00ff 	.inst	0x000c00ff ; undefined
    2758:	0c000000 	st4	{v0.8b-v3.8b}, [x0]
    275c:	00000000 	.inst	0x00000000 ; undefined
    2760:	0000000c 	.inst	0x0000000c ; undefined
    2764:	00000f00 	.inst	0x00000f00 ; undefined
    2768:	14020000 	b	82768 <blk_mq_init_sched+0x81810>
    276c:	00002770 	.inst	0x00002770 ; undefined
    2770:	14db080a 	b	36c4798 <blk_mq_init_sched+0x36c3840>
    2774:	000f0000 	.inst	0x000f0000 ; undefined
    2778:	02000000 	.inst	0x02000000 ; undefined
    277c:	00158022 	.inst	0x00158022 ; undefined
    2780:	00000f00 	.inst	0x00000f00 ; undefined
    2784:	23020000 	.inst	0x23020000 ; undefined
    2788:	0000187d 	.inst	0x0000187d ; undefined
    278c:	0000000f 	.inst	0x0000000f ; undefined
    2790:	63240200 	.inst	0x63240200 ; undefined
    2794:	15000018 	b	40027f4 <blk_mq_init_sched+0x400189c>
    2798:	00000000 	.inst	0x00000000 ; undefined
    279c:	f5018b02 	.inst	0xf5018b02 ; undefined
    27a0:	15000022 	b	4002828 <blk_mq_init_sched+0x40018d0>
    27a4:	00000000 	.inst	0x00000000 ; undefined
    27a8:	f5018c02 	.inst	0xf5018c02 ; undefined
    27ac:	15000022 	b	4002834 <blk_mq_init_sched+0x40018dc>
    27b0:	00000000 	.inst	0x00000000 ; undefined
    27b4:	f5018d02 	.inst	0xf5018d02 ; undefined
    27b8:	15000022 	b	4002840 <blk_mq_init_sched+0x40018e8>
    27bc:	00000000 	.inst	0x00000000 ; undefined
    27c0:	54019602 	b.cs	5a80 <blk_mq_init_sched+0x4b28>  // b.hs, b.nlast
    27c4:	07000017 	.inst	0x07000017 ; undefined
    27c8:	00760407 	.inst	0x00760407 ; undefined
    27cc:	17940000 	b	fffffffffe5027cc <blk_mq_init_sched+0xfffffffffe501874>
    27d0:	000027ed 	.inst	0x000027ed ; undefined
    27d4:	00000008 	.inst	0x00000008 ; undefined
    27d8:	00080000 	.inst	0x00080000 ; undefined
    27dc:	01000000 	.inst	0x01000000 ; undefined
    27e0:	00000008 	.inst	0x00000008 ; undefined
    27e4:	00080200 	.inst	0x00080200 ; undefined
    27e8:	03000000 	.inst	0x03000000 ; undefined
    27ec:	00000f00 	.inst	0x00000f00 ; undefined
    27f0:	3a010000 	adcs	w0, w0, w1
    27f4:	00000406 	.inst	0x00000406 ; undefined
    27f8:	0000000f 	.inst	0x0000000f ; undefined
    27fc:	063a0100 	.inst	0x063a0100 ; undefined
    2800:	27000004 	.inst	0x27000004 ; undefined
    2804:	00000000 	.inst	0x00000000 ; undefined
    2808:	01953a01 	.inst	0x01953a01 ; undefined
    280c:	03090000 	.inst	0x03090000 ; undefined
	...
    2818:	00000015 	.inst	0x00000015 ; undefined
    281c:	01970100 	.inst	0x01970100 ; undefined
    2820:	00000406 	.inst	0x00000406 ; undefined
    2824:	00000015 	.inst	0x00000015 ; undefined
    2828:	01970100 	.inst	0x01970100 ; undefined
    282c:	00000406 	.inst	0x00000406 ; undefined
    2830:	00000028 	.inst	0x00000028 ; undefined
    2834:	01970100 	.inst	0x01970100 ; undefined
    2838:	00000195 	.inst	0x00000195 ; undefined
    283c:	00000309 	.inst	0x00000309 ; undefined
    2840:	00000000 	.inst	0x00000000 ; undefined
    2844:	00290000 	.inst	0x00290000 ; NYI
    2848:	01000000 	.inst	0x01000000 ; undefined
    284c:	00000296 	.inst	0x00000296 ; undefined
    2850:	00000000 	.inst	0x00000000 ; undefined
    2854:	00bc0000 	.inst	0x00bc0000 ; undefined
    2858:	00000000 	.inst	0x00000000 ; undefined
    285c:	9c010000 	ldr	q0, 485c <.debug_info+0x485c>
    2860:	000028a5 	.inst	0x000028a5 ; undefined
    2864:	0100712a 	.inst	0x0100712a ; undefined
    2868:	28a50296 	stp	w22, w0, [x20], #-216
    286c:	65010000 	.inst	0x65010000 ; undefined
    2870:	0100652a 	.inst	0x0100652a ; undefined
    2874:	28ab0296 	stp	w22, w0, [x20], #-168
    2878:	66010000 	.inst	0x66010000 ; undefined
    287c:	00000028 	.inst	0x00000028 ; undefined
    2880:	02980100 	.inst	0x02980100 ; undefined
    2884:	000024ef 	.inst	0x000024ef ; undefined
    2888:	692b6401 	.inst	0x692b6401 ; undefined
    288c:	02990100 	.inst	0x02990100 ; undefined
    2890:	00000076 	.inst	0x00000076 ; undefined
    2894:	00286301 	.inst	0x00286301 ; NYI
    2898:	01000000 	.inst	0x01000000 ; undefined
    289c:	0076029a 	.inst	0x0076029a ; undefined
    28a0:	64010000 	.inst	0x64010000 ; undefined
    28a4:	9f080a00 	.inst	0x9f080a00 ; undefined
    28a8:	0a000024 	and	w4, w1, w0
    28ac:	00276008 	.inst	0x00276008 ; NYI
    28b0:	00002c00 	.inst	0x00002c00 ; undefined
    28b4:	85010000 	.inst	0x85010000 ; undefined
    28b8:	28df0102 	ldp	w2, w0, [x8], #248
    28bc:	712d0000 	subs	w0, w0, #0xb40
    28c0:	02850100 	.inst	0x02850100 ; undefined
    28c4:	000028a5 	.inst	0x000028a5 ; undefined
    28c8:	0000002e 	.inst	0x0000002e ; undefined
    28cc:	02870100 	.inst	0x02870100 ; undefined
    28d0:	000024ef 	.inst	0x000024ef ; undefined
    28d4:	0100692f 	.inst	0x0100692f ; undefined
    28d8:	005f0288 	.inst	0x005f0288 ; undefined
    28dc:	30000000 	adr	x0, 28dd <.debug_info+0x28dd>
    28e0:	00000000 	.inst	0x00000000 ; undefined
    28e4:	5f024201 	.inst	0x5f024201 ; undefined
	...
    28f0:	f8000000 	stur	x0, [x0]
    28f4:	00000001 	.inst	0x00000001 ; undefined
    28f8:	01000000 	.inst	0x01000000 ; undefined
    28fc:	0029f49c 	.inst	0x0029f49c ; NYI
    2900:	00712a00 	.inst	0x00712a00 ; undefined
    2904:	a5024201 	ld1sh	{z1.d}, p0/z, [x16, x2, lsl #1]
    2908:	01000028 	.inst	0x01000028 ; undefined
    290c:	00652a50 	.inst	0x00652a50 ; undefined
    2910:	f4024201 	.inst	0xf4024201 ; undefined
    2914:	01000029 	.inst	0x01000029 ; undefined
    2918:	00692f51 	.inst	0x00692f51 ; undefined
    291c:	76024401 	.inst	0x76024401 ; undefined
    2920:	28000000 	stnp	w0, w0, [x0]
    2924:	00000000 	.inst	0x00000000 ; undefined
    2928:	76024401 	.inst	0x76024401 ; undefined
    292c:	01000000 	.inst	0x01000000 ; undefined
    2930:	00002e67 	.inst	0x00002e67 ; undefined
    2934:	45010000 	.inst	0x45010000 ; undefined
    2938:	0024ef02 	.inst	0x0024ef02 ; NYI
    293c:	71652b00 	subs	w0, w24, #0x94a, lsl #12
    2940:	02460100 	.inst	0x02460100 ; undefined
    2944:	000028ab 	.inst	0x000028ab ; undefined
    2948:	722f6401 	ands	w1, w0, #0xfffe07ff
    294c:	01007465 	.inst	0x01007465 ; undefined
    2950:	005f0247 	.inst	0x005f0247 ; undefined
    2954:	00310000 	.inst	0x00310000 ; NYI
    2958:	01000000 	.inst	0x01000000 ; undefined
    295c:	00000279 	.inst	0x00000279 ; undefined
    2960:	00000000 	.inst	0x00000000 ; undefined
    2964:	00320000 	.inst	0x00320000 ; NYI
    2968:	88000000 	stxr	w0, w0, [x0]
    296c:	2e000029 	ext	v9.8b, v1.8b, v0.8b, #0
    2970:	00000000 	.inst	0x00000000 ; undefined
    2974:	76025401 	.inst	0x76025401 ; undefined
    2978:	2e000000 	ext	v0.8b, v0.8b, v0.8b, #0
    297c:	00000000 	.inst	0x00000000 ; undefined
    2980:	76025401 	.inst	0x76025401 ; undefined
    2984:	00000000 	.inst	0x00000000 ; undefined
    2988:	002a7e33 	.inst	0x002a7e33 ; NYI
	...
    2998:	025e0100 	.inst	0x025e0100 ; undefined
    299c:	000029ce 	.inst	0x000029ce ; undefined
    29a0:	002aa534 	.inst	0x002aa534 ; NYI
    29a4:	2a993400 	orr	w0, w0, w25, asr #13
    29a8:	8f340000 	.inst	0x8f340000 ; undefined
    29ac:	3500002a 	cbnz	w10, 29b0 <.debug_info+0x29b0>
    29b0:	000045b8 	.inst	0x000045b8 ; undefined
	...
    29bc:	00000004 	.inst	0x00000004 ; undefined
    29c0:	00000000 	.inst	0x00000000 ; undefined
    29c4:	34020a01 	cbz	w1, 6b04 <blk_mq_init_sched+0x5bac>
    29c8:	000045c8 	.inst	0x000045c8 ; undefined
    29cc:	fa360000 	.inst	0xfa360000 ; undefined
    29d0:	00000029 	.inst	0x00000029 ; undefined
	...
    29dc:	01000000 	.inst	0x01000000 ; undefined
    29e0:	0b340258 	add	w24, w18, w20, uxtb
    29e4:	3700002a 	tbnz	w10, #0, 29e8 <.debug_info+0x29e8>
    29e8:	00000000 	.inst	0x00000000 ; undefined
    29ec:	002a1738 	.inst	0x002a1738 ; NYI
    29f0:	00000000 	.inst	0x00000000 ; undefined
    29f4:	275b080a 	.inst	0x275b080a ; undefined
    29f8:	00390000 	.inst	0x00390000 ; NYI
    29fc:	01000000 	.inst	0x01000000 ; undefined
    2a00:	005f022f 	.inst	0x005f022f ; undefined
    2a04:	24010000 	cmphs	p0.b, p0/z, z0.b, z1.b
    2a08:	3a00002a 	adcs	w10, w1, w0
    2a0c:	00000000 	.inst	0x00000000 ; undefined
    2a10:	a5022f01 	ld1rqw	{z1.s}, p3/z, [x24, #32]
    2a14:	2f000028 	.inst	0x2f000028 ; undefined
    2a18:	00746573 	.inst	0x00746573 ; undefined
    2a1c:	24023101 	cmpeq	p1.b, p4/z, z8.b, z2.d
    2a20:	0000002a 	.inst	0x0000002a ; undefined
    2a24:	24ea080a 	cmphs	p10.d, p2/z, z0.d, #40
    2a28:	003b0000 	.inst	0x003b0000 ; NYI
    2a2c:	01000000 	.inst	0x01000000 ; undefined
    2a30:	6401021e 	.inst	0x6401021e ; undefined
    2a34:	2d00002a 	stp	s10, s0, [x1]
    2a38:	1e010071 	.inst	0x1e010071 ; undefined
    2a3c:	0028a502 	.inst	0x0028a502 ; NYI
    2a40:	00003a00 	.inst	0x00003a00 ; undefined
    2a44:	1e010000 	.inst	0x1e010000 ; undefined
    2a48:	00007602 	.inst	0x00007602 ; undefined
    2a4c:	00002e00 	.inst	0x00002e00 ; undefined
    2a50:	20010000 	.inst	0x20010000 ; undefined
    2a54:	0024ef02 	.inst	0x0024ef02 ; NYI
    2a58:	00692f00 	.inst	0x00692f00 ; undefined
    2a5c:	5f022101 	.inst	0x5f022101 ; undefined
    2a60:	00000000 	.inst	0x00000000 ; undefined
    2a64:	0000003b 	.inst	0x0000003b ; undefined
    2a68:	02170100 	.inst	0x02170100 ; undefined
    2a6c:	002a7e01 	.inst	0x002a7e01 ; NYI
    2a70:	00003a00 	.inst	0x00003a00 ; undefined
    2a74:	17010000 	b	fffffffffc042a74 <blk_mq_init_sched+0xfffffffffc041b1c>
    2a78:	0028a502 	.inst	0x0028a502 ; NYI
    2a7c:	00390000 	.inst	0x00390000 ; NYI
    2a80:	01000000 	.inst	0x01000000 ; undefined
    2a84:	005f0206 	.inst	0x005f0206 ; undefined
    2a88:	b2010000 	orr	x0, x0, #0x8000000080000000
    2a8c:	2d00002a 	stp	s10, s0, [x1]
    2a90:	06010071 	.inst	0x06010071 ; undefined
    2a94:	0028a502 	.inst	0x0028a502 ; NYI
    2a98:	00003a00 	.inst	0x00003a00 ; undefined
    2a9c:	07010000 	.inst	0x07010000 ; undefined
    2aa0:	0024ef02 	.inst	0x0024ef02 ; NYI
    2aa4:	00003a00 	.inst	0x00003a00 ; undefined
    2aa8:	08010000 	stxrb	w1, w0, [x0]
    2aac:	00007602 	.inst	0x00007602 ; undefined
    2ab0:	00290000 	.inst	0x00290000 ; NYI
    2ab4:	01000000 	.inst	0x01000000 ; undefined
    2ab8:	000001e2 	.inst	0x000001e2 ; undefined
    2abc:	00000000 	.inst	0x00000000 ; undefined
    2ac0:	01f00000 	.inst	0x01f00000 ; undefined
    2ac4:	00000000 	.inst	0x00000000 ; undefined
    2ac8:	9c010000 	ldr	q0, 4ac8 <.debug_info+0x4ac8>
    2acc:	00003233 	.inst	0x00003233 ; undefined
    2ad0:	0000003c 	.inst	0x0000003c ; undefined
    2ad4:	01e20100 	.inst	0x01e20100 ; undefined
    2ad8:	000024ef 	.inst	0x000024ef ; undefined
    2adc:	632a6301 	.inst	0x632a6301 ; undefined
    2ae0:	01007874 	.inst	0x01007874 ; undefined
    2ae4:	323301e3 	orr	w3, w15, #0x2000
    2ae8:	67010000 	.inst	0x67010000 ; undefined
    2aec:	0000003c 	.inst	0x0000003c ; undefined
    2af0:	01e40100 	.inst	0x01e40100 ; undefined
    2af4:	00001501 	.inst	0x00001501 ; undefined
    2af8:	003c6601 	.inst	0x003c6601 ; NYI
    2afc:	01000000 	.inst	0x01000000 ; undefined
    2b00:	013001e4 	.inst	0x013001e4 ; undefined
    2b04:	65010000 	.inst	0x65010000 ; undefined
    2b08:	0100652b 	.inst	0x0100652b ; undefined
    2b0c:	28ab01e6 	stp	w6, w0, [x15], #-168
    2b10:	50010000 	adr	x0, 4b12 <.debug_info+0x4b12>
    2b14:	0100712b 	.inst	0x0100712b ; undefined
    2b18:	28a501e7 	stp	w7, w0, [x15], #-216
    2b1c:	64010000 	.inst	0x64010000 ; undefined
    2b20:	74756f3d 	.inst	0x74756f3d ; undefined
    2b24:	02020100 	.inst	0x02020100 ; undefined
	...
    2b30:	0047af33 	.inst	0x0047af33 ; undefined
	...
    2b40:	01ee0100 	.inst	0x01ee0100 ; undefined
    2b44:	00002e88 	.inst	0x00002e88 ; undefined
    2b48:	0047bb34 	.inst	0x0047bb34 ; undefined
    2b4c:	47c73e00 	.inst	0x47c73e00 ; undefined
	...
    2b5c:	de0f0000 	.inst	0xde0f0000 ; undefined
    2b60:	0047de34 	.inst	0x0047de34 ; undefined
    2b64:	47d33400 	.inst	0x47d33400 ; undefined
    2b68:	00370000 	.inst	0x00370000 ; NYI
    2b6c:	38000000 	sturb	w0, [x0]
    2b70:	000047e8 	.inst	0x000047e8 ; undefined
    2b74:	00493b3f 	.inst	0x00493b3f ; undefined
	...
    2b80:	00000400 	.inst	0x00000400 ; undefined
    2b84:	00000000 	.inst	0x00000000 ; undefined
    2b88:	40ca0f00 	.inst	0x40ca0f00 ; undefined
    2b8c:	00004889 	.inst	0x00004889 ; undefined
	...
    2b98:	0000000c 	.inst	0x0000000c ; undefined
    2b9c:	00000000 	.inst	0x00000000 ; undefined
    2ba0:	2bc8cc0f 	.inst	0x2bc8cc0f ; undefined
    2ba4:	a4340000 	.inst	0xa4340000 ; undefined
    2ba8:	34000048 	cbz	w8, 2bb0 <.debug_info+0x2bb0>
    2bac:	00004899 	.inst	0x00004899 ; undefined
    2bb0:	00000041 	.inst	0x00000041 ; undefined
    2bb4:	00000000 	.inst	0x00000000 ; undefined
    2bb8:	00000c00 	.inst	0x00000c00 ; undefined
    2bbc:	00000000 	.inst	0x00000000 ; undefined
    2bc0:	48af3800 	.inst	0x48af3800 ; undefined
    2bc4:	00000000 	.inst	0x00000000 ; undefined
    2bc8:	0049e740 	.inst	0x0049e740 ; undefined
	...
    2bd4:	00001000 	.inst	0x00001000 ; undefined
    2bd8:	00000000 	.inst	0x00000000 ; undefined
    2bdc:	31cd0f00 	.inst	0x31cd0f00 ; undefined
    2be0:	3400002c 	cbz	w12, 2be4 <.debug_info+0x2be4>
    2be4:	000049f3 	.inst	0x000049f3 ; undefined
    2be8:	00000041 	.inst	0x00000041 ; undefined
    2bec:	00000000 	.inst	0x00000000 ; undefined
    2bf0:	00001000 	.inst	0x00001000 ; undefined
    2bf4:	00000000 	.inst	0x00000000 ; undefined
    2bf8:	49fe4200 	.inst	0x49fe4200 ; undefined
    2bfc:	52010000 	eor	w0, w0, #0x80000000
    2c00:	004a1f43 	.inst	0x004a1f43 ; undefined
	...
    2c0c:	00000400 	.inst	0x00000400 ; undefined
    2c10:	00000000 	.inst	0x00000000 ; undefined
    2c14:	412e1000 	.inst	0x412e1000 ; undefined
	...
    2c20:	00000004 	.inst	0x00000004 ; undefined
    2c24:	00000000 	.inst	0x00000000 ; undefined
    2c28:	004a2f38 	.inst	0x004a2f38 ; undefined
    2c2c:	00000000 	.inst	0x00000000 ; undefined
    2c30:	49444400 	.inst	0x49444400 ; undefined
	...
    2c40:	cd0f0000 	.inst	0xcd0f0000 ; undefined
    2c44:	00002c63 	.inst	0x00002c63 ; undefined
    2c48:	00495b34 	.inst	0x00495b34 ; undefined
    2c4c:	49503400 	.inst	0x49503400 ; undefined
    2c50:	00370000 	.inst	0x00370000 ; NYI
    2c54:	38000000 	sturb	w0, [x0]
    2c58:	00004966 	.inst	0x00004966 ; undefined
    2c5c:	00497138 	.inst	0x00497138 ; undefined
    2c60:	45000000 	.inst	0x45000000 ; undefined
    2c64:	0000487b 	.inst	0x0000487b ; undefined
	...
    2c70:	00000004 	.inst	0x00000004 ; undefined
    2c74:	00000000 	.inst	0x00000000 ; undefined
    2c78:	00002cb1 	.inst	0x00002cb1 ; undefined
    2c7c:	00487c38 	.inst	0x00487c38 ; undefined
    2c80:	497d4300 	.inst	0x497d4300 ; undefined
	...
    2c8c:	00040000 	.inst	0x00040000 ; undefined
    2c90:	00000000 	.inst	0x00000000 ; undefined
    2c94:	cd0f0000 	.inst	0xcd0f0000 ; undefined
    2c98:	00000041 	.inst	0x00000041 ; undefined
    2c9c:	00000000 	.inst	0x00000000 ; undefined
    2ca0:	00000400 	.inst	0x00000400 ; undefined
    2ca4:	00000000 	.inst	0x00000000 ; undefined
    2ca8:	498d3800 	.inst	0x498d3800 ; undefined
    2cac:	00000000 	.inst	0x00000000 ; undefined
    2cb0:	49994400 	.inst	0x49994400 ; undefined
	...
    2cc0:	cd0f0000 	.inst	0xcd0f0000 ; undefined
    2cc4:	00002cdb 	.inst	0x00002cdb ; undefined
    2cc8:	00000037 	.inst	0x00000037 ; undefined
    2ccc:	49a93800 	.inst	0x49a93800 ; undefined
    2cd0:	b3420000 	bfi	x0, x0, #62, #1
    2cd4:	01000049 	.inst	0x01000049 ; undefined
    2cd8:	3f000050 	.inst	0x3f000050 ; undefined
    2cdc:	00004932 	.inst	0x00004932 ; undefined
	...
    2ce8:	00000004 	.inst	0x00000004 ; undefined
    2cec:	00000000 	.inst	0x00000000 ; undefined
    2cf0:	3243d10f 	.inst	0x3243d10f ; undefined
    2cf4:	0000004d 	.inst	0x0000004d ; undefined
    2cf8:	00000000 	.inst	0x00000000 ; undefined
    2cfc:	1c000000 	ldr	s0, 2cfc <.debug_info+0x2cfc>
    2d00:	00000000 	.inst	0x00000000 ; undefined
    2d04:	0f000000 	.inst	0x0f000000 ; undefined
    2d08:	4d4934cf 	.inst	0x4d4934cf ; undefined
    2d0c:	3f340000 	.inst	0x3f340000 ; undefined
    2d10:	3500004d 	cbnz	w13, 2d18 <.debug_info+0x2d18>
    2d14:	00004e0c 	.inst	0x00004e0c ; undefined
	...
    2d20:	0000001c 	.inst	0x0000001c ; undefined
    2d24:	00000000 	.inst	0x00000000 ; undefined
    2d28:	3404bc95 	cbz	w21, c4b8 <blk_mq_init_sched+0xb560>
    2d2c:	00004e21 	.inst	0x00004e21 ; undefined
    2d30:	004e1834 	.inst	0x004e1834 ; undefined
    2d34:	4e7a4300 	addhn2	v0.8h, v24.4s, v26.4s
	...
    2d40:	001c0000 	.inst	0x001c0000 ; undefined
    2d44:	00000000 	.inst	0x00000000 ; undefined
    2d48:	35190000 	cbnz	w0, 34d48 <blk_mq_init_sched+0x33df0>
    2d4c:	004e8f34 	.inst	0x004e8f34 ; undefined
    2d50:	4e863400 	.inst	0x4e863400 ; undefined
    2d54:	d7400000 	.inst	0xd7400000 ; undefined
    2d58:	0000004e 	.inst	0x0000004e ; undefined
    2d5c:	00000000 	.inst	0x00000000 ; undefined
    2d60:	08000000 	stxrb	w0, w0, [x0]
    2d64:	00000000 	.inst	0x00000000 ; undefined
    2d68:	96000000 	bl	fffffffff8002d68 <blk_mq_init_sched+0xfffffffff8001e10>
    2d6c:	002e1e43 	.inst	0x002e1e43 ; NYI
    2d70:	4ee74500 	sshl	v0.2d, v8.2d, v7.2d
	...
    2d7c:	00040000 	.inst	0x00040000 ; undefined
    2d80:	00000000 	.inst	0x00000000 ; undefined
    2d84:	2dc90000 	ldp	s0, s0, [x0, #72]!
    2d88:	ec380000 	.inst	0xec380000 ; undefined
    2d8c:	4300004e 	.inst	0x4300004e ; undefined
    2d90:	00004f95 	.inst	0x00004f95 ; undefined
	...
    2d9c:	00000004 	.inst	0x00000004 ; undefined
    2da0:	00000000 	.inst	0x00000000 ; undefined
    2da4:	b0341818 	adrp	x24, 68303000 <blk_mq_init_sched+0x683020a8>
    2da8:	3400004f 	cbz	w15, 2db0 <.debug_info+0x2db0>
    2dac:	00004fa5 	.inst	0x00004fa5 ; undefined
    2db0:	00000041 	.inst	0x00000041 ; undefined
    2db4:	00000000 	.inst	0x00000000 ; undefined
    2db8:	00000400 	.inst	0x00000400 ; undefined
    2dbc:	00000000 	.inst	0x00000000 ; undefined
    2dc0:	4fbb4600 	.inst	0x4fbb4600 ; undefined
    2dc4:	00000000 	.inst	0x00000000 ; undefined
    2dc8:	4ef84700 	sshl	v0.2d, v24.2d, v24.2d
	...
    2dd4:	00040000 	.inst	0x00040000 ; undefined
    2dd8:	00000000 	.inst	0x00000000 ; undefined
    2ddc:	f9380000 	str	x0, [x0, #28672]
    2de0:	4300004e 	.inst	0x4300004e ; undefined
    2de4:	00004f95 	.inst	0x00004f95 ; undefined
	...
    2df0:	00000004 	.inst	0x00000004 ; undefined
    2df4:	00000000 	.inst	0x00000000 ; undefined
    2df8:	b0341918 	adrp	x24, 68323000 <blk_mq_init_sched+0x683220a8>
    2dfc:	3400004f 	cbz	w15, 2e04 <.debug_info+0x2e04>
    2e00:	00004fa5 	.inst	0x00004fa5 ; undefined
    2e04:	00000041 	.inst	0x00000041 ; undefined
    2e08:	00000000 	.inst	0x00000000 ; undefined
    2e0c:	00000400 	.inst	0x00000400 ; undefined
    2e10:	00000000 	.inst	0x00000000 ; undefined
    2e14:	4fbb4600 	.inst	0x4fbb4600 ; undefined
    2e18:	00000000 	.inst	0x00000000 ; undefined
    2e1c:	38400000 	ldurb	w0, [x0]
    2e20:	0000004f 	.inst	0x0000004f ; undefined
    2e24:	00000000 	.inst	0x00000000 ; undefined
    2e28:	0c000000 	st4	{v0.8b-v3.8b}, [x0]
    2e2c:	00000000 	.inst	0x00000000 ; undefined
    2e30:	96000000 	bl	fffffffff8002e30 <blk_mq_init_sched+0xfffffffff8001ed8>
    2e34:	002e4443 	.inst	0x002e4443 ; NYI
    2e38:	4f4d3400 	srsra	v0.2d, v0.2d, #51
    2e3c:	44340000 	.inst	0x44340000 ; undefined
    2e40:	0000004f 	.inst	0x0000004f ; undefined
    2e44:	00506c43 	.inst	0x00506c43 ; undefined
	...
    2e50:	00000800 	.inst	0x00000800 ; undefined
    2e54:	00000000 	.inst	0x00000000 ; undefined
    2e58:	34439600 	cbz	w0, 8a118 <blk_mq_init_sched+0x891c0>
    2e5c:	00005081 	.inst	0x00005081 ; undefined
    2e60:	00507834 	.inst	0x00507834 ; undefined
    2e64:	00004100 	.inst	0x00004100 ; undefined
    2e68:	00000000 	.inst	0x00000000 ; undefined
    2e6c:	00080000 	.inst	0x00080000 ; undefined
    2e70:	00000000 	.inst	0x00000000 ; undefined
    2e74:	8a380000 	bic	x0, x0, x24
    2e78:	38000050 	sturb	w16, [x2]
    2e7c:	00005095 	.inst	0x00005095 ; undefined
	...
    2e88:	0046c033 	.inst	0x0046c033 ; undefined
	...
    2e98:	02030100 	.inst	0x02030100 ; undefined
    2e9c:	00003214 	.inst	0x00003214 ; undefined
    2ea0:	0046cd34 	.inst	0x0046cd34 ; undefined
    2ea4:	46da3600 	.inst	0x46da3600 ; undefined
	...
    2eb4:	520f0000 	eor	w0, w0, #0x20000
    2eb8:	46f33401 	.inst	0x46f33401 ; undefined
    2ebc:	e7340000 	.inst	0xe7340000 ; undefined
    2ec0:	37000046 	tbnz	w6, #0, 2ec8 <.debug_info+0x2ec8>
    2ec4:	00000000 	.inst	0x00000000 ; undefined
    2ec8:	0046fe38 	.inst	0x0046fe38 ; undefined
    2ecc:	493b4800 	.inst	0x493b4800 ; undefined
	...
    2ed8:	00040000 	.inst	0x00040000 ; undefined
    2edc:	00000000 	.inst	0x00000000 ; undefined
    2ee0:	3d0f0000 	str	b0, [x0, #960]
    2ee4:	48894901 	stllrh	w1, [x8]
	...
    2ef0:	000c0000 	.inst	0x000c0000 ; undefined
    2ef4:	00000000 	.inst	0x00000000 ; undefined
    2ef8:	3f0f0000 	.inst	0x3f0f0000 ; undefined
    2efc:	002f2301 	.inst	0x002f2301 ; NYI
    2f00:	48a43400 	.inst	0x48a43400 ; undefined
    2f04:	99340000 	.inst	0x99340000 ; undefined
    2f08:	41000048 	.inst	0x41000048 ; undefined
	...
    2f14:	0000000c 	.inst	0x0000000c ; undefined
    2f18:	00000000 	.inst	0x00000000 ; undefined
    2f1c:	0048af38 	.inst	0x0048af38 ; undefined
    2f20:	49000000 	.inst	0x49000000 ; undefined
    2f24:	000049e7 	.inst	0x000049e7 ; undefined
	...
    2f30:	00000010 	.inst	0x00000010 ; undefined
    2f34:	00000000 	.inst	0x00000000 ; undefined
    2f38:	8d01400f 	.inst	0x8d01400f ; undefined
    2f3c:	3400002f 	cbz	w15, 2f40 <.debug_info+0x2f40>
    2f40:	000049f3 	.inst	0x000049f3 ; undefined
    2f44:	00000041 	.inst	0x00000041 ; undefined
    2f48:	00000000 	.inst	0x00000000 ; undefined
    2f4c:	00001000 	.inst	0x00001000 ; undefined
    2f50:	00000000 	.inst	0x00000000 ; undefined
    2f54:	49fe4200 	.inst	0x49fe4200 ; undefined
    2f58:	52010000 	eor	w0, w0, #0x80000000
    2f5c:	004a1f43 	.inst	0x004a1f43 ; undefined
	...
    2f68:	00000400 	.inst	0x00000400 ; undefined
    2f6c:	00000000 	.inst	0x00000000 ; undefined
    2f70:	412e1000 	.inst	0x412e1000 ; undefined
	...
    2f7c:	00000004 	.inst	0x00000004 ; undefined
    2f80:	00000000 	.inst	0x00000000 ; undefined
    2f84:	004a2f38 	.inst	0x004a2f38 ; undefined
    2f88:	00000000 	.inst	0x00000000 ; undefined
    2f8c:	49443300 	.inst	0x49443300 ; undefined
	...
    2f9c:	400f0000 	.inst	0x400f0000 ; undefined
    2fa0:	002fc001 	.inst	0x002fc001 ; NYI
    2fa4:	495b3400 	.inst	0x495b3400 ; undefined
    2fa8:	50340000 	adr	x0, 6afaa <blk_mq_init_sched+0x6a052>
    2fac:	37000049 	tbnz	w9, #0, 2fb4 <.debug_info+0x2fb4>
    2fb0:	00000000 	.inst	0x00000000 ; undefined
    2fb4:	00496638 	.inst	0x00496638 ; undefined
    2fb8:	49713800 	.inst	0x49713800 ; undefined
    2fbc:	00000000 	.inst	0x00000000 ; undefined
    2fc0:	00479a45 	.inst	0x00479a45 ; undefined
	...
    2fcc:	00000400 	.inst	0x00000400 ; undefined
    2fd0:	00000000 	.inst	0x00000000 ; undefined
    2fd4:	00300f00 	.inst	0x00300f00 ; NYI
    2fd8:	479b3800 	.inst	0x479b3800 ; undefined
    2fdc:	7d350000 	str	h0, [x0, #6784]
    2fe0:	00000049 	.inst	0x00000049 ; undefined
    2fe4:	00000000 	.inst	0x00000000 ; undefined
    2fe8:	04000000 	add	z0.b, p0/m, z0.b, z0.b
    2fec:	00000000 	.inst	0x00000000 ; undefined
    2ff0:	0f000000 	.inst	0x0f000000 ; undefined
    2ff4:	00410140 	.inst	0x00410140 ; undefined
    2ff8:	00000000 	.inst	0x00000000 ; undefined
    2ffc:	04000000 	add	z0.b, p0/m, z0.b, z0.b
    3000:	00000000 	.inst	0x00000000 ; undefined
    3004:	38000000 	sturb	w0, [x0]
    3008:	0000498d 	.inst	0x0000498d ; undefined
    300c:	33000000 	bfxil	w0, w0, #0, #1
    3010:	00004999 	.inst	0x00004999 ; undefined
	...
    3020:	3a01400f 	.inst	0x3a01400f ; undefined
    3024:	37000030 	tbnz	w16, #0, 3028 <.debug_info+0x3028>
    3028:	00000000 	.inst	0x00000000 ; undefined
    302c:	0049a938 	.inst	0x0049a938 ; undefined
    3030:	49b34200 	.inst	0x49b34200 ; undefined
    3034:	50010000 	adr	x0, 5036 <.debug_info+0x5036>
    3038:	324a0000 	.inst	0x324a0000 ; undefined
    303c:	00000049 	.inst	0x00000049 ; undefined
	...
    3048:	0f000000 	.inst	0x0f000000 ; undefined
    304c:	06360144 	.inst	0x06360144 ; undefined
    3050:	0000004d 	.inst	0x0000004d ; undefined
	...
    305c:	0f000000 	.inst	0x0f000000 ; undefined
    3060:	21340141 	.inst	0x21340141 ; undefined
    3064:	3400004d 	cbz	w13, 306c <.debug_info+0x306c>
    3068:	00004d17 	.inst	0x00004d17 ; undefined
    306c:	004da236 	.inst	0x004da236 ; undefined
	...
    307c:	069c9500 	.inst	0x069c9500 ; undefined
    3080:	004dbd34 	.inst	0x004dbd34 ; undefined
    3084:	4db33400 	st4	{v0.b-v3.b}[13], [x0], x19
    3088:	2b360000 	adds	w0, w0, w22, uxtb
    308c:	0000004e 	.inst	0x0000004e ; undefined
	...
    3098:	19000000 	.inst	0x19000000 ; undefined
    309c:	463401cd 	.inst	0x463401cd ; undefined
    30a0:	3400004e 	cbz	w14, 30a8 <.debug_info+0x30a8>
    30a4:	00004e3c 	.inst	0x00004e3c ; undefined
    30a8:	004e5736 	.inst	0x004e5736 ; undefined
	...
    30b8:	08939700 	stlrb	w0, [x24]
    30bc:	004e7034 	.inst	0x004e7034 ; undefined
    30c0:	4e673400 	cmgt	v0.8h, v0.8h, v7.8h
    30c4:	d7400000 	.inst	0xd7400000 ; undefined
    30c8:	0000004e 	.inst	0x0000004e ; undefined
    30cc:	00000000 	.inst	0x00000000 ; undefined
    30d0:	08000000 	stxrb	w0, w0, [x0]
    30d4:	00000000 	.inst	0x00000000 ; undefined
    30d8:	96000000 	bl	fffffffff80030d8 <blk_mq_init_sched+0xfffffffff8002180>
    30dc:	00318e5c 	.inst	0x00318e5c ; NYI
    30e0:	4ee74500 	sshl	v0.2d, v8.2d, v7.2d
	...
    30ec:	00040000 	.inst	0x00040000 ; undefined
    30f0:	00000000 	.inst	0x00000000 ; undefined
    30f4:	31390000 	adds	w0, w0, #0xe40
    30f8:	ec380000 	.inst	0xec380000 ; undefined
    30fc:	4300004e 	.inst	0x4300004e ; undefined
    3100:	00004f95 	.inst	0x00004f95 ; undefined
	...
    310c:	00000004 	.inst	0x00000004 ; undefined
    3110:	00000000 	.inst	0x00000000 ; undefined
    3114:	b0341818 	adrp	x24, 68304000 <blk_mq_init_sched+0x683030a8>
    3118:	3400004f 	cbz	w15, 3120 <.debug_info+0x3120>
    311c:	00004fa5 	.inst	0x00004fa5 ; undefined
    3120:	00000041 	.inst	0x00000041 ; undefined
    3124:	00000000 	.inst	0x00000000 ; undefined
    3128:	00000400 	.inst	0x00000400 ; undefined
    312c:	00000000 	.inst	0x00000000 ; undefined
    3130:	4fbb4600 	.inst	0x4fbb4600 ; undefined
    3134:	00000000 	.inst	0x00000000 ; undefined
    3138:	4ef84700 	sshl	v0.2d, v24.2d, v24.2d
	...
    3144:	00040000 	.inst	0x00040000 ; undefined
    3148:	00000000 	.inst	0x00000000 ; undefined
    314c:	f9380000 	str	x0, [x0, #28672]
    3150:	4300004e 	.inst	0x4300004e ; undefined
    3154:	00004f95 	.inst	0x00004f95 ; undefined
	...
    3160:	00000004 	.inst	0x00000004 ; undefined
    3164:	00000000 	.inst	0x00000000 ; undefined
    3168:	b0341918 	adrp	x24, 68324000 <blk_mq_init_sched+0x683230a8>
    316c:	3400004f 	cbz	w15, 3174 <.debug_info+0x3174>
    3170:	00004fa5 	.inst	0x00004fa5 ; undefined
    3174:	00000041 	.inst	0x00000041 ; undefined
    3178:	00000000 	.inst	0x00000000 ; undefined
    317c:	00000400 	.inst	0x00000400 ; undefined
    3180:	00000000 	.inst	0x00000000 ; undefined
    3184:	4fbb4600 	.inst	0x4fbb4600 ; undefined
    3188:	00000000 	.inst	0x00000000 ; undefined
    318c:	06400000 	.inst	0x06400000 ; undefined
    3190:	0000004f 	.inst	0x0000004f ; undefined
    3194:	00000000 	.inst	0x00000000 ; undefined
    3198:	10000000 	adr	x0, 3198 <.debug_info+0x3198>
    319c:	00000000 	.inst	0x00000000 ; undefined
    31a0:	96000000 	bl	fffffffff80031a0 <blk_mq_init_sched+0xfffffffff8002248>
    31a4:	0031cd5c 	.inst	0x0031cd5c ; NYI
    31a8:	4f213400 	srsra	v0.4s, v0.4s, #31
    31ac:	174b0000 	b	fffffffffd2c31ac <blk_mq_init_sched+0xfffffffffd2c2254>
    31b0:	0100004f 	.inst	0x0100004f ; undefined
    31b4:	00004150 	.inst	0x00004150 ; undefined
    31b8:	00000000 	.inst	0x00000000 ; undefined
    31bc:	00100000 	.inst	0x00100000 ; undefined
    31c0:	00000000 	.inst	0x00000000 ; undefined
    31c4:	2b380000 	adds	w0, w0, w24, uxtb
    31c8:	0000004f 	.inst	0x0000004f ; undefined
    31cc:	50334300 	adr	x0, 69a2e <blk_mq_init_sched+0x68ad6>
	...
    31d8:	00080000 	.inst	0x00080000 ; undefined
    31dc:	00000000 	.inst	0x00000000 ; undefined
    31e0:	5c960000 	ldr	d0, fffffffffff2f1e0 <blk_mq_init_sched+0xfffffffffff2e288>
    31e4:	00504c34 	.inst	0x00504c34 ; undefined
    31e8:	50433400 	adr	x0, 8986a <blk_mq_init_sched+0x88912>
    31ec:	00410000 	.inst	0x00410000 ; undefined
    31f0:	00000000 	.inst	0x00000000 ; undefined
    31f4:	08000000 	stxrb	w0, w0, [x0]
    31f8:	00000000 	.inst	0x00000000 ; undefined
    31fc:	42000000 	.inst	0x42000000 ; undefined
    3200:	00005055 	.inst	0x00005055 ; undefined
    3204:	60385001 	.inst	0x60385001 ; undefined
    3208:	00000050 	.inst	0x00000050 ; undefined
	...
    3214:	004b5835 	.inst	0x004b5835 ; undefined
	...
    3220:	00000400 	.inst	0x00000400 ; undefined
    3224:	00000000 	.inst	0x00000000 ; undefined
    3228:	01fb0100 	.inst	0x01fb0100 ; undefined
    322c:	004b6934 	.inst	0x004b6934 ; undefined
    3230:	0a000000 	and	w0, w0, w0
    3234:	00275608 	.inst	0x00275608 ; NYI
    3238:	00002900 	.inst	0x00002900 ; undefined
    323c:	ad010000 	stp	q0, q0, [x0, #32]
    3240:	00000001 	.inst	0x00000001 ; undefined
    3244:	00000000 	.inst	0x00000000 ; undefined
    3248:	00012400 	.inst	0x00012400 ; undefined
    324c:	00000000 	.inst	0x00000000 ; undefined
    3250:	fc9c0100 	.inst	0xfc9c0100 ; undefined
    3254:	2a000033 	orr	w19, w1, w0
    3258:	01007172 	.inst	0x01007172 ; undefined
    325c:	24a401ad 	cmphs	p13.s, p0/z, z13.s, #16
    3260:	63010000 	.inst	0x63010000 ; undefined
    3264:	0000003c 	.inst	0x0000003c ; undefined
    3268:	01ad0100 	.inst	0x01ad0100 ; undefined
    326c:	00000130 	.inst	0x00000130 ; undefined
    3270:	003c5101 	.inst	0x003c5101 ; NYI
    3274:	01000000 	.inst	0x01000000 ; undefined
    3278:	013001ae 	.inst	0x013001ae ; undefined
    327c:	65010000 	.inst	0x65010000 ; undefined
    3280:	0000003c 	.inst	0x0000003c ; undefined
    3284:	01ae0100 	.inst	0x01ae0100 ; undefined
    3288:	00000130 	.inst	0x00000130 ; undefined
    328c:	712f6701 	subs	w1, w24, #0xbd9
    3290:	01b00100 	.inst	0x01b00100 ; undefined
    3294:	000028a5 	.inst	0x000028a5 ; undefined
    3298:	0100652b 	.inst	0x0100652b ; undefined
    329c:	28ab01b1 	stp	w17, w0, [x13], #-168
    32a0:	50010000 	adr	x0, 52a2 <.debug_info+0x52a2>
    32a4:	7874632b 	ldumaxlh	w20, w11, [x25]
    32a8:	01b20100 	.inst	0x01b20100 ; undefined
    32ac:	00003233 	.inst	0x00003233 ; undefined
    32b0:	00286801 	.inst	0x00286801 ; NYI
    32b4:	01000000 	.inst	0x01000000 ; undefined
    32b8:	24ef01b3 	cmphi	p3.d, p0/z, z13.d, #60
    32bc:	66010000 	.inst	0x66010000 ; undefined
    32c0:	6e75723d 	uabdl2	v29.4s, v17.8h, v21.8h
    32c4:	01dd0100 	.inst	0x01dd0100 ; undefined
	...
    32d0:	0000004c 	.inst	0x0000004c ; undefined
    32d4:	00000000 	.inst	0x00000000 ; undefined
    32d8:	00001400 	.inst	0x00001400 ; undefined
    32dc:	00000000 	.inst	0x00000000 ; undefined
    32e0:	0032f200 	.inst	0x0032f200 ; NYI
    32e4:	00002e00 	.inst	0x00002e00 ; undefined
    32e8:	b5010000 	cbnz	x0, 52e8 <.debug_info+0x52e8>
    32ec:	00005f01 	.inst	0x00005f01 ; undefined
    32f0:	004c0000 	.inst	0x004c0000 ; undefined
    32f4:	00000000 	.inst	0x00000000 ; undefined
    32f8:	2c000000 	stnp	s0, s0, [x0]
    32fc:	00000000 	.inst	0x00000000 ; undefined
    3300:	59000000 	.inst	0x59000000 ; undefined
    3304:	28000033 	stnp	w19, w0, [x1]
    3308:	00000000 	.inst	0x00000000 ; undefined
    330c:	8b01d301 	add	x1, x24, x1, lsl #52
    3310:	02000001 	.inst	0x02000001 ; undefined
    3314:	a3366891 	.inst	0xa3366891 ; undefined
    3318:	0000004b 	.inst	0x0000004b ; undefined
	...
    3324:	01000000 	.inst	0x01000000 ; undefined
    3328:	ba3401d5 	.inst	0xba3401d5 ; undefined
    332c:	3400004b 	cbz	w11, 3334 <.debug_info+0x3334>
    3330:	00004baf 	.inst	0x00004baf ; undefined
    3334:	004bc63e 	.inst	0x004bc63e ; undefined
	...
    3344:	34560500 	cbz	w0, af3e4 <blk_mq_init_sched+0xae48c>
    3348:	00004be8 	.inst	0x00004be8 ; undefined
    334c:	004bdd34 	.inst	0x004bdd34 ; undefined
    3350:	4bd23400 	.inst	0x4bd23400 ; undefined
    3354:	00000000 	.inst	0x00000000 ; undefined
    3358:	33fc4900 	.inst	0x33fc4900 ; undefined
	...
    3364:	00180000 	.inst	0x00180000 ; undefined
    3368:	00000000 	.inst	0x00000000 ; undefined
    336c:	b7010000 	tbnz	x0, #32, 536c <.debug_info+0x536c>
    3370:	0033bb01 	.inst	0x0033bb01 ; NYI
    3374:	340d3400 	cbz	w0, 1d9f4 <blk_mq_init_sched+0x1ca9c>
    3378:	19340000 	.inst	0x19340000 ; undefined
    337c:	35000034 	cbnz	w20, 3380 <.debug_info+0x3380>
    3380:	0000468a 	.inst	0x0000468a ; undefined
	...
    338c:	00000008 	.inst	0x00000008 ; undefined
    3390:	00000000 	.inst	0x00000000 ; undefined
    3394:	3401a701 	cbz	w1, 6874 <blk_mq_init_sched+0x591c>
    3398:	0000469a 	.inst	0x0000469a ; undefined
    339c:	0046a543 	.inst	0x0046a543 ; undefined
	...
    33a8:	00000400 	.inst	0x00000400 ; undefined
    33ac:	00000000 	.inst	0x00000000 ; undefined
    33b0:	34cb0300 	cbz	w0, fffffffffff99410 <blk_mq_init_sched+0xfffffffffff984b8>
    33b4:	000046b5 	.inst	0x000046b5 ; undefined
    33b8:	49000000 	.inst	0x49000000 ; undefined
    33bc:	00004918 	.inst	0x00004918 ; undefined
	...
    33c8:	0000000c 	.inst	0x0000000c ; undefined
    33cc:	00000000 	.inst	0x00000000 ; undefined
    33d0:	dd01d801 	.inst	0xdd01d801 ; undefined
    33d4:	34000033 	cbz	w19, 33d8 <.debug_info+0x33d8>
    33d8:	00004925 	.inst	0x00004925 ; undefined
    33dc:	48e43500 	.inst	0x48e43500 ; undefined
	...
    33e8:	000c0000 	.inst	0x000c0000 ; undefined
    33ec:	00000000 	.inst	0x00000000 ; undefined
    33f0:	da010000 	sbc	x0, x0, x1
    33f4:	48f13401 	.inst	0x48f13401 ; undefined
    33f8:	00000000 	.inst	0x00000000 ; undefined
    33fc:	00000039 	.inst	0x00000039 ; undefined
    3400:	01990100 	.inst	0x01990100 ; undefined
    3404:	00000130 	.inst	0x00000130 ; undefined
    3408:	00342501 	.inst	0x00342501 ; NYI
    340c:	00003a00 	.inst	0x00003a00 ; undefined
    3410:	99010000 	.inst	0x99010000 ; undefined
    3414:	0024ef01 	.inst	0x0024ef01 ; NYI
    3418:	71722d00 	subs	w0, w8, #0xc8b, lsl #12
    341c:	019a0100 	.inst	0x019a0100 ; undefined
    3420:	000024a4 	.inst	0x000024a4 ; undefined
    3424:	00003000 	.inst	0x00003000 ; undefined
    3428:	92010000 	and	x0, x0, #0x8000000080000000
    342c:	00013001 	.inst	0x00013001 ; undefined
	...
    3438:	00007800 	.inst	0x00007800 ; undefined
    343c:	00000000 	.inst	0x00000000 ; undefined
    3440:	bf9c0100 	.inst	0xbf9c0100 ; undefined
    3444:	2a000034 	orr	w20, w1, w0
    3448:	92010071 	and	x17, x3, #0x8000000080000000
    344c:	0028a501 	.inst	0x0028a501 ; NYI
    3450:	2a500100 	orr	w0, w8, w16, lsr #0
    3454:	01007172 	.inst	0x01007172 ; undefined
    3458:	24a40192 	cmphi	p2.s, p0/z, z12.s, #16
    345c:	56010000 	.inst	0x56010000 ; undefined
    3460:	0000003c 	.inst	0x0000003c ; undefined
    3464:	01930100 	.inst	0x01930100 ; undefined
    3468:	00001501 	.inst	0x00001501 ; undefined
    346c:	24365201 	cmphs	p1.b, p4/z, z16.b, #89
    3470:	00000045 	.inst	0x00000045 ; undefined
	...
    347c:	01000000 	.inst	0x01000000 ; undefined
    3480:	34340195 	cbz	w21, 6b4b0 <blk_mq_init_sched+0x6a558>
    3484:	3e000045 	.inst	0x3e000045 ; undefined
    3488:	0000468a 	.inst	0x0000468a ; undefined
	...
    3498:	9a346302 	.inst	0x9a346302 ; undefined
    349c:	43000046 	.inst	0x43000046 ; undefined
    34a0:	000046a5 	.inst	0x000046a5 ; undefined
	...
    34ac:	00000004 	.inst	0x00000004 ; undefined
    34b0:	00000000 	.inst	0x00000000 ; undefined
    34b4:	b534cb03 	cbnz	x3, 6ce14 <blk_mq_init_sched+0x6bebc>
    34b8:	00000046 	.inst	0x00000046 ; undefined
    34bc:	30000000 	adr	x0, 34bd <.debug_info+0x34bd>
    34c0:	00000000 	.inst	0x00000000 ; undefined
    34c4:	30016e01 	adr	x1, 6285 <blk_mq_init_sched+0x532d>
    34c8:	00000001 	.inst	0x00000001 ; undefined
    34cc:	00000000 	.inst	0x00000000 ; undefined
    34d0:	78000000 	sturh	w0, [x0]
    34d4:	00000001 	.inst	0x00000001 ; undefined
    34d8:	01000000 	.inst	0x01000000 ; undefined
    34dc:	00368f9c 	.inst	0x00368f9c ; NYI
    34e0:	00712a00 	.inst	0x00712a00 ; undefined
    34e4:	a5016e01 	ldff1sh	{z1.d}, p3/z, [x16, x1, lsl #1]
    34e8:	01000028 	.inst	0x01000028 ; undefined
    34ec:	69622a64 	ldpsw	x4, x10, [x19, #-240]
    34f0:	6e01006f 	ext	v15.16b, v3.16b, v1.16b, #0
    34f4:	0017ee01 	.inst	0x0017ee01 ; undefined
    34f8:	3c660100 	.inst	0x3c660100 ; undefined
    34fc:	00000000 	.inst	0x00000000 ; undefined
    3500:	76016f01 	.inst	0x76016f01 ; undefined
    3504:	01000000 	.inst	0x01000000 ; undefined
    3508:	00652b67 	.inst	0x00652b67 ; undefined
    350c:	ab017101 	adds	x1, x8, x1, lsl #28
    3510:	01000028 	.inst	0x01000028 ; undefined
    3514:	74632f54 	.inst	0x74632f54 ; undefined
    3518:	72010078 	ands	w24, w3, #0x80000000
    351c:	00323301 	.inst	0x00323301 ; NYI
    3520:	00002e00 	.inst	0x00002e00 ; undefined
    3524:	73010000 	.inst	0x73010000 ; undefined
    3528:	0024ef01 	.inst	0x0024ef01 ; NYI
    352c:	65722b00 	fmls	z0.h, p2/m, z24.h, z18.h
    3530:	74010074 	.inst	0x74010074 ; undefined
    3534:	00013001 	.inst	0x00013001 ; undefined
    3538:	2e640100 	uaddl	v0.4s, v8.4h, v4.4h
    353c:	00000000 	.inst	0x00000000 ; undefined
    3540:	bf017501 	.inst	0xbf017501 ; undefined
    3544:	33000024 	bfxil	w4, w1, #0, #1
    3548:	000045d4 	.inst	0x000045d4 ; undefined
	...
    3558:	d4017a01 	svc	#0xbd0
    355c:	34000035 	cbz	w21, 3560 <.debug_info+0x3560>
    3560:	000045e4 	.inst	0x000045e4 ; undefined
    3564:	0045fe4d 	.inst	0x0045fe4d ; undefined
    3568:	00000000 	.inst	0x00000000 ; undefined
    356c:	0035a600 	.inst	0x0035a600 ; NYI
    3570:	45ff3800 	.inst	0x45ff3800 ; undefined
    3574:	7d430000 	ldr	h0, [x0, #384]
    3578:	00000049 	.inst	0x00000049 ; undefined
    357c:	00000000 	.inst	0x00000000 ; undefined
    3580:	04000000 	add	z0.b, p0/m, z0.b, z0.b
    3584:	00000000 	.inst	0x00000000 ; undefined
    3588:	06000000 	.inst	0x06000000 ; undefined
    358c:	00004192 	.inst	0x00004192 ; undefined
    3590:	00000000 	.inst	0x00000000 ; undefined
    3594:	00040000 	.inst	0x00040000 ; undefined
    3598:	00000000 	.inst	0x00000000 ; undefined
    359c:	8d380000 	.inst	0x8d380000 ; undefined
    35a0:	00000049 	.inst	0x00000049 ; undefined
    35a4:	0c3e0000 	.inst	0x0c3e0000 ; undefined
    35a8:	00000046 	.inst	0x00000046 ; undefined
	...
    35b4:	06000000 	.inst	0x06000000 ; undefined
    35b8:	461c3492 	.inst	0x461c3492 ; undefined
    35bc:	25340000 	.inst	0x25340000 ; undefined
    35c0:	4e000046 	tbl	v6.16b, {v2.16b}, v0.16b
    35c4:	00004641 	.inst	0x00004641 ; undefined
    35c8:	00000000 	.inst	0x00000000 ; undefined
    35cc:	00464238 	.inst	0x00464238 ; undefined
    35d0:	00000000 	.inst	0x00000000 ; undefined
    35d4:	00464f33 	.inst	0x00464f33 ; undefined
	...
    35e4:	017b0100 	.inst	0x017b0100 ; undefined
    35e8:	00003609 	.inst	0x00003609 ; undefined
    35ec:	00465f34 	.inst	0x00465f34 ; undefined
    35f0:	46733400 	.inst	0x46733400 ; undefined
    35f4:	68340000 	.inst	0x68340000 ; undefined
    35f8:	37000046 	tbnz	w6, #0, 3600 <.debug_info+0x3600>
    35fc:	00000000 	.inst	0x00000000 ; undefined
    3600:	00467e42 	.inst	0x00467e42 ; undefined
    3604:	00500100 	.inst	0x00500100 ; undefined
    3608:	4b033300 	sub	w0, w24, w3, lsl #12
	...
    3618:	7e010000 	.inst	0x7e010000 ; undefined
    361c:	00365201 	.inst	0x00365201 ; NYI
    3620:	4b143400 	sub	w0, w0, w20, lsl #13
    3624:	00370000 	.inst	0x00370000 ; NYI
    3628:	38000000 	sturb	w0, [x0]
    362c:	00004b20 	.inst	0x00004b20 ; undefined
    3630:	004b2c47 	.inst	0x004b2c47 ; undefined
	...
    363c:	00000400 	.inst	0x00000400 ; undefined
    3640:	00000000 	.inst	0x00000000 ; undefined
    3644:	4b2e3800 	.inst	0x4b2e3800 ; undefined
    3648:	3a380000 	.inst	0x3a380000 ; undefined
    364c:	0000004b 	.inst	0x0000004b ; undefined
    3650:	18490000 	ldr	w0, 95650 <blk_mq_init_sched+0x946f8>
    3654:	00000049 	.inst	0x00000049 ; undefined
    3658:	00000000 	.inst	0x00000000 ; undefined
    365c:	08000000 	stxrb	w0, w0, [x0]
    3660:	00000000 	.inst	0x00000000 ; undefined
    3664:	01000000 	.inst	0x01000000 ; undefined
    3668:	36740182 	tbz	w2, #14, ffffffffffffb698 <blk_mq_init_sched+0xffffffffffffa740>
    366c:	25340000 	.inst	0x25340000 ; undefined
    3670:	00000049 	.inst	0x00000049 ; undefined
    3674:	0048e436 	.inst	0x0048e436 ; undefined
	...
    3684:	018d0100 	.inst	0x018d0100 ; undefined
    3688:	0048f134 	.inst	0x0048f134 ; undefined
    368c:	29000000 	stp	w0, w0, [x0]
    3690:	00000000 	.inst	0x00000000 ; undefined
    3694:	00015a01 	.inst	0x00015a01 ; undefined
    3698:	00000000 	.inst	0x00000000 ; undefined
    369c:	78000000 	sturh	w0, [x0]
    36a0:	00000000 	.inst	0x00000000 ; undefined
    36a4:	01000000 	.inst	0x01000000 ; undefined
    36a8:	00372f9c 	.inst	0x00372f9c ; NYI
    36ac:	00003c00 	.inst	0x00003c00 ; undefined
    36b0:	5a010000 	sbc	w0, w0, w1
    36b4:	0024ef01 	.inst	0x0024ef01 ; NYI
    36b8:	2b630100 	.inst	0x2b630100 ; undefined
    36bc:	5c010071 	ldr	d17, 56c8 <blk_mq_init_sched+0x4770>
    36c0:	0028a501 	.inst	0x0028a501 ; NYI
    36c4:	49530100 	.inst	0x49530100 ; undefined
    36c8:	0000459c 	.inst	0x0000459c ; undefined
	...
    36d4:	00000004 	.inst	0x00000004 ; undefined
    36d8:	00000000 	.inst	0x00000000 ; undefined
    36dc:	0b015f01 	add	w1, w24, w1, lsl #23
    36e0:	34000037 	cbz	w23, 36e4 <.debug_info+0x36e4>
    36e4:	000045ac 	.inst	0x000045ac ; undefined
    36e8:	004c5043 	.inst	0x004c5043 ; undefined
	...
    36f4:	00000400 	.inst	0x00000400 ; undefined
    36f8:	00000000 	.inst	0x00000000 ; undefined
    36fc:	34b40600 	cbz	w0, fffffffffff6b7bc <blk_mq_init_sched+0xfffffffffff6a864>
    3700:	00004c6a 	.inst	0x00004c6a ; undefined
    3704:	004c6034 	.inst	0x004c6034 ; undefined
    3708:	35000000 	cbnz	w0, 3708 <.debug_info+0x3708>
    370c:	00004c50 	.inst	0x00004c50 ; undefined
	...
    3718:	00000004 	.inst	0x00000004 ; undefined
    371c:	00000000 	.inst	0x00000000 ; undefined
    3720:	34015f01 	cbz	w1, 6300 <blk_mq_init_sched+0x53a8>
    3724:	00004c6a 	.inst	0x00004c6a ; undefined
    3728:	004c6034 	.inst	0x004c6034 ; undefined
    372c:	4f000000 	.inst	0x4f000000 ; undefined
    3730:	00000000 	.inst	0x00000000 ; undefined
    3734:	5f012601 	.inst	0x5f012601 ; undefined
	...
    3740:	f0000000 	adrp	x0, 6000 <blk_mq_init_sched+0x50a8>
    3744:	00000001 	.inst	0x00000001 ; undefined
    3748:	01000000 	.inst	0x01000000 ; undefined
    374c:	003b5e9c 	.inst	0x003b5e9c ; NYI
    3750:	00003c00 	.inst	0x00003c00 ; undefined
    3754:	26010000 	.inst	0x26010000 ; undefined
    3758:	0024ef01 	.inst	0x0024ef01 ; NYI
    375c:	2f630100 	mla	v0.4h, v8.4h, v3.h[2]
    3760:	28010071 	stnp	w17, w0, [x3, #8]
    3764:	0028a501 	.inst	0x0028a501 ; NYI
    3768:	00002e00 	.inst	0x00002e00 ; undefined
    376c:	29010000 	stp	w0, w0, [x0, #8]
    3770:	00013b01 	.inst	0x00013b01 ; undefined
    3774:	65722b00 	fmls	z0.h, p2/m, z24.h, z18.h
    3778:	2a010074 	orr	w20, w3, w1
    377c:	00005f01 	.inst	0x00005f01 ; undefined
    3780:	28510100 	ldnp	w0, w0, [x8, #136]
    3784:	00000000 	.inst	0x00000000 ; undefined
    3788:	8b012b01 	add	x1, x24, x1, lsl #10
    378c:	02000001 	.inst	0x02000001 ; undefined
    3790:	03336891 	.inst	0x03336891 ; undefined
    3794:	0000004b 	.inst	0x0000004b ; undefined
	...
    37a0:	01000000 	.inst	0x01000000 ; undefined
    37a4:	37db0131 	tbnz	w17, #27, 97c8 <blk_mq_init_sched+0x8870>
    37a8:	14340000 	b	d037a8 <blk_mq_init_sched+0xd02850>
    37ac:	3700004b 	tbnz	w11, #0, 37b4 <.debug_info+0x37b4>
    37b0:	00000000 	.inst	0x00000000 ; undefined
    37b4:	004b2038 	.inst	0x004b2038 ; undefined
    37b8:	4b2c4700 	sub	w0, w24, w12, uxtw #1
	...
    37c4:	00040000 	.inst	0x00040000 ; undefined
    37c8:	00000000 	.inst	0x00000000 ; undefined
    37cc:	2e380000 	uaddl	v0.8h, v0.8b, v24.8b
    37d0:	3800004b 	sturb	w11, [x2]
    37d4:	00004b3a 	.inst	0x00004b3a ; undefined
    37d8:	49000000 	.inst	0x49000000 ; undefined
    37dc:	00004918 	.inst	0x00004918 ; undefined
	...
    37e8:	00000008 	.inst	0x00000008 ; undefined
    37ec:	00000000 	.inst	0x00000000 ; undefined
    37f0:	fd013201 	str	d1, [x16, #608]
    37f4:	34000037 	cbz	w23, 37f8 <.debug_info+0x37f8>
    37f8:	00004925 	.inst	0x00004925 ; undefined
    37fc:	4b584900 	sub	w0, w8, w24, lsr #18
	...
    3808:	00040000 	.inst	0x00040000 ; undefined
    380c:	00000000 	.inst	0x00000000 ; undefined
    3810:	33010000 	bfi	w0, w0, #31, #1
    3814:	00381f01 	.inst	0x00381f01 ; NYI
    3818:	4b693400 	.inst	0x4b693400 ; undefined
    381c:	49000000 	.inst	0x49000000 ; undefined
    3820:	00004a61 	.inst	0x00004a61 ; undefined
	...
    382c:	0000002c 	.inst	0x0000002c ; undefined
    3830:	00000000 	.inst	0x00000000 ; undefined
    3834:	c2013401 	.inst	0xc2013401 ; undefined
    3838:	34000038 	cbz	w24, 383c <.debug_info+0x383c>
    383c:	00004a7a 	.inst	0x00004a7a ; undefined
    3840:	004a6e34 	.inst	0x004a6e34 ; undefined
    3844:	4b584900 	sub	w0, w8, w24, lsr #18
	...
    3850:	00040000 	.inst	0x00040000 ; undefined
    3854:	00000000 	.inst	0x00000000 ; undefined
    3858:	e1050000 	.inst	0xe1050000 ; undefined
    385c:	00386701 	.inst	0x00386701 ; NYI
    3860:	4b693400 	.inst	0x4b693400 ; undefined
    3864:	33000000 	bfxil	w0, w0, #0, #1
    3868:	00004a87 	.inst	0x00004a87 ; undefined
	...
    3878:	a301e205 	.inst	0xa301e205 ; undefined
    387c:	34000038 	cbz	w24, 3880 <.debug_info+0x3880>
    3880:	00004aac 	.inst	0x00004aac ; undefined
    3884:	004aa034 	.inst	0x004aa034 ; undefined
    3888:	4a943400 	eor	w0, w0, w20, asr #13
    388c:	00370000 	.inst	0x00370000 ; NYI
    3890:	42000000 	.inst	0x42000000 ; undefined
    3894:	00004ab8 	.inst	0x00004ab8 ; undefined
    3898:	c4425201 	ld1b	{z1.d}, p4/z, [x16, z2.d, sxtw]
    389c:	0100004a 	.inst	0x0100004a ; undefined
    38a0:	35000051 	cbnz	w17, 38a8 <.debug_info+0x38a8>
    38a4:	00004c2f 	.inst	0x00004c2f ; undefined
	...
    38b0:	00000008 	.inst	0x00000008 ; undefined
    38b4:	00000000 	.inst	0x00000000 ; undefined
    38b8:	3401e305 	cbz	w5, 7518 <blk_mq_init_sched+0x65c0>
    38bc:	00004c3b 	.inst	0x00004c3b ; undefined
    38c0:	e4490000 	.inst	0xe4490000 ; undefined
    38c4:	00000048 	.inst	0x00000048 ; undefined
    38c8:	00000000 	.inst	0x00000000 ; undefined
    38cc:	08000000 	stxrb	w0, w0, [x0]
    38d0:	00000000 	.inst	0x00000000 ; undefined
    38d4:	01000000 	.inst	0x01000000 ; undefined
    38d8:	38e40135 	ldaddalb	w4, w21, [x9]
    38dc:	f1340000 	subs	x0, x0, #0xd00
    38e0:	00000048 	.inst	0x00000048 ; undefined
    38e4:	004b5833 	.inst	0x004b5833 ; undefined
	...
    38f4:	01450100 	.inst	0x01450100 ; undefined
    38f8:	00003902 	.inst	0x00003902 ; undefined
    38fc:	004b6934 	.inst	0x004b6934 ; undefined
    3900:	40330000 	.inst	0x40330000 ; undefined
    3904:	00000044 	.inst	0x00000044 ; undefined
	...
    3910:	01000000 	.inst	0x01000000 ; undefined
    3914:	3aeb0146 	.inst	0x3aeb0146 ; undefined
    3918:	4c340000 	.inst	0x4c340000 ; undefined
    391c:	40000044 	.inst	0x40000044 ; undefined
    3920:	00004c50 	.inst	0x00004c50 ; undefined
	...
    392c:	00000004 	.inst	0x00000004 ; undefined
    3930:	00000000 	.inst	0x00000000 ; undefined
    3934:	39453501 	ldrb	w1, [x8, #333]
    3938:	6a340000 	bics	w0, w0, w20
    393c:	3400004c 	cbz	w12, 3944 <.debug_info+0x3944>
    3940:	00004c60 	.inst	0x00004c60 ; undefined
    3944:	4ca43e00 	.inst	0x4ca43e00 ; undefined
	...
    3954:	38010000 	sturb	w0, [x0, #16]
    3958:	004cb034 	.inst	0x004cb034 ; undefined
    395c:	4cba3400 	.inst	0x4cba3400 ; undefined
    3960:	e63e0000 	.inst	0xe63e0000 ; undefined
    3964:	0000004c 	.inst	0x0000004c ; undefined
	...
    3970:	98000000 	ldrsw	x0, 3970 <.debug_info+0x3970>
    3974:	4cfc341d 	.inst	0x4cfc341d ; undefined
    3978:	f2340000 	ands	x0, x0, #0x100000001000
    397c:	3e00004c 	.inst	0x3e00004c ; undefined
    3980:	00004dc8 	.inst	0x00004dc8 ; undefined
	...
    3990:	df341299 	.inst	0xdf341299 ; undefined
    3994:	3400004d 	cbz	w13, 399c <.debug_info+0x399c>
    3998:	00004dd5 	.inst	0x00004dd5 ; undefined
    399c:	004e9936 	.inst	0x004e9936 ; undefined
	...
    39ac:	01491900 	.inst	0x01491900 ; undefined
    39b0:	004eae34 	.inst	0x004eae34 ; undefined
    39b4:	4ea53400 	cmgt	v0.4s, v0.4s, v5.4s
    39b8:	d7400000 	.inst	0xd7400000 ; undefined
    39bc:	0000004e 	.inst	0x0000004e ; undefined
    39c0:	00000000 	.inst	0x00000000 ; undefined
    39c4:	08000000 	stxrb	w0, w0, [x0]
    39c8:	00000000 	.inst	0x00000000 ; undefined
    39cc:	96000000 	bl	fffffffff80039cc <blk_mq_init_sched+0xfffffffff8002a74>
    39d0:	003a8241 	.inst	0x003a8241 ; NYI
    39d4:	4ee74500 	sshl	v0.2d, v8.2d, v7.2d
	...
    39e0:	00040000 	.inst	0x00040000 ; undefined
    39e4:	00000000 	.inst	0x00000000 ; undefined
    39e8:	3a2d0000 	.inst	0x3a2d0000 ; undefined
    39ec:	ec380000 	.inst	0xec380000 ; undefined
    39f0:	4300004e 	.inst	0x4300004e ; undefined
    39f4:	00004f95 	.inst	0x00004f95 ; undefined
	...
    3a00:	00000004 	.inst	0x00000004 ; undefined
    3a04:	00000000 	.inst	0x00000000 ; undefined
    3a08:	b0341818 	adrp	x24, 68304000 <blk_mq_init_sched+0x683030a8>
    3a0c:	3400004f 	cbz	w15, 3a14 <.debug_info+0x3a14>
    3a10:	00004fa5 	.inst	0x00004fa5 ; undefined
    3a14:	00000041 	.inst	0x00000041 ; undefined
    3a18:	00000000 	.inst	0x00000000 ; undefined
    3a1c:	00000400 	.inst	0x00000400 ; undefined
    3a20:	00000000 	.inst	0x00000000 ; undefined
    3a24:	4fbb4600 	.inst	0x4fbb4600 ; undefined
    3a28:	00000000 	.inst	0x00000000 ; undefined
    3a2c:	4ef84700 	sshl	v0.2d, v24.2d, v24.2d
	...
    3a38:	00040000 	.inst	0x00040000 ; undefined
    3a3c:	00000000 	.inst	0x00000000 ; undefined
    3a40:	f9380000 	str	x0, [x0, #28672]
    3a44:	4300004e 	.inst	0x4300004e ; undefined
    3a48:	00004f95 	.inst	0x00004f95 ; undefined
	...
    3a54:	00000004 	.inst	0x00000004 ; undefined
    3a58:	00000000 	.inst	0x00000000 ; undefined
    3a5c:	b0341918 	adrp	x24, 68324000 <blk_mq_init_sched+0x683230a8>
    3a60:	3400004f 	cbz	w15, 3a68 <.debug_info+0x3a68>
    3a64:	00004fa5 	.inst	0x00004fa5 ; undefined
    3a68:	00000041 	.inst	0x00000041 ; undefined
    3a6c:	00000000 	.inst	0x00000000 ; undefined
    3a70:	00000400 	.inst	0x00000400 ; undefined
    3a74:	00000000 	.inst	0x00000000 ; undefined
    3a78:	4fbb4600 	.inst	0x4fbb4600 ; undefined
    3a7c:	00000000 	.inst	0x00000000 ; undefined
    3a80:	57400000 	.inst	0x57400000 ; undefined
    3a84:	0000004f 	.inst	0x0000004f ; undefined
    3a88:	00000000 	.inst	0x00000000 ; undefined
    3a8c:	08000000 	stxrb	w0, w0, [x0]
    3a90:	00000000 	.inst	0x00000000 ; undefined
    3a94:	96000000 	bl	fffffffff8003a94 <blk_mq_init_sched+0xfffffffff8002b3c>
    3a98:	003aa841 	.inst	0x003aa841 ; NYI
    3a9c:	4f6c3400 	srsra	v0.2d, v0.2d, #20
    3aa0:	63340000 	.inst	0x63340000 ; undefined
    3aa4:	0000004f 	.inst	0x0000004f ; undefined
    3aa8:	004ffe43 	.inst	0x004ffe43 ; undefined
	...
    3ab4:	00000800 	.inst	0x00000800 ; undefined
    3ab8:	00000000 	.inst	0x00000000 ; undefined
    3abc:	34419600 	cbz	w0, 86d7c <blk_mq_init_sched+0x85e24>
    3ac0:	00005013 	.inst	0x00005013 ; undefined
    3ac4:	00500a34 	.inst	0x00500a34 ; undefined
    3ac8:	00004100 	.inst	0x00004100 ; undefined
    3acc:	00000000 	.inst	0x00000000 ; undefined
    3ad0:	00080000 	.inst	0x00080000 ; undefined
    3ad4:	00000000 	.inst	0x00000000 ; undefined
    3ad8:	1c380000 	ldr	s0, 73ad8 <blk_mq_init_sched+0x72b80>
    3adc:	38000050 	sturb	w16, [x2]
    3ae0:	00005027 	.inst	0x00005027 ; undefined
    3ae4:	00000000 	.inst	0x00000000 ; undefined
    3ae8:	49000000 	.inst	0x49000000 ; undefined
    3aec:	00003d7e 	.inst	0x00003d7e ; undefined
	...
    3af8:	00000014 	.inst	0x00000014 ; undefined
    3afc:	00000000 	.inst	0x00000000 ; undefined
    3b00:	26014901 	.inst	0x26014901 ; undefined
    3b04:	3400003b 	cbz	w27, 3b08 <.debug_info+0x3b08>
    3b08:	00003d8e 	.inst	0x00003d8e ; undefined
    3b0c:	00000041 	.inst	0x00000041 ; undefined
    3b10:	00000000 	.inst	0x00000000 ; undefined
    3b14:	00001400 	.inst	0x00001400 ; undefined
    3b18:	00000000 	.inst	0x00000000 ; undefined
    3b1c:	3d994200 	str	q0, [x16, #25856]
    3b20:	51010000 	sub	w0, w0, #0x40
    3b24:	7e350000 	.inst	0x7e350000 ; undefined
    3b28:	0000003d 	.inst	0x0000003d ; undefined
    3b2c:	00000000 	.inst	0x00000000 ; undefined
    3b30:	18000000 	ldr	w0, 3b30 <.debug_info+0x3b30>
    3b34:	00000000 	.inst	0x00000000 ; undefined
    3b38:	01000000 	.inst	0x01000000 ; undefined
    3b3c:	8e34014e 	.inst	0x8e34014e ; undefined
    3b40:	4100003d 	.inst	0x4100003d ; undefined
	...
    3b4c:	00000018 	.inst	0x00000018 ; undefined
    3b50:	00000000 	.inst	0x00000000 ; undefined
    3b54:	003d9942 	.inst	0x003d9942 ; NYI
    3b58:	00510100 	.inst	0x00510100 ; undefined
    3b5c:	00500000 	.inst	0x00500000 ; undefined
    3b60:	01000000 	.inst	0x01000000 ; undefined
    3b64:	00005fef 	.inst	0x00005fef ; undefined
	...
    3b70:	0001b400 	.inst	0x0001b400 ; undefined
    3b74:	00000000 	.inst	0x00000000 ; undefined
    3b78:	4c9c0100 	st4	{v0.16b-v3.16b}, [x8], x28
    3b7c:	5100003d 	sub	w29, w1, #0x0
    3b80:	00000000 	.inst	0x00000000 ; undefined
    3b84:	24efef01 	cmplo	p1.d, p3/z, z24.d, #63
    3b88:	63010000 	.inst	0x63010000 ; undefined
    3b8c:	01007152 	.inst	0x01007152 ; undefined
    3b90:	0028a5f1 	.inst	0x0028a5f1 ; NYI
    3b94:	27660100 	.inst	0x27660100 ; undefined
    3b98:	00000000 	.inst	0x00000000 ; undefined
    3b9c:	018bf201 	.inst	0x018bf201 ; undefined
    3ba0:	91020000 	add	x0, x0, #0x80
    3ba4:	74635268 	.inst	0x74635268 ; undefined
    3ba8:	f3010078 	.inst	0xf3010078 ; undefined
    3bac:	00003233 	.inst	0x00003233 ; undefined
    3bb0:	72526b01 	.inst	0x72526b01 ; undefined
    3bb4:	01007465 	.inst	0x01007465 ; undefined
    3bb8:	00005ff4 	.inst	0x00005ff4 ; undefined
    3bbc:	52500100 	.inst	0x52500100 ; undefined
    3bc0:	01007172 	.inst	0x01007172 ; undefined
    3bc4:	0024a4f5 	.inst	0x0024a4f5 ; NYI
    3bc8:	53690100 	.inst	0x53690100 ; undefined
    3bcc:	00003bd8 	.inst	0x00003bd8 ; undefined
    3bd0:	00000054 	.inst	0x00000054 ; undefined
    3bd4:	00f30100 	.inst	0x00f30100 ; undefined
    3bd8:	00000032 	.inst	0x00000032 ; undefined
    3bdc:	003d4100 	.inst	0x003d4100 ; NYI
    3be0:	00005500 	.inst	0x00005500 ; undefined
    3be4:	f8010000 	stur	x0, [x0, #16]
    3be8:	0000005f 	.inst	0x0000005f ; undefined
    3bec:	00456133 	.inst	0x00456133 ; undefined
	...
    3bfc:	01020100 	.inst	0x01020100 ; undefined
    3c00:	00003c0a 	.inst	0x00003c0a ; undefined
    3c04:	00457134 	.inst	0x00457134 ; undefined
    3c08:	3f490000 	.inst	0x3f490000 ; undefined
    3c0c:	00000045 	.inst	0x00000045 ; undefined
    3c10:	00000000 	.inst	0x00000000 ; undefined
    3c14:	1c000000 	ldr	s0, 3c14 <.debug_info+0x3c14>
    3c18:	00000000 	.inst	0x00000000 ; undefined
    3c1c:	01000000 	.inst	0x01000000 ; undefined
    3c20:	3c510114 	ldur	b20, [x8, #-240]
    3c24:	55340000 	.inst	0x55340000 ; undefined
    3c28:	34000045 	cbz	w5, 3c30 <.debug_info+0x3c30>
    3c2c:	0000454b 	.inst	0x0000454b ; undefined
    3c30:	00453f47 	.inst	0x00453f47 ; undefined
	...
    3c3c:	00001c00 	.inst	0x00001c00 ; undefined
    3c40:	00000000 	.inst	0x00000000 ; undefined
    3c44:	45553400 	.inst	0x45553400 ; undefined
    3c48:	4b340000 	sub	w0, w0, w20, uxtb
    3c4c:	00000045 	.inst	0x00000045 ; undefined
    3c50:	4ba33300 	.inst	0x4ba33300 ; undefined
	...
    3c60:	1b010000 	madd	w0, w0, w1, w0
    3c64:	003c9701 	.inst	0x003c9701 ; NYI
    3c68:	4bba3400 	.inst	0x4bba3400 ; undefined
    3c6c:	af340000 	.inst	0xaf340000 ; undefined
    3c70:	3e00004b 	.inst	0x3e00004b ; undefined
    3c74:	00004bc6 	.inst	0x00004bc6 ; undefined
	...
    3c84:	e8345605 	.inst	0xe8345605 ; undefined
    3c88:	3400004b 	cbz	w11, 3c90 <.debug_info+0x3c90>
    3c8c:	00004bdd 	.inst	0x00004bdd ; undefined
    3c90:	004bd234 	.inst	0x004bd234 ; undefined
    3c94:	33000000 	bfxil	w0, w0, #0, #1
    3c98:	00003d4c 	.inst	0x00003d4c ; undefined
	...
    3ca8:	c5011e01 	ld1sw	{z1.d}, p7/z, [x16, z1.d, uxtw]
    3cac:	3400003c 	cbz	w28, 3cb0 <.debug_info+0x3cb0>
    3cb0:	00003d67 	.inst	0x00003d67 ; undefined
    3cb4:	003d5c34 	.inst	0x003d5c34 ; NYI
    3cb8:	00003700 	.inst	0x00003700 ; undefined
    3cbc:	72380000 	ands	w0, w0, #0x100
    3cc0:	0000003d 	.inst	0x0000003d ; undefined
    3cc4:	4b034000 	sub	w0, w0, w3, lsl #16
	...
    3cd0:	00180000 	.inst	0x00180000 ; undefined
    3cd4:	00000000 	.inst	0x00000000 ; undefined
    3cd8:	fa010000 	sbcs	x0, x0, x1
    3cdc:	00003d1d 	.inst	0x00003d1d ; undefined
    3ce0:	004b1434 	.inst	0x004b1434 ; undefined
    3ce4:	00004100 	.inst	0x00004100 ; undefined
    3ce8:	00000000 	.inst	0x00000000 ; undefined
    3cec:	00180000 	.inst	0x00180000 ; undefined
    3cf0:	00000000 	.inst	0x00000000 ; undefined
    3cf4:	20380000 	.inst	0x20380000 ; undefined
    3cf8:	4700004b 	.inst	0x4700004b ; undefined
    3cfc:	00004b2c 	.inst	0x00004b2c ; undefined
	...
    3d08:	00000004 	.inst	0x00000004 ; undefined
    3d0c:	00000000 	.inst	0x00000000 ; undefined
    3d10:	004b2e38 	.inst	0x004b2e38 ; undefined
    3d14:	4b3a3800 	.inst	0x4b3a3800 ; undefined
    3d18:	00000000 	.inst	0x00000000 ; undefined
    3d1c:	457b3500 	.inst	0x457b3500 ; undefined
	...
    3d28:	00180000 	.inst	0x00180000 ; undefined
    3d2c:	00000000 	.inst	0x00000000 ; undefined
    3d30:	08010000 	stxrb	w1, w0, [x0]
    3d34:	45903401 	.inst	0x45903401 ; undefined
    3d38:	87340000 	.inst	0x87340000 ; undefined
    3d3c:	00000045 	.inst	0x00000045 ; undefined
    3d40:	00575600 	.inst	0x00575600 ; undefined
    3d44:	01000000 	.inst	0x01000000 ; undefined
    3d48:	00000122 	.inst	0x00000122 ; undefined
    3d4c:	00000058 	.inst	0x00000058 ; undefined
    3d50:	33dc0100 	.inst	0x33dc0100 ; undefined
    3d54:	01000032 	.inst	0x01000032 ; undefined
    3d58:	00003d7e 	.inst	0x00003d7e ; undefined
    3d5c:	00000059 	.inst	0x00000059 ; undefined
    3d60:	efdc0100 	.inst	0xefdc0100 ; undefined
    3d64:	5a000024 	sbc	w4, w1, w0
    3d68:	00787463 	.inst	0x00787463 ; undefined
    3d6c:	3233dd01 	.inst	0x3233dd01 ; undefined
    3d70:	695b0000 	.inst	0x695b0000 ; undefined
    3d74:	01007864 	.inst	0x01007864 ; undefined
    3d78:	000058df 	.inst	0x000058df ; undefined
    3d7c:	00580000 	.inst	0x00580000 ; undefined
    3d80:	01000000 	.inst	0x01000000 ; undefined
    3d84:	00005fd1 	.inst	0x00005fd1 ; undefined
    3d88:	3da50100 	str	q0, [x8, #37888]
    3d8c:	00590000 	.inst	0x00590000 ; undefined
    3d90:	01000000 	.inst	0x01000000 ; undefined
    3d94:	0024efd1 	.inst	0x0024efd1 ; NYI
    3d98:	65725b00 	fnmla	z0.h, p6/m, z24.h, z18.h
    3d9c:	d3010074 	.inst	0xd3010074 ; undefined
    3da0:	0000005f 	.inst	0x0000005f ; undefined
    3da4:	00005000 	.inst	0x00005000 ; undefined
    3da8:	76010000 	.inst	0x76010000 ; undefined
    3dac:	0000005f 	.inst	0x0000005f ; undefined
	...
    3db8:	000002cc 	.inst	0x000002cc ; undefined
    3dbc:	00000000 	.inst	0x00000000 ; undefined
    3dc0:	41279c01 	.inst	0x41279c01 ; undefined
    3dc4:	00510000 	.inst	0x00510000 ; undefined
    3dc8:	01000000 	.inst	0x01000000 ; undefined
    3dcc:	0024ef76 	.inst	0x0024ef76 ; NYI
    3dd0:	52630100 	.inst	0x52630100 ; undefined
    3dd4:	78010071 	sturh	w17, [x3, #16]
    3dd8:	000028a5 	.inst	0x000028a5 ; undefined
    3ddc:	65526901 	fcmeq	p1.h, p2/z, z8.h, z18.h
    3de0:	ab790100 	.inst	0xab790100 ; undefined
    3de4:	01000028 	.inst	0x01000028 ; undefined
    3de8:	00002767 	.inst	0x00002767 ; undefined
    3dec:	7a010000 	sbcs	w0, w0, w1
    3df0:	00000130 	.inst	0x00000130 ; undefined
    3df4:	00556801 	.inst	0x00556801 ; undefined
    3df8:	01000000 	.inst	0x01000000 ; undefined
    3dfc:	0001307a 	.inst	0x0001307a ; undefined
    3e00:	00002700 	.inst	0x00002700 ; undefined
    3e04:	7b010000 	.inst	0x7b010000 ; undefined
    3e08:	00000130 	.inst	0x00000130 ; undefined
    3e0c:	00276401 	.inst	0x00276401 ; NYI
    3e10:	01000000 	.inst	0x01000000 ; undefined
    3e14:	0001307b 	.inst	0x0001307b ; undefined
    3e18:	27660100 	.inst	0x27660100 ; undefined
    3e1c:	00000000 	.inst	0x00000000 ; undefined
    3e20:	00767c01 	.inst	0x00767c01 ; undefined
    3e24:	6a010000 	ands	w0, w0, w1
    3e28:	00000027 	.inst	0x00000027 ; undefined
    3e2c:	8b7d0100 	.inst	0x8b7d0100 ; undefined
    3e30:	02000001 	.inst	0x02000001 ; undefined
    3e34:	00275891 	.inst	0x00275891 ; NYI
    3e38:	01000000 	.inst	0x01000000 ; undefined
    3e3c:	00005f7e 	.inst	0x00005f7e ; undefined
    3e40:	32640100 	.inst	0x32640100 ; undefined
    3e44:	00000000 	.inst	0x00000000 ; undefined
    3e48:	00003f86 	.inst	0x00003f86 ; undefined
    3e4c:	00717252 	.inst	0x00717252 ; undefined
    3e50:	24a48601 	cmphs	p1.s, p1/z, z16.s, #18
    3e54:	52010000 	eor	w0, w0, #0x80000000
    3e58:	00000055 	.inst	0x00000055 ; undefined
    3e5c:	5f870100 	.inst	0x5f870100 ; undefined
    3e60:	40000000 	.inst	0x40000000 ; undefined
    3e64:	00004b03 	.inst	0x00004b03 ; undefined
	...
    3e70:	00000018 	.inst	0x00000018 ; undefined
    3e74:	00000000 	.inst	0x00000000 ; undefined
    3e78:	3ebb8c01 	.inst	0x3ebb8c01 ; undefined
    3e7c:	14340000 	b	d03e7c <blk_mq_init_sched+0xd02f24>
    3e80:	4100004b 	.inst	0x4100004b ; undefined
	...
    3e8c:	00000018 	.inst	0x00000018 ; undefined
    3e90:	00000000 	.inst	0x00000000 ; undefined
    3e94:	004b2038 	.inst	0x004b2038 ; undefined
    3e98:	4b2c4700 	sub	w0, w24, w12, uxtw #1
	...
    3ea4:	00040000 	.inst	0x00040000 ; undefined
    3ea8:	00000000 	.inst	0x00000000 ; undefined
    3eac:	2e380000 	uaddl	v0.8h, v0.8b, v24.8b
    3eb0:	3800004b 	sturb	w11, [x2]
    3eb4:	00004b3a 	.inst	0x00004b3a ; undefined
    3eb8:	44000000 	.inst	0x44000000 ; undefined
    3ebc:	00004561 	.inst	0x00004561 ; undefined
	...
    3ecc:	3ed89101 	.inst	0x3ed89101 ; undefined
    3ed0:	71340000 	subs	w0, w0, #0xd00
    3ed4:	00000045 	.inst	0x00000045 ; undefined
    3ed8:	00457b40 	.inst	0x00457b40 ; undefined
	...
    3ee4:	00001800 	.inst	0x00001800 ; undefined
    3ee8:	00000000 	.inst	0x00000000 ; undefined
    3eec:	fe970100 	.inst	0xfe970100 ; undefined
    3ef0:	3400003e 	cbz	w30, 3ef4 <.debug_info+0x3ef4>
    3ef4:	00004590 	.inst	0x00004590 ; undefined
    3ef8:	00458734 	.inst	0x00458734 ; undefined
    3efc:	3f400000 	.inst	0x3f400000 ; undefined
    3f00:	00000045 	.inst	0x00000045 ; undefined
    3f04:	00000000 	.inst	0x00000000 ; undefined
    3f08:	20000000 	.inst	0x20000000 ; undefined
    3f0c:	00000000 	.inst	0x00000000 ; undefined
    3f10:	01000000 	.inst	0x01000000 ; undefined
    3f14:	003f44a3 	.inst	0x003f44a3 ; NYI
    3f18:	45553400 	.inst	0x45553400 ; undefined
    3f1c:	4b340000 	sub	w0, w0, w20, uxtb
    3f20:	47000045 	.inst	0x47000045 ; undefined
    3f24:	0000453f 	.inst	0x0000453f ; undefined
	...
    3f30:	00000020 	.inst	0x00000020 ; undefined
    3f34:	00000000 	.inst	0x00000000 ; undefined
    3f38:	00455534 	.inst	0x00455534 ; undefined
    3f3c:	454b3400 	.inst	0x454b3400 ; undefined
    3f40:	00000000 	.inst	0x00000000 ; undefined
    3f44:	004b803e 	.inst	0x004b803e ; undefined
	...
    3f54:	34aa0100 	cbz	w0, fffffffffff57f74 <blk_mq_init_sched+0xfffffffffff5701c>
    3f58:	00004b97 	.inst	0x00004b97 ; undefined
    3f5c:	004b8c34 	.inst	0x004b8c34 ; undefined
    3f60:	4bc63e00 	.inst	0x4bc63e00 ; undefined
	...
    3f70:	64050000 	.inst	0x64050000 ; undefined
    3f74:	004be834 	.inst	0x004be834 ; undefined
    3f78:	4bdd3400 	.inst	0x4bdd3400 ; undefined
    3f7c:	d2340000 	eor	x0, x0, #0x100000001000
    3f80:	0000004b 	.inst	0x0000004b ; undefined
    3f84:	27440000 	.inst	0x27440000 ; undefined
    3f88:	00000041 	.inst	0x00000041 ; undefined
	...
    3f94:	01000000 	.inst	0x01000000 ; undefined
    3f98:	004109c6 	.inst	0x004109c6 ; undefined
    3f9c:	41373400 	.inst	0x41373400 ; undefined
    3fa0:	00370000 	.inst	0x00370000 ; NYI
    3fa4:	42000000 	.inst	0x42000000 ; undefined
    3fa8:	00004142 	.inst	0x00004142 ; undefined
    3fac:	4d425001 	.inst	0x4d425001 ; undefined
    3fb0:	01000041 	.inst	0x01000041 ; undefined
    3fb4:	41574254 	.inst	0x41574254 ; undefined
    3fb8:	91020000 	add	x0, x0, #0x80
    3fbc:	41624268 	.inst	0x41624268 ; undefined
    3fc0:	52010000 	eor	w0, w0, #0x80000000
    3fc4:	00416d5c 	.inst	0x00416d5c ; undefined
	...
    3fd0:	41744500 	.inst	0x41744500 ; undefined
	...
    3fdc:	00040000 	.inst	0x00040000 ; undefined
    3fe0:	00000000 	.inst	0x00000000 ; undefined
    3fe4:	3ff20000 	.inst	0x3ff20000 ; undefined
    3fe8:	79420000 	ldrh	w0, [x0, #256]
    3fec:	01000041 	.inst	0x01000041 ; undefined
    3ff0:	8e450055 	.inst	0x8e450055 ; undefined
    3ff4:	00000041 	.inst	0x00000041 ; undefined
    3ff8:	00000000 	.inst	0x00000000 ; undefined
    3ffc:	04000000 	add	z0.b, p0/m, z0.b, z0.b
    4000:	00000000 	.inst	0x00000000 ; undefined
    4004:	11000000 	add	w0, w0, #0x0
    4008:	38000040 	sturb	w0, [x2]
    400c:	00004193 	.inst	0x00004193 ; undefined
    4010:	41a84d00 	.inst	0x41a84d00 ; undefined
    4014:	00000000 	.inst	0x00000000 ; undefined
    4018:	40260000 	.inst	0x40260000 ; undefined
    401c:	a9420000 	ldp	x0, x0, [x0, #32]
    4020:	01000041 	.inst	0x01000041 ; undefined
    4024:	3b400051 	.inst	0x3b400051 ; undefined
    4028:	0000004a 	.inst	0x0000004a ; undefined
    402c:	00000000 	.inst	0x00000000 ; undefined
    4030:	28000000 	stnp	w0, w0, [x0]
    4034:	00000000 	.inst	0x00000000 ; undefined
    4038:	01000000 	.inst	0x01000000 ; undefined
    403c:	0040c666 	.inst	0x0040c666 ; undefined
    4040:	4a543400 	eor	w0, w0, w20, lsr #13
    4044:	48340000 	.inst	0x48340000 ; undefined
    4048:	4900004a 	.inst	0x4900004a ; undefined
    404c:	00004b58 	.inst	0x00004b58 ; undefined
	...
    4058:	00000004 	.inst	0x00000004 ; undefined
    405c:	00000000 	.inst	0x00000000 ; undefined
    4060:	6d01f205 	stp	d5, d28, [x16, #24]
    4064:	34000040 	cbz	w0, 406c <.debug_info+0x406c>
    4068:	00004b69 	.inst	0x00004b69 ; undefined
    406c:	4a873300 	eor	w0, w24, w7, asr #12
	...
    407c:	f3050000 	.inst	0xf3050000 ; undefined
    4080:	0040a701 	.inst	0x0040a701 ; undefined
    4084:	4aac3400 	eon	w0, w0, w12, asr #13
    4088:	a0340000 	.inst	0xa0340000 ; undefined
    408c:	3400004a 	cbz	w10, 4094 <.debug_info+0x4094>
    4090:	00004a94 	.inst	0x00004a94 ; undefined
    4094:	00000037 	.inst	0x00000037 ; undefined
    4098:	4ab83800 	eon	w0, w0, w24, asr #14
    409c:	c4420000 	ld1sb	{z0.d}, p0/z, [x0, z2.d, sxtw]
    40a0:	0100004a 	.inst	0x0100004a ; undefined
    40a4:	35000051 	cbnz	w17, 40ac <.debug_info+0x40ac>
    40a8:	00004c2f 	.inst	0x00004c2f ; undefined
	...
    40b4:	00000008 	.inst	0x00000008 ; undefined
    40b8:	00000000 	.inst	0x00000000 ; undefined
    40bc:	3401f405 	cbz	w5, 7f3c <blk_mq_init_sched+0x6fe4>
    40c0:	00004c3b 	.inst	0x00004c3b ; undefined
    40c4:	d13e0000 	sub	x0, x0, #0xf80
    40c8:	0000004a 	.inst	0x0000004a ; undefined
	...
    40d4:	01000000 	.inst	0x01000000 ; undefined
    40d8:	4af63461 	eon	w1, w3, w22, ror #13
    40dc:	ea340000 	bics	x0, x0, x20
    40e0:	3400004a 	cbz	w10, 40e8 <.debug_info+0x40e8>
    40e4:	00004ade 	.inst	0x00004ade ; undefined
    40e8:	004c2f35 	.inst	0x004c2f35 ; undefined
	...
    40f4:	00000800 	.inst	0x00000800 ; undefined
    40f8:	00000000 	.inst	0x00000000 ; undefined
    40fc:	01a60500 	.inst	0x01a60500 ; undefined
    4100:	004c3b34 	.inst	0x004c3b34 ; undefined
    4104:	00000000 	.inst	0x00000000 ; undefined
    4108:	4b584300 	sub	w0, w24, w24, lsr #16
	...
    4114:	00040000 	.inst	0x00040000 ; undefined
    4118:	00000000 	.inst	0x00000000 ; undefined
    411c:	c7010000 	.inst	0xc7010000 ; undefined
    4120:	004b6934 	.inst	0x004b6934 ; undefined
    4124:	58000000 	ldr	x0, 4124 <.debug_info+0x4124>
    4128:	00000000 	.inst	0x00000000 ; undefined
    412c:	01305701 	.inst	0x01305701 ; undefined
    4130:	bf010000 	.inst	0xbf010000 ; undefined
    4134:	59000041 	.inst	0x59000041 ; undefined
    4138:	00000000 	.inst	0x00000000 ; undefined
    413c:	15015701 	b	4059d40 <blk_mq_init_sched+0x4058de8>
    4140:	00550000 	.inst	0x00550000 ; undefined
    4144:	01000000 	.inst	0x01000000 ; undefined
    4148:	0024ef59 	.inst	0x0024ef59 ; NYI
    414c:	71725b00 	subs	w0, w24, #0xc96, lsl #12
    4150:	a45b0100 	.inst	0xa45b0100 ; undefined
    4154:	55000024 	.inst	0x55000024 ; undefined
    4158:	00000000 	.inst	0x00000000 ; undefined
    415c:	018b5c01 	.inst	0x018b5c01 ; undefined
    4160:	00550000 	.inst	0x00550000 ; undefined
    4164:	01000000 	.inst	0x01000000 ; undefined
    4168:	0000765d 	.inst	0x0000765d ; undefined
    416c:	00005d00 	.inst	0x00005d00 ; undefined
    4170:	68010000 	.inst	0x68010000 ; undefined
    4174:	00418e53 	.inst	0x00418e53 ; undefined
    4178:	00005500 	.inst	0x00005500 ; undefined
    417c:	5a010000 	sbc	w0, w0, w1
    4180:	00000195 	.inst	0x00000195 ; undefined
    4184:	00005456 	.inst	0x00005456 ; undefined
    4188:	5a010000 	sbc	w0, w0, w1
    418c:	a8530000 	ldnp	x0, x0, [x0, #304]
    4190:	55000041 	.inst	0x55000041 ; undefined
    4194:	00000000 	.inst	0x00000000 ; undefined
    4198:	01955f01 	.inst	0x01955f01 ; undefined
    419c:	54560000 	b.eq	b019c <blk_mq_init_sched+0xaf244>  // b.none
    41a0:	00000000 	.inst	0x00000000 ; undefined
    41a4:	00005f01 	.inst	0x00005f01 ; undefined
    41a8:	00005556 	.inst	0x00005556 ; undefined
    41ac:	5f010000 	.inst	0x5f010000 ; undefined
    41b0:	00000195 	.inst	0x00000195 ; undefined
    41b4:	00005456 	.inst	0x00005456 ; undefined
    41b8:	5f010000 	.inst	0x5f010000 ; undefined
    41bc:	5e000000 	sha1c	q0, s0, v0.4s
    41c0:	00000000 	.inst	0x00000000 ; undefined
    41c4:	005f4e01 	.inst	0x005f4e01 ; undefined
	...
    41d0:	001c0000 	.inst	0x001c0000 ; undefined
    41d4:	00000000 	.inst	0x00000000 ; undefined
    41d8:	9c010000 	ldr	q0, 61d8 <blk_mq_init_sched+0x5280>
    41dc:	0000424a 	.inst	0x0000424a ; undefined
    41e0:	00000051 	.inst	0x00000051 ; undefined
    41e4:	954e0100 	bl	53845e4 <blk_mq_init_sched+0x538368c>
    41e8:	01000001 	.inst	0x01000001 ; undefined
    41ec:	00615f50 	.inst	0x00615f50 ; undefined
    41f0:	255f4e01 	.inst	0x255f4e01 ; undefined
    41f4:	51010000 	sub	w0, w0, #0x40
    41f8:	0100625f 	.inst	0x0100625f ; undefined
    41fc:	00255f4f 	.inst	0x00255f4f ; NYI
    4200:	5b520100 	.inst	0x5b520100 ; undefined
    4204:	00617172 	.inst	0x00617172 ; undefined
    4208:	24a45101 	cmphs	p1.s, p4/z, z8.s, #17
    420c:	725b0000 	.inst	0x725b0000 ; undefined
    4210:	01006271 	.inst	0x01006271 ; undefined
    4214:	0024a452 	.inst	0x0024a452 ; NYI
    4218:	42335300 	.inst	0x42335300 ; undefined
    421c:	00550000 	.inst	0x00550000 ; undefined
    4220:	01000000 	.inst	0x01000000 ; undefined
    4224:	00019551 	.inst	0x00019551 ; undefined
    4228:	00545600 	.inst	0x00545600 ; undefined
    422c:	01000000 	.inst	0x01000000 ; undefined
    4230:	56000051 	.inst	0x56000051 ; undefined
    4234:	00000055 	.inst	0x00000055 ; undefined
    4238:	95520100 	bl	5484638 <blk_mq_init_sched+0x54836e0>
    423c:	56000001 	.inst	0x56000001 ; undefined
    4240:	00000054 	.inst	0x00000054 ; undefined
    4244:	00520100 	.inst	0x00520100 ; undefined
    4248:	00600000 	.inst	0x00600000 ; undefined
    424c:	01000000 	.inst	0x01000000 ; undefined
    4250:	0000003c 	.inst	0x0000003c ; undefined
    4254:	00000000 	.inst	0x00000000 ; undefined
    4258:	00006c00 	.inst	0x00006c00 ; undefined
    425c:	00000000 	.inst	0x00000000 ; undefined
    4260:	409c0100 	.inst	0x409c0100 ; undefined
    4264:	51000044 	sub	w4, w2, #0x0
    4268:	00000000 	.inst	0x00000000 ; undefined
    426c:	24ef3c01 	cmplo	p1.d, p7/z, z0.d, #60
    4270:	50010000 	adr	x0, 6272 <blk_mq_init_sched+0x531a>
    4274:	004c5040 	.inst	0x004c5040 ; undefined
	...
    4280:	00000400 	.inst	0x00000400 ; undefined
    4284:	00000000 	.inst	0x00000000 ; undefined
    4288:	9a3e0100 	.inst	0x9a3e0100 ; undefined
    428c:	34000042 	cbz	w2, 4294 <.debug_info+0x4294>
    4290:	00004c6a 	.inst	0x00004c6a ; undefined
    4294:	004c6034 	.inst	0x004c6034 ; undefined
    4298:	7c3e0000 	.inst	0x7c3e0000 ; undefined
    429c:	0000004c 	.inst	0x0000004c ; undefined
	...
    42a8:	01000000 	.inst	0x01000000 ; undefined
    42ac:	4c883440 	.inst	0x4c883440 ; undefined
    42b0:	92340000 	and	x0, x0, #0x100000001000
    42b4:	3e00004c 	.inst	0x3e00004c ; undefined
    42b8:	00004cc6 	.inst	0x00004cc6 ; undefined
	...
    42c8:	dc342a98 	.inst	0xdc342a98 ; undefined
    42cc:	3400004c 	cbz	w12, 42d4 <.debug_info+0x42d4>
    42d0:	00004cd2 	.inst	0x00004cd2 ; undefined
    42d4:	004dea3e 	.inst	0x004dea3e ; undefined
	...
    42e4:	34199900 	cbz	w0, 37604 <blk_mq_init_sched+0x366ac>
    42e8:	00004e01 	.inst	0x00004e01 ; undefined
    42ec:	004df734 	.inst	0x004df734 ; undefined
    42f0:	4eb83600 	cmgt	v0.4s, v16.4s, v24.4s
	...
    4300:	2b190000 	adds	w0, w0, w25
    4304:	4ecd3401 	fmin	v1.8h, v0.8h, v13.8h
    4308:	c4340000 	prfb	pldl1keep, p0, [x0, z20.d, uxtw]
    430c:	4000004e 	.inst	0x4000004e ; undefined
    4310:	00004ed7 	.inst	0x00004ed7 ; undefined
	...
    431c:	00000008 	.inst	0x00000008 ; undefined
    4320:	00000000 	.inst	0x00000000 ; undefined
    4324:	43d74096 	.inst	0x43d74096 ; undefined
    4328:	e7450000 	.inst	0xe7450000 ; undefined
    432c:	0000004e 	.inst	0x0000004e ; undefined
    4330:	00000000 	.inst	0x00000000 ; undefined
    4334:	04000000 	add	z0.b, p0/m, z0.b, z0.b
    4338:	00000000 	.inst	0x00000000 ; undefined
    433c:	82000000 	.inst	0x82000000 ; undefined
    4340:	38000043 	sturb	w3, [x2]
    4344:	00004eec 	.inst	0x00004eec ; undefined
    4348:	004f9543 	.inst	0x004f9543 ; undefined
	...
    4354:	00000400 	.inst	0x00000400 ; undefined
    4358:	00000000 	.inst	0x00000000 ; undefined
    435c:	34181800 	cbz	w0, 3465c <blk_mq_init_sched+0x33704>
    4360:	00004fb0 	.inst	0x00004fb0 ; undefined
    4364:	004fa534 	.inst	0x004fa534 ; undefined
    4368:	00004100 	.inst	0x00004100 ; undefined
    436c:	00000000 	.inst	0x00000000 ; undefined
    4370:	00040000 	.inst	0x00040000 ; undefined
    4374:	00000000 	.inst	0x00000000 ; undefined
    4378:	bb460000 	.inst	0xbb460000 ; undefined
    437c:	0000004f 	.inst	0x0000004f ; undefined
    4380:	f8470000 	ldur	x0, [x0, #112]
    4384:	0000004e 	.inst	0x0000004e ; undefined
    4388:	00000000 	.inst	0x00000000 ; undefined
    438c:	04000000 	add	z0.b, p0/m, z0.b, z0.b
    4390:	00000000 	.inst	0x00000000 ; undefined
    4394:	38000000 	sturb	w0, [x0]
    4398:	00004ef9 	.inst	0x00004ef9 ; undefined
    439c:	004f9543 	.inst	0x004f9543 ; undefined
	...
    43a8:	00000400 	.inst	0x00000400 ; undefined
    43ac:	00000000 	.inst	0x00000000 ; undefined
    43b0:	34191800 	cbz	w0, 366b0 <blk_mq_init_sched+0x35758>
    43b4:	00004fb0 	.inst	0x00004fb0 ; undefined
    43b8:	004fa534 	.inst	0x004fa534 ; undefined
    43bc:	00004100 	.inst	0x00004100 ; undefined
    43c0:	00000000 	.inst	0x00000000 ; undefined
    43c4:	00040000 	.inst	0x00040000 ; undefined
    43c8:	00000000 	.inst	0x00000000 ; undefined
    43cc:	bb460000 	.inst	0xbb460000 ; undefined
    43d0:	0000004f 	.inst	0x0000004f ; undefined
    43d4:	40000000 	.inst	0x40000000 ; undefined
    43d8:	00004f76 	.inst	0x00004f76 ; undefined
	...
    43e4:	00000008 	.inst	0x00000008 ; undefined
    43e8:	00000000 	.inst	0x00000000 ; undefined
    43ec:	43fd4096 	.inst	0x43fd4096 ; undefined
    43f0:	8b340000 	add	x0, x0, w20, uxtb
    43f4:	3400004f 	cbz	w15, 43fc <.debug_info+0x43fc>
    43f8:	00004f82 	.inst	0x00004f82 ; undefined
    43fc:	4fc94300 	.inst	0x4fc94300 ; undefined
	...
    4408:	000c0000 	.inst	0x000c0000 ; undefined
    440c:	00000000 	.inst	0x00000000 ; undefined
    4410:	40960000 	.inst	0x40960000 ; undefined
    4414:	004fde34 	.inst	0x004fde34 ; undefined
    4418:	4fd53400 	.inst	0x4fd53400 ; undefined
    441c:	00410000 	.inst	0x00410000 ; undefined
    4420:	00000000 	.inst	0x00000000 ; undefined
    4424:	0c000000 	st4	{v0.8b-v3.8b}, [x0]
    4428:	00000000 	.inst	0x00000000 ; undefined
    442c:	38000000 	sturb	w0, [x0]
    4430:	00004fe7 	.inst	0x00004fe7 ; undefined
    4434:	004ff238 	.inst	0x004ff238 ; undefined
	...
    4440:	00000061 	.inst	0x00000061 ; undefined
    4444:	01330100 	.inst	0x01330100 ; undefined
    4448:	00004458 	.inst	0x00004458 ; undefined
    444c:	00000059 	.inst	0x00000059 ; undefined
    4450:	ef330100 	.inst	0xef330100 ; undefined
    4454:	00000024 	.inst	0x00000024 ; undefined
    4458:	00000060 	.inst	0x00000060 ; undefined
    445c:	00150100 	.inst	0x00150100 ; undefined
    4460:	00000000 	.inst	0x00000000 ; undefined
    4464:	a8000000 	stnp	x0, x0, [x0]
    4468:	00000000 	.inst	0x00000000 ; undefined
    446c:	01000000 	.inst	0x01000000 ; undefined
    4470:	0045189c 	.inst	0x0045189c ; undefined
    4474:	71725f00 	subs	w0, w24, #0xc97, lsl #12
    4478:	a4150100 	ld1rqb	{z0.b}, p0/z, [x8, x21]
    447c:	01000024 	.inst	0x01000024 ; undefined
    4480:	00715250 	.inst	0x00715250 ; undefined
    4484:	28a51701 	stp	w1, w5, [x24], #-216
    4488:	66010000 	.inst	0x66010000 ; undefined
    448c:	636f6952 	.inst	0x636f6952 ; undefined
    4490:	18180100 	ldr	w0, 344b0 <blk_mq_init_sched+0x33558>
    4494:	01000045 	.inst	0x01000045 ; undefined
    4498:	63695264 	.inst	0x63695264 ; undefined
    449c:	19010071 	.inst	0x19010071 ; undefined
    44a0:	0000451e 	.inst	0x0000451e ; undefined
    44a4:	1f406501 	fmadd	d1, d8, d0, d25
    44a8:	0000004a 	.inst	0x0000004a ; undefined
    44ac:	00000000 	.inst	0x00000000 ; undefined
    44b0:	04000000 	add	z0.b, p0/m, z0.b, z0.b
    44b4:	00000000 	.inst	0x00000000 ; undefined
    44b8:	01000000 	.inst	0x01000000 ; undefined
    44bc:	0044d91e 	.inst	0x0044d91e ; undefined
    44c0:	00004100 	.inst	0x00004100 ; undefined
    44c4:	00000000 	.inst	0x00000000 ; undefined
    44c8:	00040000 	.inst	0x00040000 ; undefined
    44cc:	00000000 	.inst	0x00000000 ; undefined
    44d0:	2f380000 	.inst	0x2f380000 ; undefined
    44d4:	0000004a 	.inst	0x0000004a ; undefined
    44d8:	48fe4000 	.inst	0x48fe4000 ; undefined
	...
    44e4:	000c0000 	.inst	0x000c0000 ; undefined
    44e8:	00000000 	.inst	0x00000000 ; undefined
    44ec:	22010000 	.inst	0x22010000 ; undefined
    44f0:	000044fa 	.inst	0x000044fa ; undefined
    44f4:	00490b34 	.inst	0x00490b34 ; undefined
    44f8:	ca430000 	eor	x0, x0, x3, lsr #0
    44fc:	00000048 	.inst	0x00000048 ; undefined
    4500:	00000000 	.inst	0x00000000 ; undefined
    4504:	08000000 	stxrb	w0, w0, [x0]
    4508:	00000000 	.inst	0x00000000 ; undefined
    450c:	01000000 	.inst	0x01000000 ; undefined
    4510:	48d73424 	ldlarh	w4, [x1]
    4514:	00000000 	.inst	0x00000000 ; undefined
    4518:	1652080a 	b	fffffffff9486540 <blk_mq_init_sched+0xfffffffff94855e8>
    451c:	080a0000 	stxrb	w10, w0, [x0]
    4520:	0000164d 	.inst	0x0000164d ; undefined
    4524:	00000058 	.inst	0x00000058 ; undefined
    4528:	30610200 	adr	x0, c6569 <blk_mq_init_sched+0xc5611>
    452c:	03000001 	.inst	0x03000001 ; undefined
    4530:	0000453f 	.inst	0x0000453f ; undefined
    4534:	0071725a 	.inst	0x0071725a ; undefined
    4538:	24a46102 	cmplo	p2.s, p0/z, z8.s, #17
    453c:	62000000 	.inst	0x62000000 ; undefined
    4540:	00000000 	.inst	0x00000000 ; undefined
    4544:	6103cf06 	.inst	0x6103cf06 ; undefined
    4548:	5a000045 	sbc	w5, w2, w0
    454c:	06007172 	.inst	0x06007172 ; undefined
    4550:	0024a4cf 	.inst	0x0024a4cf ; NYI
    4554:	00005900 	.inst	0x00005900 ; undefined
    4558:	cf060000 	.inst	0xcf060000 ; undefined
    455c:	0000005f 	.inst	0x0000005f ; undefined
    4560:	00005800 	.inst	0x00005800 ; undefined
    4564:	c8060000 	stxr	w6, x0, [x0]
    4568:	0000005f 	.inst	0x0000005f ; undefined
    456c:	00457b03 	.inst	0x00457b03 ; undefined
    4570:	00715a00 	.inst	0x00715a00 ; undefined
    4574:	28a5c806 	stp	w6, w18, [x0], #-212
    4578:	62000000 	.inst	0x62000000 ; undefined
    457c:	00000000 	.inst	0x00000000 ; undefined
    4580:	9c03c106 	ldr	q6, bda0 <blk_mq_init_sched+0xae48>
    4584:	5a000045 	sbc	w5, w2, w0
    4588:	c1060071 	.inst	0xc1060071 ; undefined
    458c:	000028a5 	.inst	0x000028a5 ; undefined
    4590:	00000059 	.inst	0x00000059 ; undefined
    4594:	5fc20600 	.inst	0x5fc20600 ; undefined
    4598:	00000000 	.inst	0x00000000 ; undefined
    459c:	00000058 	.inst	0x00000058 ; undefined
    45a0:	30b20600 	adr	x0, fffffffffff68661 <blk_mq_init_sched+0xfffffffffff67709>
    45a4:	03000001 	.inst	0x03000001 ; undefined
    45a8:	000045b8 	.inst	0x000045b8 ; undefined
    45ac:	00000059 	.inst	0x00000059 ; undefined
    45b0:	efb20600 	.inst	0xefb20600 ; undefined
    45b4:	00000024 	.inst	0x00000024 ; undefined
    45b8:	00000058 	.inst	0x00000058 ; undefined
    45bc:	30a50600 	adr	x0, fffffffffff4e67d <blk_mq_init_sched+0xfffffffffff4d725>
    45c0:	03000001 	.inst	0x03000001 ; undefined
    45c4:	000045d4 	.inst	0x000045d4 ; undefined
    45c8:	00000059 	.inst	0x00000059 ; undefined
    45cc:	76a50600 	.inst	0x76a50600 ; undefined
    45d0:	00000000 	.inst	0x00000000 ; undefined
    45d4:	00000058 	.inst	0x00000058 ; undefined
    45d8:	33900600 	.inst	0x33900600 ; undefined
    45dc:	03000032 	.inst	0x03000032 ; undefined
    45e0:	0000460c 	.inst	0x0000460c ; undefined
    45e4:	0600715a 	.inst	0x0600715a ; undefined
    45e8:	0028a590 	.inst	0x0028a590 ; NYI
    45ec:	45fe5300 	.inst	0x45fe5300 ; undefined
    45f0:	00550000 	.inst	0x00550000 ; undefined
    45f4:	06000000 	.inst	0x06000000 ; undefined
    45f8:	00019792 	.inst	0x00019792 ; undefined
    45fc:	55560000 	.inst	0x55560000 ; undefined
    4600:	00000000 	.inst	0x00000000 ; undefined
    4604:	00fd9206 	.inst	0x00fd9206 ; undefined
    4608:	00000000 	.inst	0x00000000 ; undefined
    460c:	00000058 	.inst	0x00000058 ; undefined
    4610:	33840600 	.inst	0x33840600 ; undefined
    4614:	03000032 	.inst	0x03000032 ; undefined
    4618:	0000464f 	.inst	0x0000464f ; undefined
    461c:	0600715a 	.inst	0x0600715a ; undefined
    4620:	0028a584 	.inst	0x0028a584 ; NYI
    4624:	70635a00 	adr	x0, cb167 <blk_mq_init_sched+0xca20f>
    4628:	85060075 	.inst	0x85060075 ; undefined
    462c:	00000076 	.inst	0x00000076 ; undefined
    4630:	00464153 	.inst	0x00464153 ; undefined
    4634:	00005500 	.inst	0x00005500 ; undefined
    4638:	87060000 	.inst	0x87060000 ; undefined
    463c:	00000197 	.inst	0x00000197 ; undefined
    4640:	00555600 	.inst	0x00555600 ; undefined
    4644:	06000000 	.inst	0x06000000 ; undefined
    4648:	0000fd87 	.inst	0x0000fd87 ; undefined
    464c:	58000000 	ldr	x0, 464c <.debug_info+0x464c>
    4650:	00000000 	.inst	0x00000000 ; undefined
    4654:	24ef6606 	cmplo	p6.d, p1/z, z16.d, #61
    4658:	8a030000 	and	x0, x0, x3
    465c:	5a000046 	sbc	w6, w2, w0
    4660:	66060071 	.inst	0x66060071 ; undefined
    4664:	000028a5 	.inst	0x000028a5 ; undefined
    4668:	00000059 	.inst	0x00000059 ; undefined
    466c:	76670600 	.inst	0x76670600 ; undefined
    4670:	5a000000 	sbc	w0, w0, w0
    4674:	00787463 	.inst	0x00787463 ; undefined
    4678:	32336806 	orr	w6, w0, #0xffffe0ff
    467c:	00550000 	.inst	0x00550000 ; undefined
    4680:	06000000 	.inst	0x06000000 ; undefined
    4684:	0024bf6a 	.inst	0x0024bf6a ; NYI
    4688:	00580000 	.inst	0x00580000 ; undefined
    468c:	03000000 	.inst	0x03000000 ; undefined
    4690:	000130c9 	.inst	0x000130c9 ; undefined
    4694:	46a50300 	.inst	0x46a50300 ; undefined
    4698:	725a0000 	.inst	0x725a0000 ; undefined
    469c:	c9030071 	.inst	0xc9030071 ; undefined
    46a0:	000024a4 	.inst	0x000024a4 ; undefined
    46a4:	00005800 	.inst	0x00005800 ; undefined
    46a8:	2e040000 	ext	v0.8b, v0.8b, v4.8b, #0
    46ac:	00000130 	.inst	0x00000130 ; undefined
    46b0:	0046c003 	.inst	0x0046c003 ; undefined
    46b4:	706f5a00 	adr	x0, e31f7 <blk_mq_init_sched+0xe229f>
    46b8:	762e0400 	.inst	0x762e0400 ; undefined
    46bc:	00000000 	.inst	0x00000000 ; undefined
    46c0:	0000003b 	.inst	0x0000003b ; undefined
    46c4:	01500f00 	.inst	0x01500f00 ; undefined
    46c8:	0046da03 	.inst	0x0046da03 ; undefined
    46cc:	65722d00 	fmls	z0.h, p3/m, z8.h, z18.h
    46d0:	500f0066 	adr	x6, 226de <blk_mq_init_sched+0x21786>
    46d4:	001a3f01 	.inst	0x001a3f01 ; undefined
    46d8:	003b0000 	.inst	0x003b0000 ; NYI
    46dc:	0f000000 	.inst	0x0f000000 ; undefined
    46e0:	a9030139 	stp	x25, x0, [x9, #48]
    46e4:	2d000047 	stp	s7, s0, [x2]
    46e8:	00666572 	.inst	0x00666572 ; undefined
    46ec:	3f01390f 	.inst	0x3f01390f ; undefined
    46f0:	2d00001a 	stp	s26, s0, [x0]
    46f4:	0f00726e 	.inst	0x0f00726e ; undefined
    46f8:	00fd0139 	.inst	0x00fd0139 ; undefined
    46fc:	002e0000 	.inst	0x002e0000 ; NYI
    4700:	0f000000 	.inst	0x0f000000 ; undefined
    4704:	47a9013b 	.inst	0x47a9013b ; undefined
    4708:	1c530000 	ldr	s0, aa708 <blk_mq_init_sched+0xa97b0>
    470c:	2e000047 	ext	v7.8b, v2.8b, v0.8b, #0
    4710:	00000000 	.inst	0x00000000 ; undefined
    4714:	9701400f 	bl	fffffffffc054750 <blk_mq_init_sched+0xfffffffffc0537f8>
    4718:	00000001 	.inst	0x00000001 ; undefined
    471c:	00472e53 	.inst	0x00472e53 ; undefined
    4720:	00002e00 	.inst	0x00002e00 ; undefined
    4724:	400f0000 	.inst	0x400f0000 ; undefined
    4728:	00019701 	.inst	0x00019701 ; undefined
    472c:	40530000 	.inst	0x40530000 ; undefined
    4730:	2e000047 	ext	v7.8b, v2.8b, v0.8b, #0
    4734:	00000000 	.inst	0x00000000 ; undefined
    4738:	fd01400f 	str	d15, [x0, #640]
    473c:	00000000 	.inst	0x00000000 ; undefined
    4740:	00475253 	.inst	0x00475253 ; undefined
    4744:	00002e00 	.inst	0x00002e00 ; undefined
    4748:	400f0000 	.inst	0x400f0000 ; undefined
    474c:	00019701 	.inst	0x00019701 ; undefined
    4750:	64530000 	fcmla	z0.h, p0/m, z0.h, z19.h, #0
    4754:	2e000047 	ext	v7.8b, v2.8b, v0.8b, #0
    4758:	00000000 	.inst	0x00000000 ; undefined
    475c:	fd01400f 	str	d15, [x0, #640]
    4760:	00000000 	.inst	0x00000000 ; undefined
    4764:	00477653 	.inst	0x00477653 ; undefined
    4768:	00002e00 	.inst	0x00002e00 ; undefined
    476c:	400f0000 	.inst	0x400f0000 ; undefined
    4770:	00019701 	.inst	0x00019701 ; undefined
    4774:	88530000 	ldxr	w0, [x0]
    4778:	2e000047 	ext	v7.8b, v2.8b, v0.8b, #0
    477c:	00000000 	.inst	0x00000000 ; undefined
    4780:	fd01400f 	str	d15, [x0, #640]
    4784:	00000000 	.inst	0x00000000 ; undefined
    4788:	00479a53 	.inst	0x00479a53 ; undefined
    478c:	00002e00 	.inst	0x00002e00 ; undefined
    4790:	400f0000 	.inst	0x400f0000 ; undefined
    4794:	00019701 	.inst	0x00019701 ; undefined
    4798:	2e560000 	.inst	0x2e560000 ; undefined
    479c:	00000000 	.inst	0x00000000 ; undefined
    47a0:	fd01400f 	str	d15, [x0, #640]
    47a4:	00000000 	.inst	0x00000000 ; undefined
    47a8:	fd080a00 	str	d0, [x16, #4112]
    47ac:	62000000 	.inst	0x62000000 ; undefined
    47b0:	00000000 	.inst	0x00000000 ; undefined
    47b4:	c703dc0f 	.inst	0xc703dc0f ; undefined
    47b8:	5a000047 	sbc	w7, w2, w0
    47bc:	00666572 	.inst	0x00666572 ; undefined
    47c0:	1a3fdc0f 	.inst	0x1a3fdc0f ; undefined
    47c4:	62000000 	.inst	0x62000000 ; undefined
    47c8:	00000000 	.inst	0x00000000 ; undefined
    47cc:	8903c60f 	.inst	0x8903c60f ; undefined
    47d0:	5a000048 	sbc	w8, w2, w0
    47d4:	00666572 	.inst	0x00666572 ; undefined
    47d8:	1a3fc60f 	.inst	0x1a3fc60f ; undefined
    47dc:	6e5a0000 	.inst	0x6e5a0000 ; undefined
    47e0:	c60f0072 	.inst	0xc60f0072 ; undefined
    47e4:	000000fd 	.inst	0x000000fd ; undefined
    47e8:	00000055 	.inst	0x00000055 ; undefined
    47ec:	a9c80f00 	ldp	x0, x3, [x24, #128]!
    47f0:	53000047 	ubfx	w7, w2, #0, #1
    47f4:	00004804 	.inst	0x00004804 ; undefined
    47f8:	00000055 	.inst	0x00000055 ; undefined
    47fc:	97cd0f00 	bl	ffffffffff3483fc <blk_mq_init_sched+0xffffffffff3474a4>
    4800:	00000001 	.inst	0x00000001 ; undefined
    4804:	00481553 	.inst	0x00481553 ; undefined
    4808:	00005500 	.inst	0x00005500 ; undefined
    480c:	cd0f0000 	.inst	0xcd0f0000 ; undefined
    4810:	00000197 	.inst	0x00000197 ; undefined
    4814:	48265300 	.inst	0x48265300 ; undefined
    4818:	00550000 	.inst	0x00550000 ; undefined
    481c:	0f000000 	.inst	0x0f000000 ; undefined
    4820:	0000fdcd 	.inst	0x0000fdcd ; undefined
    4824:	37530000 	tbnz	w0, #10, a824 <blk_mq_init_sched+0x98cc>
    4828:	55000048 	.inst	0x55000048 ; undefined
    482c:	00000000 	.inst	0x00000000 ; undefined
    4830:	0197cd0f 	.inst	0x0197cd0f ; undefined
    4834:	53000000 	ubfx	w0, w0, #0, #1
    4838:	00004848 	.inst	0x00004848 ; undefined
    483c:	00000055 	.inst	0x00000055 ; undefined
    4840:	fdcd0f00 	.inst	0xfdcd0f00 ; undefined
    4844:	00000000 	.inst	0x00000000 ; undefined
    4848:	00485953 	.inst	0x00485953 ; undefined
    484c:	00005500 	.inst	0x00005500 ; undefined
    4850:	cd0f0000 	.inst	0xcd0f0000 ; undefined
    4854:	00000197 	.inst	0x00000197 ; undefined
    4858:	486a5300 	.inst	0x486a5300 ; undefined
    485c:	00550000 	.inst	0x00550000 ; undefined
    4860:	0f000000 	.inst	0x0f000000 ; undefined
    4864:	0000fdcd 	.inst	0x0000fdcd ; undefined
    4868:	7b530000 	.inst	0x7b530000 ; undefined
    486c:	55000048 	.inst	0x55000048 ; undefined
    4870:	00000000 	.inst	0x00000000 ; undefined
    4874:	0197cd0f 	.inst	0x0197cd0f ; undefined
    4878:	56000000 	.inst	0x56000000 ; undefined
    487c:	00000055 	.inst	0x00000055 ; undefined
    4880:	fdcd0f00 	.inst	0xfdcd0f00 ; undefined
    4884:	00000000 	.inst	0x00000000 ; undefined
    4888:	00005800 	.inst	0x00005800 ; undefined
    488c:	9e0f0000 	.inst	0x9e0f0000 ; undefined
    4890:	00000130 	.inst	0x00000130 ; undefined
    4894:	0048c403 	.inst	0x0048c403 ; undefined
    4898:	65725a00 	fnmla	z0.h, p6/m, z16.h, z18.h
    489c:	9e0f0066 	.inst	0x9e0f0066 ; undefined
    48a0:	00001a3f 	.inst	0x00001a3f ; undefined
    48a4:	00000059 	.inst	0x00000059 ; undefined
    48a8:	c49f0f00 	ld1sh	{z0.d}, p3/z, [x24, z31.d, uxtw]
    48ac:	55000048 	.inst	0x55000048 ; undefined
    48b0:	00000000 	.inst	0x00000000 ; undefined
    48b4:	00fda10f 	.inst	0x00fda10f ; undefined
    48b8:	54560000 	b.eq	b08b8 <blk_mq_init_sched+0xaf960>  // b.none
    48bc:	00000000 	.inst	0x00000000 ; undefined
    48c0:	0000ae0f 	.inst	0x0000ae0f ; undefined
    48c4:	47a9080a 	.inst	0x47a9080a ; undefined
    48c8:	003b0000 	.inst	0x003b0000 ; NYI
    48cc:	0b000000 	add	w0, w0, w0
    48d0:	e403019b 	.inst	0xe403019b ; undefined
    48d4:	3a000048 	adcs	w8, w2, w0
    48d8:	00000000 	.inst	0x00000000 ; undefined
    48dc:	0c019b0b 	.inst	0x0c019b0b ; undefined
    48e0:	00000015 	.inst	0x00000015 ; undefined
    48e4:	0000003b 	.inst	0x0000003b ; undefined
    48e8:	01910b00 	.inst	0x01910b00 ; undefined
    48ec:	0048fe03 	.inst	0x0048fe03 ; undefined
    48f0:	00003a00 	.inst	0x00003a00 ; undefined
    48f4:	910b0000 	add	x0, x0, #0x2c0
    48f8:	00150c01 	.inst	0x00150c01 ; undefined
    48fc:	003b0000 	.inst	0x003b0000 ; NYI
    4900:	0b000000 	add	w0, w0, w0
    4904:	18030182 	ldr	w2, a934 <blk_mq_init_sched+0x99dc>
    4908:	3a000049 	adcs	w9, w2, w0
    490c:	00000000 	.inst	0x00000000 ; undefined
    4910:	0c01820b 	.inst	0x0c01820b ; undefined
    4914:	00000015 	.inst	0x00000015 ; undefined
    4918:	0000003b 	.inst	0x0000003b ; undefined
    491c:	01690b00 	.inst	0x01690b00 ; undefined
    4920:	00493203 	.inst	0x00493203 ; undefined
    4924:	00003a00 	.inst	0x00003a00 ; undefined
    4928:	690b0000 	.inst	0x690b0000 ; undefined
    492c:	00150c01 	.inst	0x00150c01 ; undefined
    4930:	00630000 	.inst	0x00630000 ; undefined
    4934:	0e000000 	tbl	v0.8b, {v0.16b}, v0.8b
    4938:	630302ca 	.inst	0x630302ca ; undefined
    493c:	00000000 	.inst	0x00000000 ; undefined
    4940:	0302ab0e 	.inst	0x0302ab0e ; undefined
    4944:	00000062 	.inst	0x00000062 ; undefined
    4948:	037e0d00 	.inst	0x037e0d00 ; undefined
    494c:	0000497d 	.inst	0x0000497d ; undefined
    4950:	7274705a 	.inst	0x7274705a ; undefined
    4954:	957e0d00 	bl	5f87d54 <blk_mq_init_sched+0x5f86dfc>
    4958:	5a000001 	sbc	w1, w0, w0
    495c:	006c6176 	.inst	0x006c6176 ; undefined
    4960:	00fd7e0d 	.inst	0x00fd7e0d ; undefined
    4964:	00550000 	.inst	0x00550000 ; undefined
    4968:	0d000000 	st1	{v0.b}[0], [x0]
    496c:	0000767e 	.inst	0x0000767e ; undefined
    4970:	6d745b00 	ldp	d0, d22, [x24, #-192]
    4974:	7e0d0070 	.inst	0x7e0d0070 ; undefined
    4978:	000000c6 	.inst	0x000000c6 ; undefined
    497c:	00005800 	.inst	0x00005800 ; undefined
    4980:	1f0d0000 	fmadd	s0, s0, s13, s0
    4984:	000000fd 	.inst	0x000000fd ; undefined
    4988:	00499903 	.inst	0x00499903 ; undefined
    498c:	666f5b00 	.inst	0x666f5b00 ; undefined
    4990:	210d0066 	.inst	0x210d0066 ; undefined
    4994:	000000fd 	.inst	0x000000fd ; undefined
    4998:	00005800 	.inst	0x00005800 ; undefined
    499c:	3a100000 	adcs	w0, w0, w16
    49a0:	00000130 	.inst	0x00000130 ; undefined
    49a4:	0049e103 	.inst	0x0049e103 ; undefined
    49a8:	69745b00 	ldpsw	x0, x22, [x24, #-96]
    49ac:	e13c1000 	.inst	0xe13c1000 ; undefined
    49b0:	5b000049 	.inst	0x5b000049 ; undefined
    49b4:	10006370 	adr	x16, 5620 <blk_mq_init_sched+0x46c8>
    49b8:	0000c63d 	.inst	0x0000c63d ; undefined
    49bc:	49ca5300 	.inst	0x49ca5300 ; undefined
    49c0:	00540000 	.inst	0x00540000 ; undefined
    49c4:	10000000 	adr	x0, 49c4 <.debug_info+0x49c4>
    49c8:	d753003d 	.inst	0xd753003d ; undefined
    49cc:	54000049 	b.ls	49d4 <.debug_info+0x49d4>  // b.plast
    49d0:	00000000 	.inst	0x00000000 ; undefined
    49d4:	56004010 	.inst	0x56004010 ; undefined
    49d8:	00000054 	.inst	0x00000054 ; undefined
    49dc:	00491000 	.inst	0x00491000 ; undefined
    49e0:	a7080a00 	.inst	0xa7080a00 ; undefined
    49e4:	62000006 	.inst	0x62000006 ; undefined
    49e8:	00000000 	.inst	0x00000000 ; undefined
    49ec:	1f032c10 	fmadd	s16, s0, s3, s11
    49f0:	5a00004a 	sbc	w10, w2, w0
    49f4:	006c6176 	.inst	0x006c6176 ; undefined
    49f8:	005f2c10 	.inst	0x005f2c10 ; undefined
    49fc:	705b0000 	adr	x0, ba9ff <blk_mq_init_sched+0xb9aa7>
    4a00:	2e100063 	ext	v3.8b, v3.8b, v16.8b, #0
    4a04:	000000b0 	.inst	0x000000b0 ; undefined
    4a08:	004a1553 	.inst	0x004a1553 ; undefined
    4a0c:	00005400 	.inst	0x00005400 ; undefined
    4a10:	2e100000 	ext	v0.8b, v0.8b, v16.8b, #0
    4a14:	00545600 	.inst	0x00545600 ; undefined
    4a18:	10000000 	adr	x0, 4a18 <.debug_info+0x4a18>
    4a1c:	58000030 	ldr	x16, 4a20 <.debug_info+0x4a20>
    4a20:	00000000 	.inst	0x00000000 ; undefined
    4a24:	15e40f0c 	b	7908654 <blk_mq_init_sched+0x79076fc>
    4a28:	3b030000 	.inst	0x3b030000 ; undefined
    4a2c:	5500004a 	.inst	0x5500004a ; undefined
    4a30:	00000000 	.inst	0x00000000 ; undefined
    4a34:	00fd110c 	.inst	0x00fd110c ; undefined
    4a38:	3b000000 	.inst	0x3b000000 ; undefined
    4a3c:	00000000 	.inst	0x00000000 ; undefined
    4a40:	0301ef05 	.inst	0x0301ef05 ; undefined
    4a44:	00004a61 	.inst	0x00004a61 ; undefined
    4a48:	0000003a 	.inst	0x0000003a ; undefined
    4a4c:	01ef0500 	.inst	0x01ef0500 ; undefined
    4a50:	00001501 	.inst	0x00001501 ; undefined
    4a54:	0000003a 	.inst	0x0000003a ; undefined
    4a58:	01f00500 	.inst	0x01f00500 ; undefined
    4a5c:	00001501 	.inst	0x00001501 ; undefined
    4a60:	00003b00 	.inst	0x00003b00 ; undefined
    4a64:	de050000 	.inst	0xde050000 ; undefined
    4a68:	4a870301 	eor	w1, w24, w7, asr #0
    4a6c:	003a0000 	.inst	0x003a0000 ; NYI
    4a70:	05000000 	orr	z0.s, z0.s, #0x1
    4a74:	150101de 	b	40451ec <blk_mq_init_sched+0x4044294>
    4a78:	003a0000 	.inst	0x003a0000 ; NYI
    4a7c:	05000000 	orr	z0.s, z0.s, #0x1
    4a80:	150101df 	b	40451fc <blk_mq_init_sched+0x40442a4>
    4a84:	3b000000 	.inst	0x3b000000 ; undefined
    4a88:	00000000 	.inst	0x00000000 ; undefined
    4a8c:	0301b105 	.inst	0x0301b105 ; undefined
    4a90:	00004ad1 	.inst	0x00004ad1 ; undefined
    4a94:	0000003a 	.inst	0x0000003a ; undefined
    4a98:	01b10500 	.inst	0x01b10500 ; undefined
    4a9c:	0000255f 	.inst	0x0000255f ; undefined
    4aa0:	0000003a 	.inst	0x0000003a ; undefined
    4aa4:	01b20500 	.inst	0x01b20500 ; undefined
    4aa8:	00001501 	.inst	0x00001501 ; undefined
    4aac:	0000003a 	.inst	0x0000003a ; undefined
    4ab0:	01b30500 	.inst	0x01b30500 ; undefined
    4ab4:	00001501 	.inst	0x00001501 ; undefined
    4ab8:	0000002e 	.inst	0x0000002e ; undefined
    4abc:	01b50500 	.inst	0x01b50500 ; undefined
    4ac0:	00001501 	.inst	0x00001501 ; undefined
    4ac4:	0000002e 	.inst	0x0000002e ; undefined
    4ac8:	01b60500 	.inst	0x01b60500 ; undefined
    4acc:	00001501 	.inst	0x00001501 ; undefined
    4ad0:	00003b00 	.inst	0x00003b00 ; undefined
    4ad4:	a1050000 	.inst	0xa1050000 ; undefined
    4ad8:	4b030301 	sub	w1, w24, w3
    4adc:	003a0000 	.inst	0x003a0000 ; NYI
    4ae0:	05000000 	orr	z0.s, z0.s, #0x1
    4ae4:	150101a1 	b	4045168 <blk_mq_init_sched+0x4044210>
    4ae8:	003a0000 	.inst	0x003a0000 ; NYI
    4aec:	05000000 	orr	z0.s, z0.s, #0x1
    4af0:	150101a2 	b	4045178 <blk_mq_init_sched+0x4044220>
    4af4:	003a0000 	.inst	0x003a0000 ; NYI
    4af8:	05000000 	orr	z0.s, z0.s, #0x1
    4afc:	150101a3 	b	4045188 <blk_mq_init_sched+0x4044230>
    4b00:	39000000 	strb	w0, [x0]
    4b04:	00000000 	.inst	0x00000000 ; undefined
    4b08:	5f013c05 	.inst	0x5f013c05 ; undefined
    4b0c:	03000000 	.inst	0x03000000 ; undefined
    4b10:	00004b52 	.inst	0x00004b52 ; undefined
    4b14:	0000003a 	.inst	0x0000003a ; undefined
    4b18:	013c0500 	.inst	0x013c0500 ; undefined
    4b1c:	0000255f 	.inst	0x0000255f ; undefined
    4b20:	0000002e 	.inst	0x0000002e ; undefined
    4b24:	013e0500 	.inst	0x013e0500 ; undefined
    4b28:	00001501 	.inst	0x00001501 ; undefined
    4b2c:	5f2f6456 	.inst	0x5f2f6456 ; undefined
    4b30:	0500755f 	orr	z31.h, z31.h, #0x1ffc
    4b34:	4b2d013e 	sub	w30, w9, w13, uxtb
    4b38:	5f2f0000 	.inst	0x5f2f0000 ; undefined
    4b3c:	0500705f 	orr	z31.s, z31.s, #0x1c0000
    4b40:	4b52013e 	sub	w30, w9, w18, lsr #0
    4b44:	57560000 	.inst	0x57560000 ; undefined
    4b48:	00000000 	.inst	0x00000000 ; undefined
    4b4c:	00013e05 	.inst	0x00013e05 ; undefined
    4b50:	080a0000 	stxrb	w10, w0, [x0]
    4b54:	00001507 	.inst	0x00001507 ; undefined
    4b58:	00000039 	.inst	0x00000039 ; undefined
    4b5c:	01180500 	.inst	0x01180500 ; undefined
    4b60:	0000005f 	.inst	0x0000005f ; undefined
    4b64:	004b8003 	.inst	0x004b8003 ; undefined
    4b68:	00003a00 	.inst	0x00003a00 ; undefined
    4b6c:	18050000 	ldr	w0, eb6c <blk_mq_init_sched+0xdc14>
    4b70:	00255f01 	.inst	0x00255f01 ; NYI
    4b74:	00575600 	.inst	0x00575600 ; undefined
    4b78:	05000000 	orr	z0.s, z0.s, #0x1
    4b7c:	0000011a 	.inst	0x0000011a ; undefined
    4b80:	00000062 	.inst	0x00000062 ; undefined
    4b84:	03620500 	.inst	0x03620500 ; undefined
    4b88:	00004ba3 	.inst	0x00004ba3 ; undefined
    4b8c:	77656e5a 	.inst	0x77656e5a ; undefined
    4b90:	01620500 	.inst	0x01620500 ; undefined
    4b94:	59000015 	.inst	0x59000015 ; undefined
    4b98:	00000000 	.inst	0x00000000 ; undefined
    4b9c:	15016205 	b	405d3b0 <blk_mq_init_sched+0x405c458>
    4ba0:	62000000 	.inst	0x62000000 ; undefined
    4ba4:	00000000 	.inst	0x00000000 ; undefined
    4ba8:	c6035405 	.inst	0xc6035405 ; undefined
    4bac:	5a00004b 	sbc	w11, w2, w0
    4bb0:	0077656e 	.inst	0x0077656e ; undefined
    4bb4:	15015405 	b	4059bc8 <blk_mq_init_sched+0x4058c70>
    4bb8:	00590000 	.inst	0x00590000 ; undefined
    4bbc:	05000000 	orr	z0.s, z0.s, #0x1
    4bc0:	00150154 	.inst	0x00150154 ; undefined
    4bc4:	00620000 	.inst	0x00620000 ; undefined
    4bc8:	05000000 	orr	z0.s, z0.s, #0x1
    4bcc:	4bfd033f 	.inst	0x4bfd033f ; undefined
    4bd0:	6e5a0000 	.inst	0x6e5a0000 ; undefined
    4bd4:	05007765 	.inst	0x05007765 ; undefined
    4bd8:	0015013f 	.inst	0x0015013f ; undefined
    4bdc:	00005900 	.inst	0x00005900 ; undefined
    4be0:	40050000 	.inst	0x40050000 ; undefined
    4be4:	00001501 	.inst	0x00001501 ; undefined
    4be8:	00000059 	.inst	0x00000059 ; undefined
    4bec:	01410500 	.inst	0x01410500 ; undefined
    4bf0:	56000015 	.inst	0x56000015 ; undefined
    4bf4:	00000054 	.inst	0x00000054 ; undefined
    4bf8:	00490500 	.inst	0x00490500 ; undefined
    4bfc:	00005800 	.inst	0x00005800 ; undefined
    4c00:	2d050000 	stp	s0, s0, [x0, #40]
    4c04:	00000130 	.inst	0x00000130 ; undefined
    4c08:	004c2f03 	.inst	0x004c2f03 ; undefined
    4c0c:	656e5a00 	fnmla	z0.h, p6/m, z16.h, z14.h
    4c10:	2d050077 	stp	s23, s0, [x3, #40]
    4c14:	00001501 	.inst	0x00001501 ; undefined
    4c18:	00000059 	.inst	0x00000059 ; undefined
    4c1c:	012e0500 	.inst	0x012e0500 ; undefined
    4c20:	59000015 	.inst	0x59000015 ; undefined
    4c24:	00000000 	.inst	0x00000000 ; undefined
    4c28:	15012f05 	b	405083c <blk_mq_init_sched+0x404f8e4>
    4c2c:	62000000 	.inst	0x62000000 ; undefined
    4c30:	00000000 	.inst	0x00000000 ; undefined
    4c34:	50032105 	adr	x5, b056 <blk_mq_init_sched+0xa0fe>
    4c38:	5900004c 	.inst	0x5900004c ; undefined
    4c3c:	00000000 	.inst	0x00000000 ; undefined
    4c40:	15012105 	b	404d054 <blk_mq_init_sched+0x404c0fc>
    4c44:	54560000 	b.eq	b0c44 <blk_mq_init_sched+0xafcec>  // b.none
    4c48:	00000000 	.inst	0x00000000 ; undefined
    4c4c:	00002305 	.inst	0x00002305 ; undefined
    4c50:	00000058 	.inst	0x00000058 ; undefined
    4c54:	5f740700 	sshr	d0, d24, #12
    4c58:	03000000 	.inst	0x03000000 ; undefined
    4c5c:	00004c76 	.inst	0x00004c76 ; undefined
    4c60:	00726e5a 	.inst	0x00726e5a ; undefined
    4c64:	00767407 	.inst	0x00767407 ; undefined
    4c68:	00590000 	.inst	0x00590000 ; undefined
    4c6c:	07000000 	.inst	0x07000000 ; undefined
    4c70:	004c7674 	.inst	0x004c7674 ; undefined
    4c74:	080a0000 	stxrb	w10, w0, [x0]
    4c78:	0000010e 	.inst	0x0000010e ; undefined
    4c7c:	00000062 	.inst	0x00000062 ; undefined
    4c80:	03279800 	.inst	0x03279800 ; undefined
    4c84:	00004c9e 	.inst	0x00004c9e ; undefined
    4c88:	00726e5a 	.inst	0x00726e5a ; undefined
    4c8c:	00eb2798 	.inst	0x00eb2798 ; undefined
    4c90:	00590000 	.inst	0x00590000 ; undefined
    4c94:	98000000 	ldrsw	x0, 4c94 <.debug_info+0x4c94>
    4c98:	004c9e27 	.inst	0x004c9e27 ; undefined
    4c9c:	080a0000 	stxrb	w10, w0, [x0]
    4ca0:	00000109 	.inst	0x00000109 ; undefined
    4ca4:	00000062 	.inst	0x00000062 ; undefined
    4ca8:	031a9800 	.inst	0x031a9800 ; undefined
    4cac:	00004cc6 	.inst	0x00004cc6 ; undefined
    4cb0:	00726e5a 	.inst	0x00726e5a ; undefined
    4cb4:	00eb1a98 	.inst	0x00eb1a98 ; undefined
    4cb8:	00590000 	.inst	0x00590000 ; undefined
    4cbc:	98000000 	ldrsw	x0, 4cbc <.debug_info+0x4cbc>
    4cc0:	004c9e1a 	.inst	0x004c9e1a ; undefined
    4cc4:	00620000 	.inst	0x00620000 ; undefined
    4cc8:	99000000 	.inst	0x99000000 ; undefined
    4ccc:	4ce60316 	.inst	0x4ce60316 ; undefined
    4cd0:	6e5a0000 	.inst	0x6e5a0000 ; undefined
    4cd4:	16990072 	b	fffffffffa644e9c <blk_mq_init_sched+0xfffffffffa643f44>
    4cd8:	00000076 	.inst	0x00000076 ; undefined
    4cdc:	9900705a 	.inst	0x9900705a ; undefined
    4ce0:	004c9e16 	.inst	0x004c9e16 ; undefined
    4ce4:	00620000 	.inst	0x00620000 ; undefined
    4ce8:	99000000 	.inst	0x99000000 ; undefined
    4cec:	4d06030f 	.inst	0x4d06030f ; undefined
    4cf0:	6e5a0000 	.inst	0x6e5a0000 ; undefined
    4cf4:	0f990072 	.inst	0x0f990072 ; undefined
    4cf8:	00000076 	.inst	0x00000076 ; undefined
    4cfc:	9900705a 	.inst	0x9900705a ; undefined
    4d00:	004c9e0f 	.inst	0x004c9e0f ; undefined
    4d04:	00390000 	.inst	0x00390000 ; NYI
    4d08:	95000000 	bl	4004d08 <blk_mq_init_sched+0x4003db0>
    4d0c:	01300699 	.inst	0x01300699 ; undefined
    4d10:	2c030000 	stnp	s0, s0, [x0, #24]
    4d14:	2d00004d 	stp	s13, s0, [x2]
    4d18:	99950069 	.inst	0x99950069 ; undefined
    4d1c:	0000eb06 	.inst	0x0000eb06 ; undefined
    4d20:	00762d00 	.inst	0x00762d00 ; undefined
    4d24:	2c069995 	stnp	s21, s6, [x12, #52]
    4d28:	0000004d 	.inst	0x0000004d ; undefined
    4d2c:	02db080a 	.inst	0x02db080a ; undefined
    4d30:	003b0000 	.inst	0x003b0000 ; NYI
    4d34:	95000000 	bl	4004d34 <blk_mq_init_sched+0x4003ddc>
    4d38:	540304b9 	.inst	0x540304b9 ; undefined
    4d3c:	2d00004d 	stp	s13, s0, [x2]
    4d40:	b9950069 	ldrsw	x9, [x3, #5376]
    4d44:	0000eb04 	.inst	0x0000eb04 ; undefined
    4d48:	00762d00 	.inst	0x00762d00 ; undefined
    4d4c:	2c04b995 	stnp	s21, s14, [x12, #36]
    4d50:	0000004d 	.inst	0x0000004d ; undefined
    4d54:	00000062 	.inst	0x00000062 ; undefined
    4d58:	03639a00 	.inst	0x03639a00 ; undefined
    4d5c:	00004d75 	.inst	0x00004d75 ; undefined
    4d60:	9a00765a 	.inst	0x9a00765a ; undefined
    4d64:	004d7563 	.inst	0x004d7563 ; undefined
    4d68:	00005900 	.inst	0x00005900 ; undefined
    4d6c:	639a0000 	.inst	0x639a0000 ; undefined
    4d70:	00000147 	.inst	0x00000147 ; undefined
    4d74:	7c080a00 	.inst	0x7c080a00 ; undefined
    4d78:	6500004d 	.inst	0x6500004d ; undefined
    4d7c:	004d7b05 	.inst	0x004d7b05 ; undefined
    4d80:	00006200 	.inst	0x00006200 ; undefined
    4d84:	549a0000 	b.eq	fffffffffff38d84 <blk_mq_init_sched+0xfffffffffff37e2c>  // b.none
    4d88:	004da203 	.inst	0x004da203 ; undefined
    4d8c:	00765a00 	.inst	0x00765a00 ; undefined
    4d90:	4d75549a 	.inst	0x4d75549a ; undefined
    4d94:	00590000 	.inst	0x00590000 ; undefined
    4d98:	9a000000 	adc	x0, x0, x0
    4d9c:	00014754 	.inst	0x00014754 ; undefined
    4da0:	00390000 	.inst	0x00390000 ; NYI
    4da4:	19000000 	.inst	0x19000000 ; undefined
    4da8:	013001cb 	.inst	0x013001cb ; undefined
    4dac:	c8030000 	stxr	w3, x0, [x0]
    4db0:	2d00004d 	stp	s13, s0, [x2]
    4db4:	cb190069 	sub	x9, x3, x25
    4db8:	0000eb01 	.inst	0x0000eb01 ; undefined
    4dbc:	00762d00 	.inst	0x00762d00 ; undefined
    4dc0:	2c01cb19 	stnp	s25, s18, [x24, #12]
    4dc4:	0000004d 	.inst	0x0000004d ; undefined
    4dc8:	0000003b 	.inst	0x0000003b ; undefined
    4dcc:	01471900 	.inst	0x01471900 ; undefined
    4dd0:	004dea03 	.inst	0x004dea03 ; undefined
    4dd4:	00692d00 	.inst	0x00692d00 ; undefined
    4dd8:	eb014719 	subs	x25, x24, x1, lsl #17
    4ddc:	2d000000 	stp	s0, s0, [x0]
    4de0:	47190076 	.inst	0x47190076 ; undefined
    4de4:	004d2c01 	.inst	0x004d2c01 ; undefined
    4de8:	003b0000 	.inst	0x003b0000 ; NYI
    4dec:	19000000 	.inst	0x19000000 ; undefined
    4df0:	0c030129 	.inst	0x0c030129 ; undefined
    4df4:	2d00004e 	stp	s14, s0, [x2]
    4df8:	29190069 	stp	w9, w0, [x3, #200]
    4dfc:	0000eb01 	.inst	0x0000eb01 ; undefined
    4e00:	00762d00 	.inst	0x00762d00 ; undefined
    4e04:	2c012919 	stnp	s25, s10, [x8, #8]
    4e08:	0000004d 	.inst	0x0000004d ; undefined
    4e0c:	00000062 	.inst	0x00000062 ; undefined
    4e10:	03331900 	.inst	0x03331900 ; undefined
    4e14:	00004e2b 	.inst	0x00004e2b ; undefined
    4e18:	1900695a 	.inst	0x1900695a ; undefined
    4e1c:	0000eb33 	.inst	0x0000eb33 ; undefined
    4e20:	00765a00 	.inst	0x00765a00 ; undefined
    4e24:	4d2c3319 	.inst	0x4d2c3319 ; undefined
    4e28:	39000000 	strb	w0, [x0]
    4e2c:	00000000 	.inst	0x00000000 ; undefined
    4e30:	30089197 	adr	x23, 16061 <blk_mq_init_sched+0x15109>
    4e34:	03000001 	.inst	0x03000001 ; undefined
    4e38:	00004e51 	.inst	0x00004e51 ; undefined
    4e3c:	9700692d 	bl	fffffffffc01f2f0 <blk_mq_init_sched+0xfffffffffc01e398>
    4e40:	00bb0891 	.inst	0x00bb0891 ; undefined
    4e44:	762d0000 	.inst	0x762d0000 ; undefined
    4e48:	08919700 	stlrb	w0, [x24]
    4e4c:	00004e51 	.inst	0x00004e51 ; undefined
    4e50:	80080a00 	.inst	0x80080a00 ; undefined
    4e54:	58000001 	ldr	x1, 4e54 <.debug_info+0x4e54>
    4e58:	00000000 	.inst	0x00000000 ; undefined
    4e5c:	00eb5c96 	.inst	0x00eb5c96 ; undefined
    4e60:	7a030000 	sbcs	w0, w0, w3
    4e64:	5a00004e 	sbc	w14, w2, w0
    4e68:	5c960069 	ldr	d9, fffffffffff30e74 <blk_mq_init_sched+0xfffffffffff2ff1c>
    4e6c:	000000eb 	.inst	0x000000eb ; undefined
    4e70:	9600765a 	bl	fffffffff80227d8 <blk_mq_init_sched+0xfffffffff8021880>
    4e74:	004e515c 	.inst	0x004e515c ; undefined
    4e78:	00620000 	.inst	0x00620000 ; undefined
    4e7c:	96000000 	bl	fffffffff8004e7c <blk_mq_init_sched+0xfffffffff8003f24>
    4e80:	4e990343 	.inst	0x4e990343 ; undefined
    4e84:	695a0000 	.inst	0x695a0000 ; undefined
    4e88:	eb439600 	subs	x0, x16, x3, lsr #37
    4e8c:	5a000000 	sbc	w0, w0, w0
    4e90:	43960076 	.inst	0x43960076 ; undefined
    4e94:	00004e51 	.inst	0x00004e51 ; undefined
    4e98:	00006200 	.inst	0x00006200 ; undefined
    4e9c:	41960000 	.inst	0x41960000 ; undefined
    4ea0:	004eb803 	.inst	0x004eb803 ; undefined
    4ea4:	00695a00 	.inst	0x00695a00 ; undefined
    4ea8:	00eb4196 	.inst	0x00eb4196 ; undefined
    4eac:	765a0000 	.inst	0x765a0000 ; undefined
    4eb0:	51419600 	sub	w0, w16, #0x65, lsl #12
    4eb4:	0000004e 	.inst	0x0000004e ; undefined
    4eb8:	00000062 	.inst	0x00000062 ; undefined
    4ebc:	03409600 	.inst	0x03409600 ; undefined
    4ec0:	00004ed7 	.inst	0x00004ed7 ; undefined
    4ec4:	9600695a 	bl	fffffffff801f42c <blk_mq_init_sched+0xfffffffff801e4d4>
    4ec8:	0000eb40 	.inst	0x0000eb40 ; undefined
    4ecc:	00765a00 	.inst	0x00765a00 ; undefined
    4ed0:	4e514096 	.inst	0x4e514096 ; undefined
    4ed4:	58000000 	ldr	x0, 4ed4 <.debug_info+0x4ed4>
    4ed8:	00000000 	.inst	0x00000000 ; undefined
    4edc:	01301618 	.inst	0x01301618 ; undefined
    4ee0:	06030000 	.inst	0x06030000 ; undefined
    4ee4:	5300004f 	ubfx	w15, w2, #0, #1
    4ee8:	00004ef8 	.inst	0x00004ef8 ; undefined
    4eec:	00000055 	.inst	0x00000055 ; undefined
    4ef0:	30181800 	adr	x0, 351f1 <blk_mq_init_sched+0x34299>
    4ef4:	00000001 	.inst	0x00000001 ; undefined
    4ef8:	00005556 	.inst	0x00005556 ; undefined
    4efc:	19180000 	.inst	0x19180000 ; undefined
    4f00:	00000130 	.inst	0x00000130 ; undefined
    4f04:	00390000 	.inst	0x00390000 ; NYI
    4f08:	09000000 	.inst	0x09000000 ; undefined
    4f0c:	00eb0126 	.inst	0x00eb0126 ; undefined
    4f10:	38030000 	sturb	w0, [x0, #48]
    4f14:	2d00004f 	stp	s15, s0, [x2]
    4f18:	26090069 	.inst	0x26090069 ; undefined
    4f1c:	0000bb01 	.inst	0x0000bb01 ; undefined
    4f20:	00762d00 	.inst	0x00762d00 ; undefined
    4f24:	51012609 	sub	w9, w16, #0x49
    4f28:	2f00004e 	.inst	0x2f00004e ; undefined
    4f2c:	00706d74 	.inst	0x00706d74 ; undefined
    4f30:	fd012609 	str	d9, [x16, #584]
    4f34:	00000000 	.inst	0x00000000 ; undefined
    4f38:	00000062 	.inst	0x00000062 ; undefined
    4f3c:	03b30900 	.inst	0x03b30900 ; undefined
    4f40:	00004f57 	.inst	0x00004f57 ; undefined
    4f44:	0900695a 	.inst	0x0900695a ; undefined
    4f48:	0000bbb3 	.inst	0x0000bbb3 ; undefined
    4f4c:	00765a00 	.inst	0x00765a00 ; undefined
    4f50:	4e51b309 	.inst	0x4e51b309 ; undefined
    4f54:	62000000 	.inst	0x62000000 ; undefined
    4f58:	00000000 	.inst	0x00000000 ; undefined
    4f5c:	7603b109 	.inst	0x7603b109 ; undefined
    4f60:	5a00004f 	sbc	w15, w2, w0
    4f64:	b1090069 	adds	x9, x3, #0x240
    4f68:	000000bb 	.inst	0x000000bb ; undefined
    4f6c:	0900765a 	.inst	0x0900765a ; undefined
    4f70:	004e51b1 	.inst	0x004e51b1 ; undefined
    4f74:	00620000 	.inst	0x00620000 ; undefined
    4f78:	09000000 	.inst	0x09000000 ; undefined
    4f7c:	4f9503b0 	.inst	0x4f9503b0 ; undefined
    4f80:	695a0000 	.inst	0x695a0000 ; undefined
    4f84:	bbb00900 	.inst	0xbbb00900 ; undefined
    4f88:	5a000000 	sbc	w0, w0, w0
    4f8c:	b0090076 	adrp	x22, 12011000 <blk_mq_init_sched+0x120100a8>
    4f90:	00004e51 	.inst	0x00004e51 ; undefined
    4f94:	00005800 	.inst	0x00005800 ; undefined
    4f98:	23080000 	.inst	0x23080000 ; undefined
    4f9c:	00000130 	.inst	0x00000130 ; undefined
    4fa0:	004fc303 	.inst	0x004fc303 ; undefined
    4fa4:	656b5a00 	fnmla	z0.h, p6/m, z16.h, z11.h
    4fa8:	23080079 	.inst	0x23080079 ; undefined
    4fac:	00004fc3 	.inst	0x00004fc3 ; undefined
    4fb0:	00000059 	.inst	0x00000059 ; undefined
    4fb4:	30240800 	adr	x0, 4d0b5 <blk_mq_init_sched+0x4c15d>
    4fb8:	5d000001 	.inst	0x5d000001 ; undefined
    4fbc:	00000000 	.inst	0x00000000 ; undefined
    4fc0:	0a003008 	and	w8, w0, w0, lsl #12
    4fc4:	0001a908 	.inst	0x0001a908 ; undefined
    4fc8:	00006200 	.inst	0x00006200 ; undefined
    4fcc:	e50a0000 	.inst	0xe50a0000 ; undefined
    4fd0:	004ffe03 	.inst	0x004ffe03 ; undefined
    4fd4:	00695a00 	.inst	0x00695a00 ; undefined
    4fd8:	00bbe50a 	.inst	0x00bbe50a ; undefined
    4fdc:	765a0000 	.inst	0x765a0000 ; undefined
    4fe0:	51e50a00 	.inst	0x51e50a00 ; undefined
    4fe4:	5500004e 	.inst	0x5500004e ; undefined
    4fe8:	00000000 	.inst	0x00000000 ; undefined
    4fec:	00bbe50a 	.inst	0x00bbe50a ; undefined
    4ff0:	745b0000 	.inst	0x745b0000 ; undefined
    4ff4:	0a00706d 	and	w13, w3, w0, lsl #28
    4ff8:	0000fde5 	.inst	0x0000fde5 ; undefined
    4ffc:	00620000 	.inst	0x00620000 ; undefined
    5000:	0a000000 	and	w0, w0, w0
    5004:	503303de 	adr	x30, 6b07e <blk_mq_init_sched+0x6a126>
    5008:	695a0000 	.inst	0x695a0000 ; undefined
    500c:	bbde0a00 	.inst	0xbbde0a00 ; undefined
    5010:	5a000000 	sbc	w0, w0, w0
    5014:	de0a0076 	.inst	0xde0a0076 ; undefined
    5018:	00004e51 	.inst	0x00004e51 ; undefined
    501c:	00000055 	.inst	0x00000055 ; undefined
    5020:	bbde0a00 	.inst	0xbbde0a00 ; undefined
    5024:	5b000000 	.inst	0x5b000000 ; undefined
    5028:	00706d74 	.inst	0x00706d74 ; undefined
    502c:	00fdde0a 	.inst	0x00fdde0a ; undefined
    5030:	58000000 	ldr	x0, 5030 <.debug_info+0x5030>
    5034:	00000000 	.inst	0x00000000 ; undefined
    5038:	00ebd30a 	.inst	0x00ebd30a ; undefined
    503c:	6c030000 	stnp	d0, d0, [x0, #48]
    5040:	5a000050 	sbc	w16, w2, w0
    5044:	d30a0069 	.inst	0xd30a0069 ; undefined
    5048:	000000bb 	.inst	0x000000bb ; undefined
    504c:	0a00765a 	and	w26, w18, w0, lsl #29
    5050:	004e51d3 	.inst	0x004e51d3 ; undefined
    5054:	00005500 	.inst	0x00005500 ; undefined
    5058:	d30a0000 	.inst	0xd30a0000 ; undefined
    505c:	000000bb 	.inst	0x000000bb ; undefined
    5060:	706d745b 	adr	x27, dfeeb <blk_mq_init_sched+0xdef93>
    5064:	fdd30a00 	.inst	0xfdd30a00 ; undefined
    5068:	00000000 	.inst	0x00000000 ; undefined
    506c:	00000062 	.inst	0x00000062 ; undefined
    5070:	03d20a00 	.inst	0x03d20a00 ; undefined
    5074:	000050a1 	.inst	0x000050a1 ; undefined
    5078:	0a00695a 	and	w26, w10, w0, lsl #26
    507c:	0000bbd2 	.inst	0x0000bbd2 ; undefined
    5080:	00765a00 	.inst	0x00765a00 ; undefined
    5084:	4e51d20a 	.inst	0x4e51d20a ; undefined
    5088:	00550000 	.inst	0x00550000 ; undefined
    508c:	0a000000 	and	w0, w0, w0
    5090:	0000bbd2 	.inst	0x0000bbd2 ; undefined
    5094:	6d745b00 	ldp	d0, d22, [x24, #-192]
    5098:	d20a0070 	eor	x16, x3, #0x40000000400000
    509c:	000000fd 	.inst	0x000000fd ; undefined
    50a0:	00006200 	.inst	0x00006200 ; undefined
    50a4:	b89b0000 	ldursw	x0, [x0, #-80]
    50a8:	0050cf03 	.inst	0x0050cf03 ; undefined
    50ac:	74705a00 	.inst	0x74705a00 ; undefined
    50b0:	b89b0072 	ldursw	x18, [x3, #-80]
    50b4:	00004d75 	.inst	0x00004d75 ; undefined
    50b8:	00000059 	.inst	0x00000059 ; undefined
    50bc:	47b89b00 	.inst	0x47b89b00 ; undefined
    50c0:	59000001 	.inst	0x59000001 ; undefined
    50c4:	00000000 	.inst	0x00000000 ; undefined
    50c8:	005fb99b 	.inst	0x005fb99b ; undefined
    50cc:	58000000 	ldr	x0, 50cc <.debug_info+0x50cc>
    50d0:	00000000 	.inst	0x00000000 ; undefined
    50d4:	01302c9c 	.inst	0x01302c9c ; undefined
    50d8:	f4030000 	.inst	0xf4030000 ; undefined
    50dc:	5a000050 	sbc	w16, w2, w0
    50e0:	2c9c0070 	stp	s16, s0, [x3], #224
    50e4:	00004d75 	.inst	0x00004d75 ; undefined
    50e8:	00000059 	.inst	0x00000059 ; undefined
    50ec:	762c9c00 	.inst	0x762c9c00 ; undefined
    50f0:	00000000 	.inst	0x00000000 ; undefined
    50f4:	00000058 	.inst	0x00000058 ; undefined
    50f8:	30289c00 	adr	x0, 56479 <blk_mq_init_sched+0x55521>
    50fc:	03000001 	.inst	0x03000001 ; undefined
    5100:	00005119 	.inst	0x00005119 ; undefined
    5104:	9c00705a 	ldr	q26, 5f0c <blk_mq_init_sched+0x4fb4>
    5108:	004d7528 	.inst	0x004d7528 ; undefined
    510c:	00005900 	.inst	0x00005900 ; undefined
    5110:	289c0000 	stp	w0, w0, [x0], #224
    5114:	00000076 	.inst	0x00000076 ; undefined
    5118:	2a2a6600 	orn	w0, w16, w10, lsl #25
	...
    5124:	00980000 	.inst	0x00980000 ; undefined
    5128:	00000000 	.inst	0x00000000 ; undefined
    512c:	9c010000 	ldr	q0, 712c <blk_mq_init_sched+0x61d4>
    5130:	000051cd 	.inst	0x000051cd ; undefined
    5134:	002a374b 	.inst	0x002a374b ; NYI
    5138:	4b640100 	.inst	0x4b640100 ; undefined
    513c:	00002a41 	.inst	0x00002a41 ; undefined
    5140:	4d426601 	.inst	0x4d426601 ; undefined
    5144:	0100002a 	.inst	0x0100002a ; undefined
    5148:	2a594265 	orr	w5, w19, w25, lsr #16
    514c:	63010000 	.inst	0x63010000 ; undefined
    5150:	0045b849 	.inst	0x0045b849 ; undefined
	...
    515c:	00000400 	.inst	0x00000400 ; undefined
    5160:	00000000 	.inst	0x00000000 ; undefined
    5164:	02250100 	.inst	0x02250100 ; undefined
    5168:	00005172 	.inst	0x00005172 ; undefined
    516c:	0045c834 	.inst	0x0045c834 ; undefined
    5170:	2a470000 	orr	w0, w0, w7, lsr #0
    5174:	0000002a 	.inst	0x0000002a ; undefined
    5178:	00000000 	.inst	0x00000000 ; undefined
    517c:	0c000000 	st4	{v0.8b-v3.8b}, [x0]
    5180:	00000000 	.inst	0x00000000 ; undefined
    5184:	34000000 	cbz	w0, 5184 <.debug_info+0x5184>
    5188:	00002a41 	.inst	0x00002a41 ; undefined
    518c:	002a3734 	.inst	0x002a3734 ; NYI
    5190:	00004100 	.inst	0x00004100 ; undefined
    5194:	00000000 	.inst	0x00000000 ; undefined
    5198:	000c0000 	.inst	0x000c0000 ; undefined
    519c:	00000000 	.inst	0x00000000 ; undefined
    51a0:	42380000 	.inst	0x42380000 ; undefined
    51a4:	38000051 	sturb	w17, [x2]
    51a8:	00005149 	.inst	0x00005149 ; undefined
    51ac:	002a6435 	.inst	0x002a6435 ; NYI
	...
    51b8:	00000c00 	.inst	0x00000c00 ; undefined
    51bc:	00000000 	.inst	0x00000000 ; undefined
    51c0:	022c0100 	.inst	0x022c0100 ; undefined
    51c4:	002a7134 	.inst	0x002a7134 ; NYI
    51c8:	00000000 	.inst	0x00000000 ; undefined
    51cc:	44406700 	.inst	0x44406700 ; undefined
	...
    51d8:	00400000 	.inst	0x00400000 ; undefined
    51dc:	00000000 	.inst	0x00000000 ; undefined
    51e0:	9c010000 	ldr	q0, 71e0 <blk_mq_init_sched+0x6288>
    51e4:	000053bb 	.inst	0x000053bb ; undefined
    51e8:	00444c4b 	.inst	0x00444c4b ; undefined
    51ec:	40500100 	.inst	0x40500100 ; undefined
    51f0:	00004c50 	.inst	0x00004c50 ; undefined
	...
    51fc:	00000004 	.inst	0x00000004 ; undefined
    5200:	00000000 	.inst	0x00000000 ; undefined
    5204:	52153501 	eor	w1, w8, #0x1fff800
    5208:	6a340000 	bics	w0, w0, w20
    520c:	3400004c 	cbz	w12, 5214 <.debug_info+0x5214>
    5210:	00004c60 	.inst	0x00004c60 ; undefined
    5214:	4ca43e00 	.inst	0x4ca43e00 ; undefined
	...
    5224:	38010000 	sturb	w0, [x0, #16]
    5228:	004cb034 	.inst	0x004cb034 ; undefined
    522c:	4cba3400 	.inst	0x4cba3400 ; undefined
    5230:	e63e0000 	.inst	0xe63e0000 ; undefined
    5234:	0000004c 	.inst	0x0000004c ; undefined
	...
    5240:	98000000 	ldrsw	x0, 5240 <.debug_info+0x5240>
    5244:	4cfc341d 	.inst	0x4cfc341d ; undefined
    5248:	f2340000 	ands	x0, x0, #0x100000001000
    524c:	3e00004c 	.inst	0x3e00004c ; undefined
    5250:	00004dc8 	.inst	0x00004dc8 ; undefined
	...
    5260:	df341299 	.inst	0xdf341299 ; undefined
    5264:	3400004d 	cbz	w13, 526c <.debug_info+0x526c>
    5268:	00004dd5 	.inst	0x00004dd5 ; undefined
    526c:	004e9936 	.inst	0x004e9936 ; undefined
	...
    527c:	01491900 	.inst	0x01491900 ; undefined
    5280:	004eae34 	.inst	0x004eae34 ; undefined
    5284:	4ea53400 	cmgt	v0.4s, v0.4s, v5.4s
    5288:	d7400000 	.inst	0xd7400000 ; undefined
    528c:	0000004e 	.inst	0x0000004e ; undefined
    5290:	00000000 	.inst	0x00000000 ; undefined
    5294:	08000000 	stxrb	w0, w0, [x0]
    5298:	00000000 	.inst	0x00000000 ; undefined
    529c:	96000000 	bl	fffffffff800529c <blk_mq_init_sched+0xfffffffff8004344>
    52a0:	00535241 	.inst	0x00535241 ; undefined
    52a4:	4ee74500 	sshl	v0.2d, v8.2d, v7.2d
	...
    52b0:	00040000 	.inst	0x00040000 ; undefined
    52b4:	00000000 	.inst	0x00000000 ; undefined
    52b8:	52fd0000 	.inst	0x52fd0000 ; undefined
    52bc:	ec380000 	.inst	0xec380000 ; undefined
    52c0:	4300004e 	.inst	0x4300004e ; undefined
    52c4:	00004f95 	.inst	0x00004f95 ; undefined
	...
    52d0:	00000004 	.inst	0x00000004 ; undefined
    52d4:	00000000 	.inst	0x00000000 ; undefined
    52d8:	b0341818 	adrp	x24, 68306000 <blk_mq_init_sched+0x683050a8>
    52dc:	3400004f 	cbz	w15, 52e4 <.debug_info+0x52e4>
    52e0:	00004fa5 	.inst	0x00004fa5 ; undefined
    52e4:	00000041 	.inst	0x00000041 ; undefined
    52e8:	00000000 	.inst	0x00000000 ; undefined
    52ec:	00000400 	.inst	0x00000400 ; undefined
    52f0:	00000000 	.inst	0x00000000 ; undefined
    52f4:	4fbb4600 	.inst	0x4fbb4600 ; undefined
    52f8:	00000000 	.inst	0x00000000 ; undefined
    52fc:	4ef84700 	sshl	v0.2d, v24.2d, v24.2d
	...
    5308:	00040000 	.inst	0x00040000 ; undefined
    530c:	00000000 	.inst	0x00000000 ; undefined
    5310:	f9380000 	str	x0, [x0, #28672]
    5314:	4300004e 	.inst	0x4300004e ; undefined
    5318:	00004f95 	.inst	0x00004f95 ; undefined
	...
    5324:	00000004 	.inst	0x00000004 ; undefined
    5328:	00000000 	.inst	0x00000000 ; undefined
    532c:	b0341918 	adrp	x24, 68326000 <blk_mq_init_sched+0x683250a8>
    5330:	3400004f 	cbz	w15, 5338 <.debug_info+0x5338>
    5334:	00004fa5 	.inst	0x00004fa5 ; undefined
    5338:	00000041 	.inst	0x00000041 ; undefined
    533c:	00000000 	.inst	0x00000000 ; undefined
    5340:	00000400 	.inst	0x00000400 ; undefined
    5344:	00000000 	.inst	0x00000000 ; undefined
    5348:	4fbb4600 	.inst	0x4fbb4600 ; undefined
    534c:	00000000 	.inst	0x00000000 ; undefined
    5350:	57400000 	.inst	0x57400000 ; undefined
    5354:	0000004f 	.inst	0x0000004f ; undefined
    5358:	00000000 	.inst	0x00000000 ; undefined
    535c:	08000000 	stxrb	w0, w0, [x0]
    5360:	00000000 	.inst	0x00000000 ; undefined
    5364:	96000000 	bl	fffffffff8005364 <blk_mq_init_sched+0xfffffffff800440c>
    5368:	00537841 	.inst	0x00537841 ; undefined
    536c:	4f6c3400 	srsra	v0.2d, v0.2d, #20
    5370:	63340000 	.inst	0x63340000 ; undefined
    5374:	0000004f 	.inst	0x0000004f ; undefined
    5378:	004ffe43 	.inst	0x004ffe43 ; undefined
	...
    5384:	00000800 	.inst	0x00000800 ; undefined
    5388:	00000000 	.inst	0x00000000 ; undefined
    538c:	34419600 	cbz	w0, 8864c <blk_mq_init_sched+0x876f4>
    5390:	00005013 	.inst	0x00005013 ; undefined
    5394:	00500a34 	.inst	0x00500a34 ; undefined
    5398:	00004100 	.inst	0x00004100 ; undefined
    539c:	00000000 	.inst	0x00000000 ; undefined
    53a0:	00080000 	.inst	0x00080000 ; undefined
    53a4:	00000000 	.inst	0x00000000 ; undefined
    53a8:	1c380000 	ldr	s0, 753a8 <blk_mq_init_sched+0x74450>
    53ac:	38000050 	sturb	w16, [x2]
    53b0:	00005027 	.inst	0x00005027 ; undefined
    53b4:	00000000 	.inst	0x00000000 ; undefined
    53b8:	68000000 	.inst	0x68000000 ; undefined
    53bc:	000028b1 	.inst	0x000028b1 ; undefined
	...
    53c8:	00000090 	.inst	0x00000090 ; undefined
    53cc:	00000000 	.inst	0x00000000 ; undefined
    53d0:	be4b9c01 	.inst	0xbe4b9c01 ; undefined
    53d4:	01000028 	.inst	0x01000028 ; undefined
    53d8:	28c83864 	ldp	w4, w14, [x3], #64
    53dc:	d4380000 	brk	#0xc000
    53e0:	49000028 	.inst	0x49000028 ; undefined
    53e4:	000045b8 	.inst	0x000045b8 ; undefined
	...
    53f0:	00000004 	.inst	0x00000004 ; undefined
    53f4:	00000000 	.inst	0x00000000 ; undefined
    53f8:	05028a01 	orr	z1.d, z1.d, #0xffff800000000000
    53fc:	34000054 	cbz	w20, 5404 <.debug_info+0x5404>
    5400:	000045c8 	.inst	0x000045c8 ; undefined
    5404:	28b14700 	stp	w0, w17, [x24], #-120
	...
    5410:	00400000 	.inst	0x00400000 ; undefined
    5414:	00000000 	.inst	0x00000000 ; undefined
    5418:	be340000 	.inst	0xbe340000 ; undefined
    541c:	41000028 	.inst	0x41000028 ; undefined
	...
    5428:	00000040 	.inst	0x00000040 ; undefined
    542c:	00000000 	.inst	0x00000000 ; undefined
    5430:	0053d938 	.inst	0x0053d938 ; undefined
    5434:	53de4200 	.inst	0x53de4200 ; undefined
    5438:	63010000 	.inst	0x63010000 ; undefined
    543c:	00000000 	.inst	0x00000000 ; undefined

Disassembly of section .debug_abbrev:

0000000000000000 <.debug_abbrev>:

   0:	25011101 	cmpge	p1.b, p4/z, z8.b, #1
	struct request *rqb = container_of(b, struct request, queuelist);
   4:	030b130e 	.inst	0x030b130e ; undefined

   8:	110e1b0e 	add	w14, w24, #0x386
static bool blk_mq_dispatch_hctx_list(struct list_head *rq_list)
   c:	10071201 	adr	x1, e24c <blk_mq_init_sched+0xd2f4>

  10:	02000017 	.inst	0x02000017 ; undefined
static bool blk_mq_dispatch_hctx_list(struct list_head *rq_list)
  14:	0b0b0024 	add	w4, w1, w11
  18:	0e030b3e 	.inst	0x0e030b3e ; undefined
  1c:	16030000 	b	fffffffff80c001c <blk_mq_init_sched+0xfffffffff80bf0c4>
static inline bool rq_mergeable(struct request *rq)
  20:	3a0e0300 	adcs	w0, w24, w14
		return false;
  24:	490b3b0b 	.inst	0x490b3b0b ; undefined
  28:	04000013 	add	z19.b, p0/m, z19.b, z0.b
  2c:	0b0b0024 	add	w4, w1, w11
  30:	08030b3e 	stxrb	w3, w30, [x25]
		return false;
  34:	26050000 	.inst	0x26050000 ; undefined
  38:	00134900 	.inst	0x00134900 ; undefined
  3c:	00160600 	.inst	0x00160600 ; undefined
  40:	0b3a0803 	add	w3, w0, w26, uxtb #2
  44:	13490b3b 	.inst	0x13490b3b ; undefined
{
  48:	04070000 	.inst	0x04070000 ; undefined
  4c:	0b0b3e01 	add	w1, w16, w11, lsl #15
		return false;
  50:	3a13490b 	.inst	0x3a13490b ; undefined
  54:	010b3b0b 	.inst	0x010b3b0b ; undefined
  58:	08000013 	stxrb	w0, w19, [x0]
  5c:	0e030028 	tbl	v8.8b, {v1.16b}, v3.8b
	if (rq->cmd_flags & REQ_NOMERGE_FLAGS)
  60:	00000b1c 	.inst	0x00000b1c ; undefined
  64:	49003509 	.inst	0x49003509 ; undefined
  68:	0a000013 	and	w19, w0, w0
  6c:	0b0b000f 	add	w15, w0, w11
  70:	00001349 	.inst	0x00001349 ; undefined
static bool blk_mq_sched_bypass_insert(struct blk_mq_hw_ctx *hctx,
  74:	3c00130b 	stur	b11, [x24, #1]
  78:	0c000019 	st4	{v25.8b-v28.8b}, [x0]
  7c:	0e030013 	tbl	v19.8b, {v0.16b}, v3.8b
				       struct request *rq)
  80:	0000193c 	.inst	0x0000193c ; undefined
  84:	0b000f0d 	add	w13, w24, w0, lsl #3
{
  88:	0e00000b 	tbl	v11.8b, {v0.16b}, v0.8b
  8c:	00000026 	.inst	0x00000026 ; undefined
  90:	0300340f 	.inst	0x0300340f ; undefined
  94:	3b0b3a0e 	.inst	0x3b0b3a0e ; undefined
	struct elevator_queue *e = q->elevator;
  98:	3f13490b 	.inst	0x3f13490b ; undefined
  9c:	00193c19 	.inst	0x00193c19 ; undefined
  a0:	00161000 	.inst	0x00161000 ; undefined
  a4:	0b3a0e03 	add	w3, w16, w26, uxtb #3
  a8:	1349053b 	.inst	0x1349053b ; undefined
  ac:	15110000 	b	44400ac <blk_mq_init_sched+0x443f154>
  b0:	49192701 	.inst	0x49192701 ; undefined
  b4:	00130113 	.inst	0x00130113 ; undefined
  b8:	00051200 	.inst	0x00051200 ; undefined
  bc:	00001349 	.inst	0x00001349 ; undefined

  c0:	49010113 	.inst	0x49010113 ; undefined
	struct elevator_queue *e = q->elevator;
  c4:	00130113 	.inst	0x00130113 ; undefined
  c8:	00211400 	.inst	0x00211400 ; NYI
	bool multi_hctxs = false, run_queue = false;
  cc:	0b2f1349 	add	w9, w26, w15, uxtb #4
	struct elevator_queue *e = q->elevator;
  d0:	34150000 	cbz	w0, 2a0d0 <blk_mq_init_sched+0x29178>
  d4:	3a0e0300 	adcs	w0, w24, w14
  d8:	49053b0b 	.inst	0x49053b0b ; undefined
	else
  dc:	3c193f13 	str	b19, [x24, #-109]!
	bool dispatched = false, busy = false;
  e0:	16000019 	b	fffffffff8000144 <blk_mq_init_sched+0xfffffffff7fff1ec>

  e4:	00000021 	.inst	0x00000021 ; undefined
	else
  e8:	27001517 	.inst	0x27001517 ; undefined
	do {
  ec:	18000019 	ldr	w25, ec <.debug_abbrev+0xec>
			break;
  f0:	0e030104 	tbl	v4.8b, {v8.16b}, v3.8b
		max_dispatch = hctx->queue->nr_requests;
  f4:	0b0b0b3e 	add	w30, w25, w11, lsl #2
  f8:	0b3a1349 	add	w9, w26, w26, uxtb #4
		/*
  fc:	13010b3b 	sbfx	w27, w25, #1, #2

 100:	34190000 	cbz	w0, 32100 <blk_mq_init_sched+0x311a8>
 104:	3a0e0300 	adcs	w0, w24, w14
 108:	490b3b0b 	.inst	0x490b3b0b ; undefined
 10c:	00193f13 	.inst	0x00193f13 ; undefined
 110:	00151a00 	.inst	0x00151a00 ; undefined
 114:	13491927 	.inst	0x13491927 ; undefined
 118:	341b0000 	cbz	w0, 36118 <blk_mq_init_sched+0x351c0>
	struct list_head *next = smp_load_acquire(&head->next);
 11c:	3a0e0300 	adcs	w0, w24, w14
	return (next == head) && (next == head->prev);
 120:	3f0b3b0b 	.inst	0x3f0b3b0b ; undefined
 124:	00193c19 	.inst	0x00193c19 ; undefined
 128:	00131c00 	.inst	0x00131c00 ; undefined
 12c:	193c0803 	.inst	0x193c0803 ; undefined
 130:	341d0000 	cbz	w0, 3a130 <blk_mq_init_sched+0x391d8>

 134:	3a0e0300 	adcs	w0, w24, w14
 138:	490b3b0b 	.inst	0x490b3b0b ; undefined
 13c:	88193f13 	stxr	w25, w19, [x24]
static inline void blk_mq_set_rq_budget_token(struct request *rq, int token)
 140:	193c0b01 	.inst	0x193c0b01 ; undefined
 144:	281e0000 	stnp	w0, w0, [x0, #240]
 148:	1c0e0300 	ldr	s0, 1c1a8 <blk_mq_init_sched+0x1b250>

 14c:	1f000006 	fmadd	s6, s0, s0, s0
			blk_mq_put_dispatch_budget(q, budget_token);
 150:	0e030104 	tbl	v4.8b, {v8.16b}, v3.8b
 154:	0b0b0b3e 	add	w30, w25, w11, lsl #2
 158:	0b3a1349 	add	w9, w26, w26, uxtb #4
 15c:	1301053b 	sbfx	w27, w9, #1, #1
 160:	28200000 	stnp	w0, w0, [x0, #-256]
			/*
 164:	1c0e0300 	ldr	s0, 1c1c4 <blk_mq_init_sched+0x1b26c>
static inline int blk_mq_get_dispatch_budget(struct request_queue *q)
 168:	2100000d 	.inst	0x2100000d ; undefined
 16c:	0e030017 	tbl	v23.8b, {v0.16b}, v3.8b
 170:	0000193c 	.inst	0x0000193c ; undefined
{
 174:	49002122 	.inst	0x49002122 ; undefined
 178:	00052f13 	.inst	0x00052f13 ; undefined
 17c:	01042300 	.inst	0x01042300 ; undefined
			blk_mq_delay_run_hw_queues(q, BLK_MQ_BUDGET_DELAY);
 180:	0b0b0b3e 	add	w30, w25, w11, lsl #2
		/*
 184:	0b3a1349 	add	w9, w26, w26, uxtb #4
 188:	1301053b 	sbfx	w27, w9, #1, #1
 18c:	15240000 	b	490018c <blk_mq_init_sched+0x48ff234>
 190:	01192701 	.inst	0x01192701 ; undefined
 194:	25000013 	cmpgt	p3.b, p0/z, z0.b, #0
static int blk_mq_do_dispatch_sched(struct blk_mq_hw_ctx *hctx)
 198:	0e030016 	tbl	v22.8b, {v0.16b}, v3.8b
 19c:	0b3b0b3a 	add	w26, w25, w27, uxtb #2
 1a0:	01881349 	.inst	0x01881349 ; undefined
 1a4:	2600000b 	.inst	0x2600000b ; undefined
 1a8:	0e030028 	tbl	v8.8b, {v1.16b}, v3.8b
 1ac:	0000051c 	.inst	0x0000051c ; undefined
 1b0:	03003427 	.inst	0x03003427 ; undefined
 1b4:	3b0b3a0e 	.inst	0x3b0b3a0e ; undefined
 1b8:	0213490b 	.inst	0x0213490b ; undefined
 1bc:	28000018 	stnp	w24, w0, [x0]
 1c0:	0e030034 	tbl	v20.8b, {v1.16b}, v3.8b
 1c4:	053b0b3a 	ext	z26.b, z26.b, z25.b, #218
 1c8:	18021349 	ldr	w9, 4430 <blk_mq_init_sched+0x34d8>
 1cc:	2e290000 	uaddl	v0.8h, v0.8b, v9.8b
 1d0:	03193f01 	.inst	0x03193f01 ; undefined
static inline int blk_mq_get_rq_budget_token(struct request *rq)
 1d4:	3b0b3a0e 	.inst	0x3b0b3a0e ; undefined
 1d8:	11192705 	add	w5, w24, #0x649
 1dc:	40071201 	.inst	0x40071201 ; undefined
 1e0:	19429618 	.inst	0x19429618 ; undefined
 1e4:	00001301 	.inst	0x00001301 ; undefined
{
 1e8:	0300052a 	.inst	0x0300052a ; undefined
 1ec:	3b0b3a08 	.inst	0x3b0b3a08 ; undefined
 1f0:	02134905 	.inst	0x02134905 ; undefined
	__list_add(new, head->prev, head);
 1f4:	2b000018 	adds	w24, w0, w0
		if (rq->mq_hctx != hctx)
 1f8:	08030034 	stxrb	w3, w20, [x1]
	new->prev = prev;
 1fc:	053b0b3a 	ext	z26.b, z26.b, z25.b, #218
	} while (count < max_dispatch);
 200:	18021349 	ldr	w9, 4468 <blk_mq_init_sched+0x3510>
	next->prev = new;
 204:	2e2c0000 	uaddl	v0.8h, v0.8b, v12.8b
			multi_hctxs = true;
 208:	03193f01 	.inst	0x03193f01 ; undefined
	WRITE_ONCE(prev->next, new);
 20c:	3b0b3a0e 	.inst	0x3b0b3a0e ; undefined

 210:	20192705 	.inst	0x20192705 ; undefined
		/*
 214:	0013010b 	.inst	0x0013010b ; undefined
 218:	00052d00 	.inst	0x00052d00 ; undefined
	} while (count < max_dispatch);
 21c:	0b3a0803 	add	w3, w0, w26, uxtb #2
 220:	1349053b 	.inst	0x1349053b ; undefined
 224:	342e0000 	cbz	w0, 5c224 <blk_mq_init_sched+0x5b2cc>
	if (!count) {
 228:	3a0e0300 	adcs	w0, w24, w14
 22c:	49053b0b 	.inst	0x49053b0b ; undefined
			blk_mq_delay_run_hw_queues(q, BLK_MQ_BUDGET_DELAY);
 230:	2f000013 	.inst	0x2f000013 ; undefined
	LIST_HEAD(rq_list);
 234:	08030034 	stxrb	w3, w20, [x1]
		 * Requests from different hctx may be dequeued from some
 238:	053b0b3a 	ext	z26.b, z26.b, z25.b, #218
			dispatched |= blk_mq_dispatch_hctx_list(&rq_list);
 23c:	00001349 	.inst	0x00001349 ; undefined
 240:	3f012e30 	.inst	0x3f012e30 ; undefined
	LIST_HEAD(rq_list);
 244:	3a0e0319 	adcs	w25, w24, w14
			dispatched |= blk_mq_dispatch_hctx_list(&rq_list);
 248:	27053b0b 	.inst	0x27053b0b ; undefined
 24c:	11134919 	add	w25, w8, #0x4d2
 250:	40071201 	.inst	0x40071201 ; undefined
 254:	19429618 	.inst	0x19429618 ; undefined
	LIST_HEAD(hctx_list);
 258:	00001301 	.inst	0x00001301 ; undefined
			list_cut_before(&hctx_list, rq_list, &rq->queuelist);
 25c:	03000a31 	.inst	0x03000a31 ; undefined
 260:	3b0b3a0e 	.inst	0x3b0b3a0e ; undefined
	struct request *rq;
 264:	00011105 	.inst	0x00011105 ; undefined
			list_cut_before(&hctx_list, rq_list, &rq->queuelist);
 268:	010b3200 	.inst	0x010b3200 ; undefined

 26c:	13011755 	sbfx	w21, w26, #1, #5
			list_cut_before(&hctx_list, rq_list, &rq->queuelist);
 270:	1d330000 	.inst	0x1d330000 ; undefined
			goto dispatch;
 274:	52133101 	eor	w1, w8, #0x3ffe000
	list_for_each_entry(rq, rq_list, queuelist) {
 278:	58175501 	ldr	x1, 2ed18 <blk_mq_init_sched+0x2ddc0>
			goto dispatch;
 27c:	0105590b 	.inst	0x0105590b ; undefined
 280:	34000013 	cbz	w19, 280 <.debug_abbrev+0x280>
 284:	13310005 	.inst	0x13310005 ; undefined
 288:	1d350000 	.inst	0x1d350000 ; undefined
 28c:	11133101 	add	w1, w8, #0x4cc
 290:	58071201 	ldr	x1, e4d0 <blk_mq_init_sched+0xd578>
			list_cut_before(&hctx_list, rq_list, &rq->queuelist);
 294:	0005590b 	.inst	0x0005590b ; undefined
	list_splice_tail_init(rq_list, &hctx_list);
 298:	011d3600 	.inst	0x011d3600 ; undefined
			list_cut_before(&hctx_list, rq_list, &rq->queuelist);
 29c:	01521331 	.inst	0x01521331 ; undefined
 2a0:	0b581755 	add	w21, w26, w24, lsr #5
 2a4:	00000559 	.inst	0x00000559 ; undefined
 2a8:	55010b37 	.inst	0x55010b37 ; undefined
	return READ_ONCE(head->next) == head;
 2ac:	38000017 	sturb	w23, [x0]
	if (!list_empty(list)) {
 2b0:	13310034 	.inst	0x13310034 ; undefined
 2b4:	2e390000 	uaddl	v0.8h, v0.8b, v25.8b
	struct list_head *last = list->prev;
 2b8:	3a0e0301 	adcs	w1, w24, w14
	prev->next = first;
 2bc:	27053b0b 	.inst	0x27053b0b ; undefined
	first->prev = prev;
 2c0:	20134919 	.inst	0x20134919 ; undefined
	last->next = next;
 2c4:	0013010b 	.inst	0x0013010b ; undefined
	WRITE_ONCE(list->next, list);
 2c8:	00053a00 	.inst	0x00053a00 ; undefined
	list->prev = list;
 2cc:	0b3a0e03 	add	w3, w16, w26, uxtb #3
	next->prev = last;
 2d0:	1349053b 	.inst	0x1349053b ; undefined

 2d4:	2e3b0000 	uaddl	v0.8h, v0.8b, v27.8b
 2d8:	3a0e0301 	adcs	w1, w24, w14
	return READ_ONCE(head->next) == head;
 2dc:	27053b0b 	.inst	0x27053b0b ; undefined
 2e0:	010b2019 	.inst	0x010b2019 ; undefined
	} else {
 2e4:	3c000013 	stur	b19, [x0]
		dispatched = blk_mq_dispatch_rq_list(hctx, &rq_list, count);
 2e8:	0e030005 	tbl	v5.8b, {v0.16b}, v3.8b
 2ec:	053b0b3a 	ext	z26.b, z26.b, z25.b, #218
	return !!dispatched;
 2f0:	18021349 	ldr	w9, 4558 <blk_mq_init_sched+0x3600>
}
 2f4:	0a3d0000 	bic	w0, w0, w29
 2f8:	3a080300 	adcs	w0, w24, w8
{
 2fc:	11053b0b 	add	w11, w24, #0x14e
 300:	3e000001 	.inst	0x3e000001 ; undefined
	if (head->next == entry) {
 304:	1331011d 	.inst	0x1331011d ; undefined
 308:	17550152 	b	fffffffffd540850 <blk_mq_init_sched+0xfffffffffd53f8f8>
	list->next->prev = list;
 30c:	0b590b58 	add	w24, w26, w25, lsr #2
	list->prev = entry->prev;
 310:	1d3f0000 	.inst	0x1d3f0000 ; undefined
 314:	11133100 	add	w0, w8, #0x4cc
	list->prev->next = list;
 318:	58071201 	ldr	x1, e558 <blk_mq_init_sched+0xd600>
	entry->prev = head;
 31c:	000b590b 	.inst	0x000b590b ; undefined
	head->next = entry;
 320:	011d4000 	.inst	0x011d4000 ; undefined
 324:	01111331 	.inst	0x01111331 ; undefined
			blk_mq_delay_run_hw_queues(q, BLK_MQ_BUDGET_DELAY);
 328:	0b580712 	add	w18, w24, w24, lsr #1
 32c:	13010b59 	sbfx	w25, w26, #1, #2
		 * Requests from different hctx may be dequeued from some
 330:	0b410000 	add	w0, w0, w1, lsr #0

 334:	12011101 	and	w1, w8, #0x8000000f
 338:	42000007 	.inst	0x42000007 ; undefined
 33c:	13310034 	.inst	0x13310034 ; undefined
 340:	00001802 	.inst	0x00001802 ; undefined
 344:	31011d43 	adds	w3, w10, #0x47
	return !!dispatched;
 348:	12011113 	and	w19, w8, #0x8000000f
 34c:	590b5807 	.inst	0x590b5807 ; undefined
	WRITE_ONCE(list->next, list);
 350:	4400000b 	.inst	0x4400000b ; undefined
 354:	1331011d 	.inst	0x1331011d ; undefined
	list_for_each_entry(rq, rq_list, queuelist) {
 358:	17550152 	b	fffffffffd5408a0 <blk_mq_init_sched+0xfffffffffd53f948>
 35c:	0b590b58 	add	w24, w26, w25, lsr #2
static int blk_mq_do_dispatch_sched(struct blk_mq_hw_ctx *hctx)
 360:	00001301 	.inst	0x00001301 ; undefined
 364:	31010b45 	adds	w5, w26, #0x42
		if (hctx->sched_tags) {
 368:	12011113 	and	w19, w8, #0x8000000f
 36c:	00130107 	.inst	0x00130107 ; undefined
 370:	000a4600 	.inst	0x000a4600 ; undefined
 374:	00001331 	.inst	0x00001331 ; undefined
 378:	31010b47 	adds	w7, w26, #0x42
 37c:	12011113 	and	w19, w8, #0x8000000f
 380:	48000007 	stxrh	w0, w7, [x0]
		}
 384:	1331001d 	.inst	0x1331001d ; undefined
 388:	07120111 	.inst	0x07120111 ; undefined
 38c:	05590b58 	mov	z24.h, p9/z, #90
 390:	1d490000 	.inst	0x1d490000 ; undefined
 394:	11133101 	add	w1, w8, #0x4cc
 398:	58071201 	ldr	x1, e5d8 <blk_mq_init_sched+0xd680>
		blk_mq_exit_sched_shared_tags(q);
 39c:	0105590b 	.inst	0x0105590b ; undefined
 3a0:	4a000013 	eor	w19, w0, w0
		}
 3a4:	1331001d 	.inst	0x1331001d ; undefined
 3a8:	17550152 	b	fffffffffd5408f0 <blk_mq_init_sched+0xfffffffffd53f998>
 3ac:	05590b58 	mov	z24.h, p9/z, #90
 3b0:	054b0000 	.inst	0x054b0000 ; undefined
 3b4:	02133100 	.inst	0x02133100 ; undefined
	}
 3b8:	4c000018 	st4	{v24.16b-v27.16b}, [x0]
 3bc:	0111010b 	.inst	0x0111010b ; undefined

 3c0:	13010712 	sbfx	w18, w24, #1, #1
{
 3c4:	0b4d0000 	add	w0, w0, w13, lsr #0
 3c8:	55133101 	.inst	0x55133101 ; undefined
	if (blk_mq_is_shared_tags(flags))
 3cc:	00130117 	.inst	0x00130117 ; undefined
 3d0:	010b4e00 	.inst	0x010b4e00 ; undefined
 3d4:	17551331 	b	fffffffffd545098 <blk_mq_init_sched+0xfffffffffd544140>
 3d8:	2e4f0000 	.inst	0x2e4f0000 ; undefined
{
 3dc:	3a0e0301 	adcs	w1, w24, w14
static void blk_mq_sched_tags_teardown(struct request_queue *q, unsigned int flags)
 3e0:	27053b0b 	.inst	0x27053b0b ; undefined
 3e4:	11134919 	add	w25, w8, #0x4d2
{
 3e8:	40071201 	.inst	0x40071201 ; undefined

 3ec:	19429618 	.inst	0x19429618 ; undefined
 3f0:	00001301 	.inst	0x00001301 ; undefined
 3f4:	03012e50 	.inst	0x03012e50 ; undefined
 3f8:	3b0b3a0e 	.inst	0x3b0b3a0e ; undefined
 3fc:	4919270b 	.inst	0x4919270b ; undefined
	LIST_HEAD(rq_list);
 400:	12011113 	and	w19, w8, #0x8000000f
 404:	96184007 	bl	fffffffff8610420 <blk_mq_init_sched+0xfffffffff860f4c8>
 408:	13011942 	sbfx	w2, w10, #1, #6
 40c:	05510000 	mov	z0.h, p1/z, #0
 410:	3a0e0300 	adcs	w0, w24, w14
 414:	490b3b0b 	.inst	0x490b3b0b ; undefined
 418:	00180213 	.inst	0x00180213 ; undefined
 41c:	00345200 	.inst	0x00345200 ; NYI
 420:	0b3a0803 	add	w3, w0, w26, uxtb #2
 424:	13490b3b 	.inst	0x13490b3b ; undefined
 428:	00001802 	.inst	0x00001802 ; undefined
 42c:	01010b53 	.inst	0x01010b53 ; undefined

 430:	54000013 	.inst	0x54000013 ; undefined
	int ret = 0;
 434:	193f002e 	.inst	0x193f002e ; undefined
 438:	0b3a0e03 	add	w3, w16, w26, uxtb #3
	LIST_HEAD(rq_list);
 43c:	19270b3b 	.inst	0x19270b3b ; undefined
 440:	0000193c 	.inst	0x0000193c ; undefined
 444:	03003455 	.inst	0x03003455 ; undefined
	struct blk_mq_ctx *ctx = READ_ONCE(hctx->dispatch_from);
 448:	3b0b3a0e 	.inst	0x3b0b3a0e ; undefined
	struct request *rq;
 44c:	0013490b 	.inst	0x0013490b ; undefined
 450:	010b5600 	.inst	0x010b5600 ; undefined
static inline void blk_mq_set_rq_budget_token(struct request *rq, int token)
 454:	2e570000 	.inst	0x2e570000 ; undefined
 458:	03193f00 	.inst	0x03193f00 ; undefined
 45c:	3b0b3a0e 	.inst	0x3b0b3a0e ; undefined

 460:	3c192705 	str	b5, [x24], #-110
			blk_mq_put_dispatch_budget(q, budget_token);
 464:	58000019 	ldr	x25, 464 <.debug_abbrev+0x464>
 468:	0e03012e 	tbl	v14.8b, {v9.16b}, v3.8b
 46c:	0b3b0b3a 	add	w26, w25, w27, uxtb #2
 470:	13491927 	.inst	0x13491927 ; undefined
			/*
 474:	13010b20 	sbfx	w0, w25, #1, #2
static inline int blk_mq_get_rq_budget_token(struct request *rq)
 478:	05590000 	mov	z0.h, p9/z, #0
 47c:	3a0e0300 	adcs	w0, w24, w14
 480:	490b3b0b 	.inst	0x490b3b0b ; undefined
 484:	5a000013 	sbc	w19, w0, w0
{
 488:	08030005 	stxrb	w3, w5, [x0]
 48c:	0b3b0b3a 	add	w26, w25, w27, uxtb #2
 490:	00001349 	.inst	0x00001349 ; undefined
	__list_add(new, head, head->next);
 494:	0300345b 	.inst	0x0300345b ; undefined
		/* round robin for fair dispatch */
 498:	3b0b3a08 	.inst	0x3b0b3a08 ; undefined
	WRITE_ONCE(prev->next, new);
 49c:	0013490b 	.inst	0x0013490b ; undefined
	WRITE_ONCE(hctx->dispatch_from, ctx);
 4a0:	000a5c00 	.inst	0x000a5c00 ; undefined
 4a4:	01111331 	.inst	0x01111331 ; undefined
	next->prev = new;
 4a8:	0a5d0000 	and	w0, w0, w29, lsr #0
	new->prev = prev;
 4ac:	3a0e0300 	adcs	w0, w24, w14
	if (++idx == hctx->nr_ctx)
 4b0:	000b3b0b 	.inst	0x000b3b0b ; undefined
 4b4:	012e5e00 	.inst	0x012e5e00 ; undefined

 4b8:	0b3a0e03 	add	w3, w16, w26, uxtb #3

 4bc:	19270b3b 	.inst	0x19270b3b ; undefined
	if (++idx == hctx->nr_ctx)
 4c0:	01111349 	.inst	0x01111349 ; undefined
	WRITE_ONCE(hctx->dispatch_from, ctx);
 4c4:	18400712 	ldr	w18, 805a4 <blk_mq_init_sched+0x7f64c>
	if (++idx == hctx->nr_ctx)
 4c8:	01194297 	.inst	0x01194297 ; undefined

 4cc:	5f000013 	.inst	0x5f000013 ; undefined
 4d0:	08030005 	stxrb	w3, w5, [x0]
 4d4:	0b3b0b3a 	add	w26, w25, w27, uxtb #2
 4d8:	18021349 	ldr	w9, 4740 <blk_mq_init_sched+0x37e8>
 4dc:	2e600000 	uaddl	v0.4s, v0.4h, v0.4h

 4e0:	03193f01 	.inst	0x03193f01 ; undefined
	WRITE_ONCE(hctx->dispatch_from, ctx);
 4e4:	3b0b3a0e 	.inst	0x3b0b3a0e ; undefined
 4e8:	1119270b 	add	w11, w24, #0x649
 4ec:	40071201 	.inst	0x40071201 ; undefined
	struct list_head *next = smp_load_acquire(&head->next);
 4f0:	19429618 	.inst	0x19429618 ; undefined
	return (next == head) && (next == head->prev);
 4f4:	00001301 	.inst	0x00001301 ; undefined
 4f8:	3f012e61 	.inst	0x3f012e61 ; undefined
 4fc:	3a0e0319 	adcs	w25, w24, w14
 500:	270b3b0b 	.inst	0x270b3b0b ; undefined
 504:	010b2019 	.inst	0x010b2019 ; undefined

 508:	62000013 	.inst	0x62000013 ; undefined
 50c:	0e03012e 	tbl	v14.8b, {v9.16b}, v3.8b
 510:	0b3b0b3a 	add	w26, w25, w27, uxtb #2
 514:	0b201927 	.inst	0x0b201927 ; undefined

 518:	00001301 	.inst	0x00001301 ; undefined
 51c:	03002e63 	.inst	0x03002e63 ; undefined
 520:	3b0b3a0e 	.inst	0x3b0b3a0e ; undefined
			blk_mq_put_dispatch_budget(q, budget_token);
 524:	20192705 	.inst	0x20192705 ; undefined
 528:	6400000b 	.inst	0x6400000b ; undefined
{
 52c:	193c0017 	.inst	0x193c0017 ; undefined
 530:	35650000 	cbnz	w0, ca530 <blk_mq_init_sched+0xc95d8>
 534:	66000000 	.inst	0x66000000 ; undefined
			/*
 538:	1331012e 	.inst	0x1331012e ; undefined
 53c:	07120111 	.inst	0x07120111 ; undefined
static inline int blk_mq_get_dispatch_budget(struct request_queue *q)
 540:	42961840 	.inst	0x42961840 ; undefined
 544:	00130119 	.inst	0x00130119 ; undefined
 548:	012e6700 	.inst	0x012e6700 ; undefined
{
 54c:	01111331 	.inst	0x01111331 ; undefined
 550:	18400712 	ldr	w18, 80630 <blk_mq_init_sched+0x7f6d8>
 554:	01194297 	.inst	0x01194297 ; undefined
		}
 558:	68000013 	.inst	0x68000013 ; undefined
 55c:	1331012e 	.inst	0x1331012e ; undefined
 560:	07120111 	.inst	0x07120111 ; undefined

 564:	42961840 	.inst	0x42961840 ; undefined

 568:	00000019 	.inst	0x00000019 ; undefined

Disassembly of section .debug_aranges:

0000000000000000 <.debug_aranges>:

   0:	0000002c 	.inst	0x0000002c ; undefined
	struct request *rqb = container_of(b, struct request, queuelist);
   4:	00000002 	.inst	0x00000002 ; undefined

   8:	00080000 	.inst	0x00080000 ; undefined
	...
static bool blk_mq_dispatch_hctx_list(struct list_head *rq_list)
  18:	00001150 	.inst	0x00001150 ; undefined
	...

Disassembly of section .debug_ranges:

0000000000000000 <.debug_ranges>:

   0:	00000020 	.inst	0x00000020 ; undefined
	struct request *rqb = container_of(b, struct request, queuelist);
   4:	00000000 	.inst	0x00000000 ; undefined

   8:	00000048 	.inst	0x00000048 ; undefined
static bool blk_mq_dispatch_hctx_list(struct list_head *rq_list)
   c:	00000000 	.inst	0x00000000 ; undefined

  10:	00000050 	.inst	0x00000050 ; undefined
static bool blk_mq_dispatch_hctx_list(struct list_head *rq_list)
  14:	00000000 	.inst	0x00000000 ; undefined
  18:	00000074 	.inst	0x00000074 ; undefined
	...
  30:	00000028 	.inst	0x00000028 ; undefined
		return false;
  34:	00000000 	.inst	0x00000000 ; undefined
  38:	0000002c 	.inst	0x0000002c ; undefined
  3c:	00000000 	.inst	0x00000000 ; undefined
  40:	00000030 	.inst	0x00000030 ; undefined
  44:	00000000 	.inst	0x00000000 ; undefined
{
  48:	00000034 	.inst	0x00000034 ; undefined
	...
	if (rq->cmd_flags & REQ_NOMERGE_FLAGS)
  60:	000000f0 	.inst	0x000000f0 ; undefined
  64:	00000000 	.inst	0x00000000 ; undefined
  68:	000000f4 	.inst	0x000000f4 ; undefined
  6c:	00000000 	.inst	0x00000000 ; undefined
  70:	000000fc 	.inst	0x000000fc ; undefined
static bool blk_mq_sched_bypass_insert(struct blk_mq_hw_ctx *hctx,
  74:	00000000 	.inst	0x00000000 ; undefined
  78:	00000180 	.inst	0x00000180 ; undefined
  7c:	00000000 	.inst	0x00000000 ; undefined
				       struct request *rq)
  80:	000001d4 	.inst	0x000001d4 ; undefined
  84:	00000000 	.inst	0x00000000 ; undefined
{
  88:	00000228 	.inst	0x00000228 ; undefined
  8c:	00000000 	.inst	0x00000000 ; undefined
  90:	000002fc 	.inst	0x000002fc ; undefined
  94:	00000000 	.inst	0x00000000 ; undefined
	struct elevator_queue *e = q->elevator;
  98:	00000304 	.inst	0x00000304 ; undefined
	...
  b0:	00000134 	.inst	0x00000134 ; undefined
  b4:	00000000 	.inst	0x00000000 ; undefined
  b8:	0000014c 	.inst	0x0000014c ; undefined
  bc:	00000000 	.inst	0x00000000 ; undefined

  c0:	000002fc 	.inst	0x000002fc ; undefined
	struct elevator_queue *e = q->elevator;
  c4:	00000000 	.inst	0x00000000 ; undefined
  c8:	00000304 	.inst	0x00000304 ; undefined
	...
	bool dispatched = false, busy = false;
  e0:	000001f4 	.inst	0x000001f4 ; undefined

  e4:	00000000 	.inst	0x00000000 ; undefined
	else
  e8:	000001f8 	.inst	0x000001f8 ; undefined
	do {
  ec:	00000000 	.inst	0x00000000 ; undefined
			break;
  f0:	000001fc 	.inst	0x000001fc ; undefined
		max_dispatch = hctx->queue->nr_requests;
  f4:	00000000 	.inst	0x00000000 ; undefined
  f8:	00000200 	.inst	0x00000200 ; undefined
		/*
  fc:	00000000 	.inst	0x00000000 ; undefined

 100:	00000204 	.inst	0x00000204 ; undefined
 104:	00000000 	.inst	0x00000000 ; undefined
 108:	00000208 	.inst	0x00000208 ; undefined
 10c:	00000000 	.inst	0x00000000 ; undefined
 110:	0000020c 	.inst	0x0000020c ; undefined
 114:	00000000 	.inst	0x00000000 ; undefined
 118:	00000210 	.inst	0x00000210 ; undefined
	...
 130:	000001fc 	.inst	0x000001fc ; undefined

 134:	00000000 	.inst	0x00000000 ; undefined
 138:	00000200 	.inst	0x00000200 ; undefined
 13c:	00000000 	.inst	0x00000000 ; undefined
static inline void blk_mq_set_rq_budget_token(struct request *rq, int token)
 140:	00000204 	.inst	0x00000204 ; undefined
 144:	00000000 	.inst	0x00000000 ; undefined
 148:	00000208 	.inst	0x00000208 ; undefined

 14c:	00000000 	.inst	0x00000000 ; undefined
			blk_mq_put_dispatch_budget(q, budget_token);
 150:	0000020c 	.inst	0x0000020c ; undefined
 154:	00000000 	.inst	0x00000000 ; undefined
 158:	00000210 	.inst	0x00000210 ; undefined
	...
static inline int blk_mq_get_dispatch_budget(struct request_queue *q)
 170:	00000258 	.inst	0x00000258 ; undefined
{
 174:	00000000 	.inst	0x00000000 ; undefined
 178:	000002dc 	.inst	0x000002dc ; undefined
 17c:	00000000 	.inst	0x00000000 ; undefined
			blk_mq_delay_run_hw_queues(q, BLK_MQ_BUDGET_DELAY);
 180:	000002e0 	.inst	0x000002e0 ; undefined
		/*
 184:	00000000 	.inst	0x00000000 ; undefined
 188:	000002e4 	.inst	0x000002e4 ; undefined
 18c:	00000000 	.inst	0x00000000 ; undefined
 190:	00000304 	.inst	0x00000304 ; undefined
 194:	00000000 	.inst	0x00000000 ; undefined
static int blk_mq_do_dispatch_sched(struct blk_mq_hw_ctx *hctx)
 198:	00000328 	.inst	0x00000328 ; undefined
 19c:	00000000 	.inst	0x00000000 ; undefined
 1a0:	00000350 	.inst	0x00000350 ; undefined
 1a4:	00000000 	.inst	0x00000000 ; undefined
 1a8:	00000360 	.inst	0x00000360 ; undefined
	...
 1c0:	00000294 	.inst	0x00000294 ; undefined
 1c4:	00000000 	.inst	0x00000000 ; undefined
 1c8:	00000298 	.inst	0x00000298 ; undefined
 1cc:	00000000 	.inst	0x00000000 ; undefined
 1d0:	000002a0 	.inst	0x000002a0 ; undefined
static inline int blk_mq_get_rq_budget_token(struct request *rq)
 1d4:	00000000 	.inst	0x00000000 ; undefined
 1d8:	000002a4 	.inst	0x000002a4 ; undefined
	...
{
 1f0:	000002b8 	.inst	0x000002b8 ; undefined
	__list_add(new, head->prev, head);
 1f4:	00000000 	.inst	0x00000000 ; undefined
		if (rq->mq_hctx != hctx)
 1f8:	000002c8 	.inst	0x000002c8 ; undefined
	new->prev = prev;
 1fc:	00000000 	.inst	0x00000000 ; undefined
	} while (count < max_dispatch);
 200:	000002d0 	.inst	0x000002d0 ; undefined
	next->prev = new;
 204:	00000000 	.inst	0x00000000 ; undefined
			multi_hctxs = true;
 208:	000002d4 	.inst	0x000002d4 ; undefined
	...
	} while (count < max_dispatch);
 220:	00000304 	.inst	0x00000304 ; undefined
 224:	00000000 	.inst	0x00000000 ; undefined
	if (!count) {
 228:	00000328 	.inst	0x00000328 ; undefined
 22c:	00000000 	.inst	0x00000000 ; undefined
			blk_mq_delay_run_hw_queues(q, BLK_MQ_BUDGET_DELAY);
 230:	00000350 	.inst	0x00000350 ; undefined
	LIST_HEAD(rq_list);
 234:	00000000 	.inst	0x00000000 ; undefined
		 * Requests from different hctx may be dequeued from some
 238:	00000358 	.inst	0x00000358 ; undefined
	...
			dispatched |= blk_mq_dispatch_hctx_list(&rq_list);
 250:	00000430 	.inst	0x00000430 ; undefined
 254:	00000000 	.inst	0x00000000 ; undefined
	LIST_HEAD(hctx_list);
 258:	00000434 	.inst	0x00000434 ; undefined
			list_cut_before(&hctx_list, rq_list, &rq->queuelist);
 25c:	00000000 	.inst	0x00000000 ; undefined
 260:	00000454 	.inst	0x00000454 ; undefined
	struct request *rq;
 264:	00000000 	.inst	0x00000000 ; undefined
			list_cut_before(&hctx_list, rq_list, &rq->queuelist);
 268:	000004a0 	.inst	0x000004a0 ; undefined

 26c:	00000000 	.inst	0x00000000 ; undefined
			list_cut_before(&hctx_list, rq_list, &rq->queuelist);
 270:	000004a8 	.inst	0x000004a8 ; undefined
			goto dispatch;
 274:	00000000 	.inst	0x00000000 ; undefined
	list_for_each_entry(rq, rq_list, queuelist) {
 278:	000004c4 	.inst	0x000004c4 ; undefined
			goto dispatch;
 27c:	00000000 	.inst	0x00000000 ; undefined
 280:	000004c8 	.inst	0x000004c8 ; undefined
 284:	00000000 	.inst	0x00000000 ; undefined
 288:	000004e4 	.inst	0x000004e4 ; undefined
 28c:	00000000 	.inst	0x00000000 ; undefined
 290:	000004f0 	.inst	0x000004f0 ; undefined
			list_cut_before(&hctx_list, rq_list, &rq->queuelist);
 294:	00000000 	.inst	0x00000000 ; undefined
	list_splice_tail_init(rq_list, &hctx_list);
 298:	00000564 	.inst	0x00000564 ; undefined
			list_cut_before(&hctx_list, rq_list, &rq->queuelist);
 29c:	00000000 	.inst	0x00000000 ; undefined
 2a0:	00000568 	.inst	0x00000568 ; undefined
 2a4:	00000000 	.inst	0x00000000 ; undefined
 2a8:	0000056c 	.inst	0x0000056c ; undefined
	return READ_ONCE(head->next) == head;
 2ac:	00000000 	.inst	0x00000000 ; undefined
	if (!list_empty(list)) {
 2b0:	000005a8 	.inst	0x000005a8 ; undefined
 2b4:	00000000 	.inst	0x00000000 ; undefined
	struct list_head *last = list->prev;
 2b8:	000005b0 	.inst	0x000005b0 ; undefined
	...
	next->prev = last;
 2d0:	00000454 	.inst	0x00000454 ; undefined

 2d4:	00000000 	.inst	0x00000000 ; undefined
 2d8:	00000460 	.inst	0x00000460 ; undefined
	return READ_ONCE(head->next) == head;
 2dc:	00000000 	.inst	0x00000000 ; undefined
 2e0:	00000518 	.inst	0x00000518 ; undefined
	} else {
 2e4:	00000000 	.inst	0x00000000 ; undefined
		dispatched = blk_mq_dispatch_rq_list(hctx, &rq_list, count);
 2e8:	00000524 	.inst	0x00000524 ; undefined
 2ec:	00000000 	.inst	0x00000000 ; undefined
	return !!dispatched;
 2f0:	0000052c 	.inst	0x0000052c ; undefined
}
 2f4:	00000000 	.inst	0x00000000 ; undefined
 2f8:	00000530 	.inst	0x00000530 ; undefined
	...
	list->prev = entry->prev;
 310:	00000494 	.inst	0x00000494 ; undefined
 314:	00000000 	.inst	0x00000000 ; undefined
	list->prev->next = list;
 318:	00000498 	.inst	0x00000498 ; undefined
	entry->prev = head;
 31c:	00000000 	.inst	0x00000000 ; undefined
	head->next = entry;
 320:	0000049c 	.inst	0x0000049c ; undefined
 324:	00000000 	.inst	0x00000000 ; undefined
			blk_mq_delay_run_hw_queues(q, BLK_MQ_BUDGET_DELAY);
 328:	000004a0 	.inst	0x000004a0 ; undefined
 32c:	00000000 	.inst	0x00000000 ; undefined
		 * Requests from different hctx may be dequeued from some
 330:	000004a8 	.inst	0x000004a8 ; undefined

 334:	00000000 	.inst	0x00000000 ; undefined
 338:	000004b0 	.inst	0x000004b0 ; undefined
	...
	WRITE_ONCE(list->next, list);
 350:	0000049c 	.inst	0x0000049c ; undefined
 354:	00000000 	.inst	0x00000000 ; undefined
	list_for_each_entry(rq, rq_list, queuelist) {
 358:	000004a0 	.inst	0x000004a0 ; undefined
 35c:	00000000 	.inst	0x00000000 ; undefined
static int blk_mq_do_dispatch_sched(struct blk_mq_hw_ctx *hctx)
 360:	000004a8 	.inst	0x000004a8 ; undefined
 364:	00000000 	.inst	0x00000000 ; undefined
		if (hctx->sched_tags) {
 368:	000004b0 	.inst	0x000004b0 ; undefined
	...
 380:	000004b0 	.inst	0x000004b0 ; undefined
		}
 384:	00000000 	.inst	0x00000000 ; undefined
 388:	000004c4 	.inst	0x000004c4 ; undefined
 38c:	00000000 	.inst	0x00000000 ; undefined
 390:	000004c8 	.inst	0x000004c8 ; undefined
 394:	00000000 	.inst	0x00000000 ; undefined
 398:	000004e4 	.inst	0x000004e4 ; undefined
	...
 3b0:	000005d0 	.inst	0x000005d0 ; undefined
 3b4:	00000000 	.inst	0x00000000 ; undefined
	}
 3b8:	000005e0 	.inst	0x000005e0 ; undefined
 3bc:	00000000 	.inst	0x00000000 ; undefined

 3c0:	000005e8 	.inst	0x000005e8 ; undefined
{
 3c4:	00000000 	.inst	0x00000000 ; undefined
 3c8:	000005f0 	.inst	0x000005f0 ; undefined
	...
static void blk_mq_sched_tags_teardown(struct request_queue *q, unsigned int flags)
 3e0:	00000640 	.inst	0x00000640 ; undefined
 3e4:	00000000 	.inst	0x00000000 ; undefined
{
 3e8:	0000064c 	.inst	0x0000064c ; undefined

 3ec:	00000000 	.inst	0x00000000 ; undefined
 3f0:	00000770 	.inst	0x00000770 ; undefined
 3f4:	00000000 	.inst	0x00000000 ; undefined
 3f8:	0000077c 	.inst	0x0000077c ; undefined
	...
	LIST_HEAD(rq_list);
 410:	0000066c 	.inst	0x0000066c ; undefined
 414:	00000000 	.inst	0x00000000 ; undefined
 418:	00000674 	.inst	0x00000674 ; undefined
 41c:	00000000 	.inst	0x00000000 ; undefined
 420:	00000678 	.inst	0x00000678 ; undefined
 424:	00000000 	.inst	0x00000000 ; undefined
 428:	00000684 	.inst	0x00000684 ; undefined
	...
 440:	00000694 	.inst	0x00000694 ; undefined
 444:	00000000 	.inst	0x00000000 ; undefined
	struct blk_mq_ctx *ctx = READ_ONCE(hctx->dispatch_from);
 448:	00000698 	.inst	0x00000698 ; undefined
	struct request *rq;
 44c:	00000000 	.inst	0x00000000 ; undefined
 450:	0000077c 	.inst	0x0000077c ; undefined
static inline void blk_mq_set_rq_budget_token(struct request *rq, int token)
 454:	00000000 	.inst	0x00000000 ; undefined
 458:	00000780 	.inst	0x00000780 ; undefined
	...
			blk_mq_put_dispatch_budget(q, budget_token);
 470:	000006a0 	.inst	0x000006a0 ; undefined
			/*
 474:	00000000 	.inst	0x00000000 ; undefined
static inline int blk_mq_get_rq_budget_token(struct request *rq)
 478:	000006ac 	.inst	0x000006ac ; undefined
 47c:	00000000 	.inst	0x00000000 ; undefined
 480:	00000714 	.inst	0x00000714 ; undefined
 484:	00000000 	.inst	0x00000000 ; undefined
{
 488:	00000728 	.inst	0x00000728 ; undefined
 48c:	00000000 	.inst	0x00000000 ; undefined
 490:	00000748 	.inst	0x00000748 ; undefined
	__list_add(new, head, head->next);
 494:	00000000 	.inst	0x00000000 ; undefined
		/* round robin for fair dispatch */
 498:	00000750 	.inst	0x00000750 ; undefined
	...
	if (++idx == hctx->nr_ctx)
 4b0:	00000718 	.inst	0x00000718 ; undefined
 4b4:	00000000 	.inst	0x00000000 ; undefined

 4b8:	00000728 	.inst	0x00000728 ; undefined

 4bc:	00000000 	.inst	0x00000000 ; undefined
	if (++idx == hctx->nr_ctx)
 4c0:	00000748 	.inst	0x00000748 ; undefined
	WRITE_ONCE(hctx->dispatch_from, ctx);
 4c4:	00000000 	.inst	0x00000000 ; undefined
	if (++idx == hctx->nr_ctx)
 4c8:	00000750 	.inst	0x00000750 ; undefined
	...

 4e0:	000008b0 	.inst	0x000008b0 ; undefined
	WRITE_ONCE(hctx->dispatch_from, ctx);
 4e4:	00000000 	.inst	0x00000000 ; undefined
 4e8:	000008c0 	.inst	0x000008c0 ; undefined
 4ec:	00000000 	.inst	0x00000000 ; undefined
	struct list_head *next = smp_load_acquire(&head->next);
 4f0:	000008d8 	.inst	0x000008d8 ; undefined
	return (next == head) && (next == head->prev);
 4f4:	00000000 	.inst	0x00000000 ; undefined
 4f8:	000008e4 	.inst	0x000008e4 ; undefined
	...

 510:	000009d0 	.inst	0x000009d0 ; undefined
 514:	00000000 	.inst	0x00000000 ; undefined

 518:	000009e8 	.inst	0x000009e8 ; undefined
 51c:	00000000 	.inst	0x00000000 ; undefined
 520:	000009f0 	.inst	0x000009f0 ; undefined
			blk_mq_put_dispatch_budget(q, budget_token);
 524:	00000000 	.inst	0x00000000 ; undefined
 528:	000009fc 	.inst	0x000009fc ; undefined
	...
static inline int blk_mq_get_dispatch_budget(struct request_queue *q)
 540:	000009d0 	.inst	0x000009d0 ; undefined
 544:	00000000 	.inst	0x00000000 ; undefined
 548:	000009dc 	.inst	0x000009dc ; undefined
{
 54c:	00000000 	.inst	0x00000000 ; undefined
 550:	000009e0 	.inst	0x000009e0 ; undefined
 554:	00000000 	.inst	0x00000000 ; undefined
		}
 558:	000009e0 	.inst	0x000009e0 ; undefined
	...
}
 570:	000009dc 	.inst	0x000009dc ; undefined
static int __blk_mq_sched_dispatch_requests(struct blk_mq_hw_ctx *hctx)
 574:	00000000 	.inst	0x00000000 ; undefined
 578:	000009e0 	.inst	0x000009e0 ; undefined
 57c:	00000000 	.inst	0x00000000 ; undefined
 580:	000009e0 	.inst	0x000009e0 ; undefined
 584:	00000000 	.inst	0x00000000 ; undefined
 588:	000009e8 	.inst	0x000009e8 ; undefined
 58c:	00000000 	.inst	0x00000000 ; undefined
 590:	000009f0 	.inst	0x000009f0 ; undefined
 594:	00000000 	.inst	0x00000000 ; undefined
 598:	000009fc 	.inst	0x000009fc ; undefined
	...
 5b0:	000009ec 	.inst	0x000009ec ; undefined
 5b4:	00000000 	.inst	0x00000000 ; undefined
 5b8:	000009f0 	.inst	0x000009f0 ; undefined
	if (test_bit(BLK_MQ_S_SCHED_RESTART, &hctx->state))
 5bc:	00000000 	.inst	0x00000000 ; undefined
 5c0:	000009fc 	.inst	0x000009fc ; undefined
 5c4:	00000000 	.inst	0x00000000 ; undefined
{
 5c8:	00000a0c 	.inst	0x00000a0c ; undefined
	set_bit(BLK_MQ_S_SCHED_RESTART, &hctx->state);
 5cc:	00000000 	.inst	0x00000000 ; undefined
 5d0:	00000a94 	.inst	0x00000a94 ; undefined
 5d4:	00000000 	.inst	0x00000000 ; undefined
ATOMIC64_OP(or, stset)
 5d8:	00000aac 	.inst	0x00000aac ; undefined
	...
}
 5f0:	00000a28 	.inst	0x00000a28 ; undefined
 5f4:	00000000 	.inst	0x00000000 ; undefined
	const bool has_sched = q->elevator;
 5f8:	00000a34 	.inst	0x00000a34 ; undefined
 5fc:	00000000 	.inst	0x00000000 ; undefined
 600:	00000ab8 	.inst	0x00000ab8 ; undefined
 604:	00000000 	.inst	0x00000000 ; undefined
 608:	00000ad0 	.inst	0x00000ad0 ; undefined
	...
		if (!list_empty(&hctx->dispatch))
 620:	00000a6c 	.inst	0x00000a6c ; undefined
	const bool has_sched = q->elevator;
 624:	00000000 	.inst	0x00000000 ; undefined
 628:	00000a74 	.inst	0x00000a74 ; undefined
 62c:	00000000 	.inst	0x00000000 ; undefined
	LIST_HEAD(rq_list);
 630:	00000a78 	.inst	0x00000a78 ; undefined
	/*
 634:	00000000 	.inst	0x00000000 ; undefined
	LIST_HEAD(rq_list);
 638:	00000a80 	.inst	0x00000a80 ; undefined
	...
	raw_spin_lock(&lock->rlock);
 650:	00000b68 	.inst	0x00000b68 ; undefined
	return READ_ONCE(head->next) == head;
 654:	00000000 	.inst	0x00000000 ; undefined
		spin_unlock(&hctx->lock);
 658:	00000b6c 	.inst	0x00000b6c ; undefined
 65c:	00000000 	.inst	0x00000000 ; undefined
 660:	00000b70 	.inst	0x00000b70 ; undefined
	if (!list_empty(list)) {
 664:	00000000 	.inst	0x00000000 ; undefined
 668:	00000b7c 	.inst	0x00000b7c ; undefined
	...
	next->prev = last;
 680:	00000c44 	.inst	0x00000c44 ; undefined
	WRITE_ONCE(list->next, list);
 684:	00000000 	.inst	0x00000000 ; undefined
	list->prev = list;
 688:	00000c98 	.inst	0x00000c98 ; undefined
	raw_spin_unlock(&lock->rlock);
 68c:	00000000 	.inst	0x00000000 ; undefined
 690:	00000d58 	.inst	0x00000d58 ; undefined
	return READ_ONCE(head->next) == head;
 694:	00000000 	.inst	0x00000000 ; undefined
		if (blk_mq_dispatch_rq_list(hctx, &rq_list, 0)) {
 698:	00000d84 	.inst	0x00000d84 ; undefined
	...
				ret = blk_mq_do_dispatch_sched(hctx);
 6b0:	00000c64 	.inst	0x00000c64 ; undefined
 6b4:	00000000 	.inst	0x00000000 ; undefined
 6b8:	00000c68 	.inst	0x00000c68 ; undefined

 6bc:	00000000 	.inst	0x00000000 ; undefined
				ret = blk_mq_do_dispatch_sched(hctx);
 6c0:	00000c6c 	.inst	0x00000c6c ; undefined
 6c4:	00000000 	.inst	0x00000000 ; undefined
			else
 6c8:	00000c80 	.inst	0x00000c80 ; undefined
	...
	return ret;
 6e0:	00000c80 	.inst	0x00000c80 ; undefined
void blk_mq_sched_dispatch_requests(struct blk_mq_hw_ctx *hctx)
 6e4:	00000000 	.inst	0x00000000 ; undefined
 6e8:	00000c90 	.inst	0x00000c90 ; undefined
 6ec:	00000000 	.inst	0x00000000 ; undefined
 6f0:	00000d58 	.inst	0x00000d58 ; undefined
 6f4:	00000000 	.inst	0x00000000 ; undefined
 6f8:	00000d64 	.inst	0x00000d64 ; undefined
	...
 710:	00000cc8 	.inst	0x00000cc8 ; undefined
	set_bit(BLK_MQ_S_SCHED_RESTART, &hctx->state);
 714:	00000000 	.inst	0x00000000 ; undefined
 718:	00000d1c 	.inst	0x00000d1c ; undefined
 71c:	00000000 	.inst	0x00000000 ; undefined
 720:	00000d34 	.inst	0x00000d34 ; undefined
 724:	00000000 	.inst	0x00000000 ; undefined
				ret = blk_mq_do_dispatch_sched(hctx);
 728:	00000d40 	.inst	0x00000d40 ; undefined
 72c:	00000000 	.inst	0x00000000 ; undefined
 730:	00000d84 	.inst	0x00000d84 ; undefined
 734:	00000000 	.inst	0x00000000 ; undefined

 738:	00000dc8 	.inst	0x00000dc8 ; undefined
	...
				ret = blk_mq_do_dispatch_sched(hctx);
 750:	00000ce8 	.inst	0x00000ce8 ; undefined
 754:	00000000 	.inst	0x00000000 ; undefined
 758:	00000cec 	.inst	0x00000cec ; undefined
 75c:	00000000 	.inst	0x00000000 ; undefined

 760:	00000cf0 	.inst	0x00000cf0 ; undefined
				ret = blk_mq_do_dispatch_sched(hctx);
 764:	00000000 	.inst	0x00000000 ; undefined
 768:	00000d04 	.inst	0x00000d04 ; undefined
	...
		if (blk_mq_dispatch_rq_list(hctx, &rq_list, 0)) {
 780:	00000d04 	.inst	0x00000d04 ; undefined
 784:	00000000 	.inst	0x00000000 ; undefined
	} else if (hctx->dispatch_busy) {
 788:	00000d14 	.inst	0x00000d14 ; undefined
 78c:	00000000 	.inst	0x00000000 ; undefined

 790:	00000d34 	.inst	0x00000d34 ; undefined
 794:	00000000 	.inst	0x00000000 ; undefined
 798:	00000d3c 	.inst	0x00000d3c ; undefined
	...
		blk_mq_flush_busy_ctxs(hctx, &rq_list);
 7b0:	00000d18 	.inst	0x00000d18 ; undefined
 7b4:	00000000 	.inst	0x00000000 ; undefined
 7b8:	00000d1c 	.inst	0x00000d1c ; undefined
 7bc:	00000000 	.inst	0x00000000 ; undefined
	}
 7c0:	00000d3c 	.inst	0x00000d3c ; undefined
 7c4:	00000000 	.inst	0x00000000 ; undefined
 7c8:	00000d40 	.inst	0x00000d40 ; undefined
	...

 7e0:	00000d88 	.inst	0x00000d88 ; undefined
void blk_mq_sched_dispatch_requests(struct blk_mq_hw_ctx *hctx)
 7e4:	00000000 	.inst	0x00000000 ; undefined
{
 7e8:	00000da0 	.inst	0x00000da0 ; undefined
 7ec:	00000000 	.inst	0x00000000 ; undefined
 7f0:	00000db8 	.inst	0x00000db8 ; undefined
 7f4:	00000000 	.inst	0x00000000 ; undefined
 7f8:	00000dc0 	.inst	0x00000dc0 ; undefined
	...
	if (!ioc)
 810:	00000f7c 	.inst	0x00000f7c ; undefined
	struct request_queue *q = rq->q;
 814:	00000000 	.inst	0x00000000 ; undefined
	raw_spin_lock_irq(&lock->rlock);
 818:	00000f88 	.inst	0x00000f88 ; undefined
 81c:	00000000 	.inst	0x00000000 ; undefined
 820:	00000f8c 	.inst	0x00000f8c ; undefined
	icq = ioc_lookup_icq(ioc, q);
 824:	00000000 	.inst	0x00000000 ; undefined
 828:	00000f94 	.inst	0x00000f94 ; undefined
	...
	get_io_context(icq->ioc);
 840:	00000fb8 	.inst	0x00000fb8 ; undefined
 844:	00000000 	.inst	0x00000000 ; undefined
	rq->elv.icq = icq;
 848:	00000fc0 	.inst	0x00000fc0 ; undefined
 84c:	00000000 	.inst	0x00000000 ; undefined
 850:	00000fd0 	.inst	0x00000fd0 ; undefined
 854:	00000000 	.inst	0x00000000 ; undefined
}
 858:	00000fd4 	.inst	0x00000fd4 ; undefined
 85c:	00000000 	.inst	0x00000000 ; undefined
 860:	00000fd8 	.inst	0x00000fd8 ; undefined
 864:	00000000 	.inst	0x00000000 ; undefined
		icq = ioc_create_icq(ioc, q, GFP_ATOMIC);
 868:	00000fdc 	.inst	0x00000fdc ; undefined
 86c:	00000000 	.inst	0x00000000 ; undefined
 870:	00000fe0 	.inst	0x00000fe0 ; undefined
 874:	00000000 	.inst	0x00000000 ; undefined
 878:	00001004 	.inst	0x00001004 ; undefined
	...
 890:	00001004 	.inst	0x00001004 ; undefined
	clear_bit(BLK_MQ_S_SCHED_RESTART, &hctx->state);
 894:	00000000 	.inst	0x00000000 ; undefined
 898:	00001030 	.inst	0x00001030 ; undefined
 89c:	00000000 	.inst	0x00000000 ; undefined
{
 8a0:	00001140 	.inst	0x00001140 ; undefined
 8a4:	00000000 	.inst	0x00000000 ; undefined
	/*
 8a8:	00001150 	.inst	0x00001150 ; undefined
	...

Disassembly of section .debug_line:

0000000000000000 <.debug_line>:

       0:	00001003 	.inst	0x00001003 ; undefined
	struct request *rqb = container_of(b, struct request, queuelist);
       4:	094e0002 	.inst	0x094e0002 ; undefined

       8:	01040000 	.inst	0x01040000 ; undefined
static bool blk_mq_dispatch_hctx_list(struct list_head *rq_list)
       c:	000d0efb 	.inst	0x000d0efb ; undefined

      10:	01010101 	.inst	0x01010101 ; undefined
static bool blk_mq_dispatch_hctx_list(struct list_head *rq_list)
      14:	01000000 	.inst	0x01000000 ; undefined
      18:	62010000 	.inst	0x62010000 ; undefined
      1c:	6b636f6c 	.inst	0x6b636f6c ; undefined
static inline bool rq_mergeable(struct request *rq)
      20:	692f2e00 	.inst	0x692f2e00 ; undefined
		return false;
      24:	756c636e 	.inst	0x756c636e ; undefined
      28:	6c2f6564 	stnp	d4, d25, [x11, #-272]
      2c:	78756e69 	.inst	0x78756e69 ; undefined
      30:	692f2e00 	.inst	0x692f2e00 ; undefined
		return false;
      34:	756c636e 	.inst	0x756c636e ; undefined
      38:	612f6564 	.inst	0x612f6564 ; undefined
      3c:	672d6d73 	.inst	0x672d6d73 ; undefined
      40:	72656e65 	.inst	0x72656e65 ; undefined
      44:	622f6369 	.inst	0x622f6369 ; undefined
{
      48:	706f7469 	adr	x9, deed7 <blk_mq_init_sched+0xddf7f>
      4c:	2f2e0073 	.inst	0x2f2e0073 ; undefined
		return false;
      50:	68637261 	.inst	0x68637261 ; undefined
      54:	6d72612f 	ldp	d15, d24, [x9, #-224]
      58:	692f3436 	.inst	0x692f3436 ; undefined
      5c:	756c636e 	.inst	0x756c636e ; undefined
	if (rq->cmd_flags & REQ_NOMERGE_FLAGS)
      60:	612f6564 	.inst	0x612f6564 ; undefined
      64:	2e006d73 	.inst	0x2e006d73 ; undefined
      68:	636e692f 	.inst	0x636e692f ; undefined
      6c:	6564756c 	fnmls	z12.h, p5/m, z11.h, z4.h
      70:	7061752f 	adr	x15, c2f17 <blk_mq_init_sched+0xc1fbf>
static bool blk_mq_sched_bypass_insert(struct blk_mq_hw_ctx *hctx,
      74:	73612f69 	.inst	0x73612f69 ; undefined
      78:	65672d6d 	fmls	z13.h, p3/m, z11.h, z7.h
      7c:	6972656e 	ldpsw	x14, x25, [x11, #-112]
				       struct request *rq)
      80:	2f2e0063 	.inst	0x2f2e0063 ; undefined
      84:	6c636e69 	ldnp	d9, d27, [x19, #-464]
{
      88:	2f656475 	.inst	0x2f656475 ; undefined
      8c:	2d6d7361 	ldp	s1, s28, [x27, #-152]
      90:	656e6567 	fnmls	z7.h, p1/m, z11.h, z14.h
      94:	00636972 	.inst	0x00636972 ; undefined
	struct elevator_queue *e = q->elevator;
      98:	6e692f2e 	uqsub	v14.8h, v25.8h, v9.8h
      9c:	64756c63 	.inst	0x64756c63 ; undefined
      a0:	696c2f65 	ldpsw	x5, x11, [x27, #-160]
      a4:	2f78756e 	.inst	0x2f78756e ; undefined
      a8:	6d6f7461 	ldp	d1, d29, [x3, #-272]
      ac:	2e006369 	.inst	0x2e006369 ; undefined
      b0:	636e692f 	.inst	0x636e692f ; undefined
      b4:	6564756c 	fnmls	z12.h, p5/m, z11.h, z4.h
      b8:	6f6c632f 	umlsl2	v15.4s, v25.8h, v12.h[2]
      bc:	6f736b63 	umlsl2	v3.4s, v27.8h, v3.h[7]

      c0:	65637275 	fnmls	z21.h, p4/m, z19.h, z3.h
	struct elevator_queue *e = q->elevator;
      c4:	692f2e00 	.inst	0x692f2e00 ; undefined
      c8:	756c636e 	.inst	0x756c636e ; undefined
	bool multi_hctxs = false, run_queue = false;
      cc:	752f6564 	.inst	0x752f6564 ; undefined
	struct elevator_queue *e = q->elevator;
      d0:	2f697061 	fcmla	v1.4h, v3.4h, v9.h[1], #270
      d4:	756e696c 	.inst	0x756e696c ; undefined
      d8:	2f2e0078 	.inst	0x2f2e0078 ; undefined
	else
      dc:	6c636e69 	ldnp	d9, d27, [x19, #-464]
	bool dispatched = false, busy = false;
      e0:	2f656475 	.inst	0x2f656475 ; undefined

      e4:	756e696c 	.inst	0x756e696c ; undefined
	else
      e8:	63732f78 	.inst	0x63732f78 ; undefined
	do {
      ec:	00646568 	.inst	0x00646568 ; undefined
			break;
      f0:	6e692f2e 	uqsub	v14.8h, v25.8h, v9.8h
		max_dispatch = hctx->queue->nr_requests;
      f4:	64756c63 	.inst	0x64756c63 ; undefined
      f8:	696c2f65 	ldpsw	x5, x11, [x27, #-160]
		/*
      fc:	2f78756e 	.inst	0x2f78756e ; undefined

     100:	69766564 	ldpsw	x4, x25, [x11, #-80]
     104:	2e006563 	.inst	0x2e006563 ; undefined
     108:	636e692f 	.inst	0x636e692f ; undefined
     10c:	6564756c 	fnmls	z12.h, p5/m, z11.h, z4.h
     110:	6e65782f 	.inst	0x6e65782f ; undefined
     114:	692f2e00 	.inst	0x692f2e00 ; undefined
     118:	756c636e 	.inst	0x756c636e ; undefined
	struct list_head *next = smp_load_acquire(&head->next);
     11c:	782f6564 	.inst	0x782f6564 ; undefined
	return (next == head) && (next == head->prev);
     120:	612f6e65 	.inst	0x612f6e65 ; undefined
     124:	00006d72 	.inst	0x00006d72 ; undefined
     128:	2d6b6c62 	ldp	s2, s27, [x3, #-168]
     12c:	732d716d 	.inst	0x732d716d ; undefined
     130:	64656863 	.inst	0x64656863 ; undefined

     134:	0100632e 	.inst	0x0100632e ; undefined
     138:	6c620000 	ldnp	d0, d0, [x0, #-480]
     13c:	00682e6b 	.inst	0x00682e6b ; undefined
static inline void blk_mq_set_rq_budget_token(struct request *rq, int token)
     140:	62000001 	.inst	0x62000001 ; undefined
     144:	6d2d6b6c 	stp	d12, d26, [x27, #-304]
     148:	00682e71 	.inst	0x00682e71 ; undefined

     14c:	62000002 	.inst	0x62000002 ; undefined
			blk_mq_put_dispatch_budget(q, budget_token);
     150:	65646b6c 	fnmls	z12.h, p2/m, z27.h, z4.h
     154:	00682e76 	.inst	0x00682e76 ; undefined
     158:	6c000002 	stnp	d2, d0, [x0]
     15c:	2e747369 	uabdl	v9.4s, v27.4h, v20.4h
     160:	00020068 	.inst	0x00020068 ; undefined
			/*
     164:	6b6c6200 	.inst	0x6b6c6200 ; undefined
static inline int blk_mq_get_dispatch_budget(struct request_queue *q)
     168:	2e716d2d 	umin	v13.4h, v9.4h, v17.4h
     16c:	00010068 	.inst	0x00010068 ; undefined
     170:	6e6f6e00 	umin	v0.8h, v16.8h, v15.8h
{
     174:	6f74612d 	umlsl2	v13.4s, v9.8h, v4.h[3]
     178:	2e63696d 	.inst	0x2e63696d ; undefined
     17c:	00030068 	.inst	0x00030068 ; undefined
			blk_mq_delay_run_hw_queues(q, BLK_MQ_BUDGET_DELAY);
     180:	6d756a00 	ldp	d0, d26, [x16, #-176]
		/*
     184:	616c5f70 	.inst	0x616c5f70 ; undefined
     188:	2e6c6562 	umax	v2.4h, v11.4h, v12.4h
     18c:	00040068 	.inst	0x00040068 ; undefined
     190:	6f746100 	umlsl2	v0.4s, v8.8h, v4.h[3]
     194:	5f63696d 	.inst	0x5f63696d ; undefined
static int blk_mq_do_dispatch_sched(struct blk_mq_hw_ctx *hctx)
     198:	2e65736c 	uabdl	v12.4s, v27.4h, v5.4h
     19c:	00040068 	.inst	0x00040068 ; undefined
     1a0:	6f746100 	umlsl2	v0.4s, v8.8h, v4.h[3]
     1a4:	5f63696d 	.inst	0x5f63696d ; undefined
     1a8:	735f6c6c 	.inst	0x735f6c6c ; undefined
     1ac:	00682e63 	.inst	0x00682e63 ; undefined
     1b0:	73000004 	.inst	0x73000004 ; undefined
     1b4:	6c6e6970 	ldnp	d16, d26, [x11, #-288]
     1b8:	2e6b636f 	rsubhn	v15.4h, v27.4s, v11.4s
     1bc:	00020068 	.inst	0x00020068 ; undefined
     1c0:	72756300 	.inst	0x72756300 ; undefined
     1c4:	746e6572 	.inst	0x746e6572 ; undefined
     1c8:	0400682e 	mls	z14.b, p2/m, z1.b, z0.b
     1cc:	65700000 	fmla	z0.h, p0/m, z0.h, z16.h
     1d0:	75706372 	.inst	0x75706372 ; undefined
static inline int blk_mq_get_rq_budget_token(struct request *rq)
     1d4:	0400682e 	mls	z14.b, p2/m, z1.b, z0.b
     1d8:	63720000 	.inst	0x63720000 ; undefined
     1dc:	61647075 	.inst	0x61647075 ; undefined
     1e0:	682e6574 	.inst	0x682e6574 ; undefined
     1e4:	00000200 	.inst	0x00000200 ; undefined
{
     1e8:	63726570 	.inst	0x63726570 ; undefined
     1ec:	722d7570 	ands	w16, w11, #0xfff9ffff
     1f0:	6f636665 	sqshlu	v5.2d, v19.2d, #35
	__list_add(new, head->prev, head);
     1f4:	2e746e75 	umin	v21.4h, v19.4h, v20.4h
		if (rq->mq_hctx != hctx)
     1f8:	00020068 	.inst	0x00020068 ; undefined
	new->prev = prev;
     1fc:	65727000 	fnmls	z0.h, p4/m, z0.h, z18.h
	} while (count < max_dispatch);
     200:	74706d65 	.inst	0x74706d65 ; undefined
	next->prev = new;
     204:	0400682e 	mls	z14.b, p2/m, z1.b, z0.b
			multi_hctxs = true;
     208:	6e690000 	uaddl2	v0.4s, v0.8h, v9.8h
	WRITE_ONCE(prev->next, new);
     20c:	6c6c2d74 	ldnp	d20, d11, [x11, #-320]

     210:	682e3436 	.inst	0x682e3436 ; undefined
		/*
     214:	00000500 	.inst	0x00000500 ; undefined
     218:	2d746e69 	ldp	s9, s27, [x19, #-96]
	} while (count < max_dispatch);
     21c:	34366c6c 	cbz	w12, 6cfa8 <blk_mq_init_sched+0x6c050>
     220:	0600682e 	.inst	0x0600682e ; undefined
     224:	6f700000 	mla	v0.8h, v0.8h, v0.h[3]
	if (!count) {
     228:	5f786973 	.inst	0x5f786973 ; undefined
     22c:	65707974 	fnmls	z20.h, p6/m, z11.h, z16.h
			blk_mq_delay_run_hw_queues(q, BLK_MQ_BUDGET_DELAY);
     230:	00682e73 	.inst	0x00682e73 ; undefined
	LIST_HEAD(rq_list);
     234:	74000005 	.inst	0x74000005 ; undefined
		 * Requests from different hctx may be dequeued from some
     238:	73657079 	.inst	0x73657079 ; undefined
			dispatched |= blk_mq_dispatch_hctx_list(&rq_list);
     23c:	0200682e 	.inst	0x0200682e ; undefined
     240:	6e690000 	uaddl2	v0.4s, v0.8h, v9.8h
	LIST_HEAD(rq_list);
     244:	682e6e73 	.inst	0x682e6e73 ; undefined
			dispatched |= blk_mq_dispatch_hctx_list(&rq_list);
     248:	00000400 	.inst	0x00000400 ; undefined
     24c:	706d756a 	adr	x10, db0fb <blk_mq_init_sched+0xda1a3>
     250:	62616c5f 	.inst	0x62616c5f ; undefined
     254:	682e6c65 	.inst	0x682e6c65 ; undefined
	LIST_HEAD(hctx_list);
     258:	00000200 	.inst	0x00000200 ; undefined
			list_cut_before(&hctx_list, rq_list, &rq->queuelist);
     25c:	74696e69 	.inst	0x74696e69 ; undefined
     260:	0200682e 	.inst	0x0200682e ; undefined
	struct request *rq;
     264:	736c0000 	.inst	0x736c0000 ; undefined
			list_cut_before(&hctx_list, rq_list, &rq->queuelist);
     268:	00682e65 	.inst	0x00682e65 ; undefined

     26c:	61000004 	.inst	0x61000004 ; undefined
			list_cut_before(&hctx_list, rq_list, &rq->queuelist);
     270:	696d6f74 	ldpsw	x20, x27, [x27, #-152]
			goto dispatch;
     274:	6f6c2d63 	.inst	0x6f6c2d63 ; undefined
	list_for_each_entry(rq, rq_list, queuelist) {
     278:	682e676e 	.inst	0x682e676e ; undefined
			goto dispatch;
     27c:	00000700 	.inst	0x00000700 ; undefined
     280:	696e6170 	ldpsw	x16, x24, [x11, #-144]
     284:	00682e63 	.inst	0x00682e63 ; undefined
     288:	63000002 	.inst	0x63000002 ; undefined
     28c:	65686361 	fnmls	z1.h, p0/m, z27.h, z8.h
     290:	0400682e 	mls	z14.b, p2/m, z1.b, z0.b
			list_cut_before(&hctx_list, rq_list, &rq->queuelist);
     294:	70730000 	adr	x0, e6297 <blk_mq_init_sched+0xe533f>
	list_splice_tail_init(rq_list, &hctx_list);
     298:	6f6c6e69 	.inst	0x6f6c6e69 ; undefined
			list_cut_before(&hctx_list, rq_list, &rq->queuelist);
     29c:	745f6b63 	.inst	0x745f6b63 ; undefined
     2a0:	73657079 	.inst	0x73657079 ; undefined
     2a4:	0200682e 	.inst	0x0200682e ; undefined
     2a8:	77720000 	.inst	0x77720000 ; undefined
	return READ_ONCE(head->next) == head;
     2ac:	6b636f6c 	.inst	0x6b636f6c ; undefined
	if (!list_empty(list)) {
     2b0:	7079745f 	adr	xzr, f313b <blk_mq_init_sched+0xf21e3>
     2b4:	682e7365 	.inst	0x682e7365 ; undefined
	struct list_head *last = list->prev;
     2b8:	00000200 	.inst	0x00000200 ; undefined
	prev->next = first;
     2bc:	6e697270 	uabdl2	v16.4s, v19.8h, v9.8h
	first->prev = prev;
     2c0:	682e6b74 	.inst	0x682e6b74 ; undefined
	last->next = next;
     2c4:	00000200 	.inst	0x00000200 ; undefined
	WRITE_ONCE(list->next, list);
     2c8:	6e72656b 	umax	v11.8h, v11.8h, v18.8h
	list->prev = list;
     2cc:	682e6c65 	.inst	0x682e6c65 ; undefined
	next->prev = last;
     2d0:	00000200 	.inst	0x00000200 ; undefined

     2d4:	656d6974 	fnmls	z20.h, p2/m, z11.h, z13.h
     2d8:	0200682e 	.inst	0x0200682e ; undefined
	return READ_ONCE(head->next) == head;
     2dc:	70630000 	adr	x0, c62df <blk_mq_init_sched+0xc5387>
     2e0:	61656675 	.inst	0x61656675 ; undefined
	} else {
     2e4:	65727574 	fnmls	z20.h, p5/m, z11.h, z18.h
		dispatched = blk_mq_dispatch_rq_list(hctx, &rq_list, count);
     2e8:	0400682e 	mls	z14.b, p2/m, z1.b, z0.b
     2ec:	77680000 	.inst	0x77680000 ; undefined
	return !!dispatched;
     2f0:	2e706163 	rsubhn	v3.4h, v11.4s, v16.4s
}
     2f4:	00040068 	.inst	0x00040068 ; undefined
     2f8:	75706300 	.inst	0x75706300 ; undefined
{
     2fc:	6b73616d 	.inst	0x6b73616d ; undefined
     300:	0200682e 	.inst	0x0200682e ; undefined
	if (head->next == entry) {
     304:	6d730000 	ldp	d0, d0, [x0, #-208]
     308:	00682e70 	.inst	0x00682e70 ; undefined
	list->next->prev = list;
     30c:	6d000002 	stp	d2, d0, [x0]
	list->prev = entry->prev;
     310:	726f6d65 	.inst	0x726f6d65 ; undefined
     314:	00682e79 	.inst	0x00682e79 ; undefined
	list->prev->next = list;
     318:	70000004 	adr	x4, 31b <.debug_line+0x31b>
	entry->prev = head;
     31c:	70637265 	adr	x5, c716b <blk_mq_init_sched+0xc6213>
	head->next = entry;
     320:	00682e75 	.inst	0x00682e75 ; undefined
     324:	73000006 	.inst	0x73000006 ; undefined
			blk_mq_delay_run_hw_queues(q, BLK_MQ_BUDGET_DELAY);
     328:	682e706d 	.inst	0x682e706d ; undefined
     32c:	00000400 	.inst	0x00000400 ; undefined
		 * Requests from different hctx may be dequeued from some
     330:	5f6d7261 	sqdmlsl	s1, h19, v13.h[2]

     334:	68637261 	.inst	0x68637261 ; undefined
     338:	6d69745f 	ldp	d31, d29, [x2, #-368]
     33c:	682e7265 	.inst	0x682e7265 ; undefined
     340:	00000800 	.inst	0x00000800 ; undefined
     344:	68637261 	.inst	0x68637261 ; undefined
	return !!dispatched;
     348:	6d69745f 	ldp	d31, d29, [x2, #-368]
     34c:	682e7265 	.inst	0x682e7265 ; undefined
	WRITE_ONCE(list->next, list);
     350:	00000400 	.inst	0x00000400 ; undefined
     354:	656d6974 	fnmls	z20.h, p2/m, z11.h, z13.h
	list_for_each_entry(rq, rq_list, queuelist) {
     358:	00682e78 	.inst	0x00682e78 ; undefined
     35c:	6c000002 	stnp	d2, d0, [x0]
static int blk_mq_do_dispatch_sched(struct blk_mq_hw_ctx *hctx)
     360:	646b636f 	.inst	0x646b636f ; undefined
     364:	682e7065 	.inst	0x682e7065 ; undefined
		if (hctx->sched_tags) {
     368:	00000200 	.inst	0x00000200 ; undefined
     36c:	74636573 	.inst	0x74636573 ; undefined
     370:	736e6f69 	.inst	0x736e6f69 ; undefined
     374:	0600682e 	.inst	0x0600682e ; undefined
     378:	74730000 	.inst	0x74730000 ; undefined
     37c:	5f6b6361 	.inst	0x5f6b6361 ; undefined
     380:	6e696f70 	umin	v16.8h, v27.8h, v9.8h
		}
     384:	2e726574 	umax	v20.4h, v11.4h, v18.4h
     388:	00040068 	.inst	0x00040068 ; undefined
     38c:	63657300 	.inst	0x63657300 ; undefined
     390:	6e6f6974 	.inst	0x6e6f6974 ; undefined
     394:	00682e73 	.inst	0x00682e73 ; undefined
     398:	76000004 	.inst	0x76000004 ; undefined
		blk_mq_exit_sched_shared_tags(q);
     39c:	2e747269 	uabdl	v9.4s, v19.4h, v20.4h
     3a0:	00040068 	.inst	0x00040068 ; undefined
		}
     3a4:	74677000 	.inst	0x74677000 ; undefined
     3a8:	656c6261 	fnmls	z1.h, p0/m, z19.h, z12.h
     3ac:	7079742d 	adr	x13, f3233 <blk_mq_init_sched+0xf22db>
     3b0:	682e7365 	.inst	0x682e7365 ; undefined
     3b4:	00000400 	.inst	0x00000400 ; undefined
	}
     3b8:	74636f69 	.inst	0x74636f69 ; undefined
     3bc:	00682e6c 	.inst	0x00682e6c ; undefined

     3c0:	69000006 	.inst	0x69000006 ; undefined
{
     3c4:	726e7172 	.inst	0x726e7172 ; undefined
     3c8:	0200682e 	.inst	0x0200682e ; undefined
	if (blk_mq_is_shared_tags(flags))
     3cc:	61720000 	.inst	0x61720000 ; undefined
     3d0:	6d6f646e 	ldp	d14, d25, [x3, #-272]
     3d4:	0200682e 	.inst	0x0200682e ; undefined
     3d8:	65700000 	fmla	z0.h, p0/m, z0.h, z16.h
{
     3dc:	75706372 	.inst	0x75706372 ; undefined
static void blk_mq_sched_tags_teardown(struct request_queue *q, unsigned int flags)
     3e0:	0200682e 	.inst	0x0200682e ; undefined
     3e4:	72700000 	.inst	0x72700000 ; undefined
{
     3e8:	6f646e61 	.inst	0x6f646e61 ; undefined

     3ec:	00682e6d 	.inst	0x00682e6d ; undefined
     3f0:	61000002 	.inst	0x61000002 ; undefined
     3f4:	732d6d72 	.inst	0x732d6d72 ; undefined
     3f8:	6363636d 	.inst	0x6363636d ; undefined
     3fc:	0200682e 	.inst	0x0200682e ; undefined
	LIST_HEAD(rq_list);
     400:	72610000 	.inst	0x72610000 ; undefined
     404:	61726863 	.inst	0x61726863 ; undefined
     408:	6d6f646e 	ldp	d14, d25, [x3, #-272]
     40c:	0400682e 	mls	z14.b, p2/m, z1.b, z0.b
     410:	70730000 	adr	x0, e6413 <blk_mq_init_sched+0xe54bb>
     414:	72746365 	.inst	0x72746365 ; undefined
     418:	00682e65 	.inst	0x00682e65 ; undefined
     41c:	70000004 	adr	x4, 41f <.debug_line+0x41f>
     420:	65636f72 	fnmls	z18.h, p3/m, z27.h, z3.h
     424:	726f7373 	.inst	0x726f7373 ; undefined
     428:	0400682e 	mls	z14.b, p2/m, z1.b, z0.b
     42c:	70660000 	adr	x0, cc42f <blk_mq_init_sched+0xcb4d7>

     430:	646d6973 	.inst	0x646d6973 ; undefined
	int ret = 0;
     434:	0400682e 	mls	z14.b, p2/m, z1.b, z0.b
     438:	69700000 	.inst	0x69700000 ; undefined
	LIST_HEAD(rq_list);
     43c:	00682e64 	.inst	0x00682e64 ; undefined
     440:	68000002 	.inst	0x68000002 ; undefined
     444:	75686769 	.inst	0x75686769 ; undefined
	struct blk_mq_ctx *ctx = READ_ONCE(hctx->dispatch_from);
     448:	682e6469 	.inst	0x682e6469 ; undefined
	struct request *rq;
     44c:	00000200 	.inst	0x00000200 ; undefined
     450:	67646975 	.inst	0x67646975 ; undefined
static inline void blk_mq_set_rq_budget_token(struct request *rq, int token)
     454:	682e6469 	.inst	0x682e6469 ; undefined
     458:	00000200 	.inst	0x00000200 ; undefined
     45c:	75626564 	.inst	0x75626564 ; undefined

     460:	6f6c5f67 	.inst	0x6f6c5f67 ; undefined
			blk_mq_put_dispatch_budget(q, budget_token);
     464:	2e736b63 	.inst	0x2e736b63 ; undefined
     468:	00020068 	.inst	0x00020068 ; undefined
     46c:	66696a00 	.inst	0x66696a00 ; undefined
     470:	73656966 	.inst	0x73656966 ; undefined
			/*
     474:	0200682e 	.inst	0x0200682e ; undefined
static inline int blk_mq_get_rq_budget_token(struct request *rq)
     478:	69740000 	.inst	0x69740000 ; undefined
     47c:	656b656d 	fnmls	z13.h, p1/m, z11.h, z11.h
     480:	6e697065 	uabdl2	v5.4s, v3.8h, v9.8h
     484:	00682e67 	.inst	0x00682e67 ; undefined
{
     488:	74000002 	.inst	0x74000002 ; undefined
     48c:	72656d69 	.inst	0x72656d69 ; undefined
     490:	0200682e 	.inst	0x0200682e ; undefined
	__list_add(new, head, head->next);
     494:	6f770000 	mla	v0.8h, v0.8h, v7.h[3]
		/* round robin for fair dispatch */
     498:	75716b72 	.inst	0x75716b72 ; undefined
	WRITE_ONCE(prev->next, new);
     49c:	2e657565 	uabd	v5.4h, v11.4h, v5.4h
	WRITE_ONCE(hctx->dispatch_from, ctx);
     4a0:	00020068 	.inst	0x00020068 ; undefined
     4a4:	64747300 	.inst	0x64747300 ; undefined
	next->prev = new;
     4a8:	2e666564 	umax	v4.4h, v11.4h, v6.4h
	new->prev = prev;
     4ac:	00020068 	.inst	0x00020068 ; undefined
	if (++idx == hctx->nr_ctx)
     4b0:	72657000 	.inst	0x72657000 ; undefined
     4b4:	616e6f73 	.inst	0x616e6f73 ; undefined

     4b8:	7974696c 	ldrh	w12, [x11, #6708]

     4bc:	0900682e 	.inst	0x0900682e ; undefined
	if (++idx == hctx->nr_ctx)
     4c0:	74720000 	.inst	0x74720000 ; undefined
	WRITE_ONCE(hctx->dispatch_from, ctx);
     4c4:	6574756d 	fnmls	z13.h, p5/m, z11.h, z20.h
	if (++idx == hctx->nr_ctx)
     4c8:	00682e78 	.inst	0x00682e78 ; undefined

     4cc:	73000002 	.inst	0x73000002 ; undefined
     4d0:	6f6c7165 	fcmla	v5.8h, v11.8h, v12.h[1], #270
     4d4:	682e6b63 	.inst	0x682e6b63 ; undefined
     4d8:	00000200 	.inst	0x00000200 ; undefined
     4dc:	69747268 	ldpsw	x8, x28, [x19, #-96]

     4e0:	2e72656d 	umax	v13.4h, v11.4h, v18.4h
	WRITE_ONCE(hctx->dispatch_from, ctx);
     4e4:	00020068 	.inst	0x00020068 ; undefined
     4e8:	646f6e00 	.inst	0x646f6e00 ; undefined
     4ec:	73616d65 	.inst	0x73616d65 ; undefined
	struct list_head *next = smp_load_acquire(&head->next);
     4f0:	00682e6b 	.inst	0x00682e6b ; undefined
	return (next == head) && (next == head->prev);
     4f4:	6d000002 	stp	d2, d0, [x0]
     4f8:	79745f6d 	ldrh	w13, [x27, #6702]
     4fc:	5f736570 	.inst	0x5f736570 ; undefined
     500:	6b736174 	.inst	0x6b736174 ; undefined
     504:	0200682e 	.inst	0x0200682e ; undefined

     508:	73720000 	.inst	0x73720000 ; undefined
     50c:	682e7165 	.inst	0x682e7165 ; undefined
     510:	00000900 	.inst	0x00000900 ; undefined
     514:	65686373 	fnmls	z19.h, p0/m, z27.h, z8.h

     518:	00682e64 	.inst	0x00682e64 ; undefined
     51c:	6d000002 	stp	d2, d0, [x0]
     520:	79745f6d 	ldrh	w13, [x27, #6702]
			blk_mq_put_dispatch_budget(q, budget_token);
     524:	2e736570 	umax	v16.4h, v11.4h, v19.4h
     528:	00020068 	.inst	0x00020068 ; undefined
{
     52c:	69756200 	ldpsw	x0, x24, [x16, #-88]
     530:	6469646c 	.inst	0x6469646c ; undefined
     534:	0200682e 	.inst	0x0200682e ; undefined
			/*
     538:	6d6d0000 	ldp	d0, d0, [x0, #-304]
     53c:	656e6f7a 	fnmls	z26.h, p3/m, z27.h, z14.h
static inline int blk_mq_get_dispatch_budget(struct request_queue *q)
     540:	0200682e 	.inst	0x0200682e ; undefined
     544:	6f6e0000 	mla	v0.8h, v0.8h, v14.h[2]
     548:	69666974 	ldpsw	x20, x26, [x11, #-208]
{
     54c:	682e7265 	.inst	0x682e7265 ; undefined
     550:	00000200 	.inst	0x00000200 ; undefined
     554:	68637261 	.inst	0x68637261 ; undefined
		}
     558:	706f745f 	adr	xzr, df3e3 <blk_mq_init_sched+0xde48b>
     55c:	676f6c6f 	.inst	0x676f6c6f ; undefined
     560:	00682e79 	.inst	0x00682e79 ; undefined

     564:	6e000002 	ext	v2.16b, v0.16b, v0.16b, #0

     568:	2e616d75 	umin	v21.4h, v11.4h, v1.4h

     56c:	00060068 	.inst	0x00060068 ; undefined
}
     570:	7a6d6d00 	.inst	0x7a6d6d00 ; undefined
static int __blk_mq_sched_dispatch_requests(struct blk_mq_hw_ctx *hctx)
     574:	2e656e6f 	umin	v15.4h, v19.4h, v5.4h
     578:	00040068 	.inst	0x00040068 ; undefined
     57c:	706f7400 	adr	x0, df3ff <blk_mq_init_sched+0xde4a7>
     580:	676f6c6f 	.inst	0x676f6c6f ; undefined
     584:	00682e79 	.inst	0x00682e79 ; undefined
     588:	67000002 	.inst	0x67000002 ; undefined
     58c:	682e7066 	.inst	0x682e7066 ; undefined
     590:	00000200 	.inst	0x00000200 ; undefined
     594:	63737973 	.inst	0x63737973 ; undefined
     598:	682e6c74 	.inst	0x682e6c74 ; undefined
     59c:	00000200 	.inst	0x00000200 ; undefined
     5a0:	2e686d75 	umin	v21.4h, v11.4h, v8.4h
     5a4:	00020068 	.inst	0x00020068 ; undefined
		}
     5a8:	6f6d6b00 	umlsl2	v0.4s, v24.8h, v13.h[6]
     5ac:	00682e64 	.inst	0x00682e64 ; undefined
static int __blk_mq_sched_dispatch_requests(struct blk_mq_hw_ctx *hctx)
     5b0:	65000002 	.inst	0x65000002 ; undefined
     5b4:	682e666c 	.inst	0x682e666c ; undefined
     5b8:	00000900 	.inst	0x00000900 ; undefined
	if (test_bit(BLK_MQ_S_SCHED_RESTART, &hctx->state))
     5bc:	63616364 	.inst	0x63616364 ; undefined
     5c0:	682e6568 	.inst	0x682e6568 ; undefined
     5c4:	00000200 	.inst	0x00000200 ; undefined
{
     5c8:	69646172 	ldpsw	x18, x24, [x11, #-224]
	set_bit(BLK_MQ_S_SCHED_RESTART, &hctx->state);
     5cc:	72742d78 	.inst	0x72742d78 ; undefined
     5d0:	682e6565 	.inst	0x682e6565 ; undefined
     5d4:	00000200 	.inst	0x00000200 ; undefined
     5d8:	61706163 	.inst	0x61706163 ; undefined
     5dc:	696c6962 	ldpsw	x2, x26, [x11, #-160]
}
     5e0:	682e7974 	.inst	0x682e7974 ; undefined
     5e4:	00000200 	.inst	0x00000200 ; undefined
ATOMIC64_OPS(or, orr, L)
     5e8:	6e676973 	.inst	0x6e676973 ; undefined
     5ec:	682e6c61 	.inst	0x682e6c61 ; undefined
     5f0:	00000200 	.inst	0x00000200 ; undefined
     5f4:	6b736174 	.inst	0x6b736174 ; undefined
	const bool has_sched = q->elevator;
     5f8:	0a00682e 	and	w14, w1, w0, lsl #26
     5fc:	656b0000 	fmla	z0.h, p0/m, z0.h, z11.h
     600:	00682e79 	.inst	0x00682e79 ; undefined
     604:	70000002 	adr	x2, 607 <.debug_line+0x607>
     608:	70637265 	adr	x5, c7457 <blk_mq_init_sched+0xc64ff>
     60c:	6f635f75 	.inst	0x6f635f75 ; undefined
     610:	65746e75 	fnmls	z21.h, p3/m, z19.h, z20.h
     614:	00682e72 	.inst	0x00682e72 ; undefined
     618:	72000002 	ands	w2, w0, #0x1
	/*
     61c:	6c657461 	ldnp	d1, d29, [x3, #-432]
		if (!list_empty(&hctx->dispatch))
     620:	74696d69 	.inst	0x74696d69 ; undefined
	const bool has_sched = q->elevator;
     624:	0200682e 	.inst	0x0200682e ; undefined
     628:	73750000 	.inst	0x73750000 ; undefined
     62c:	682e7265 	.inst	0x682e7265 ; undefined
	LIST_HEAD(rq_list);
     630:	00000a00 	.inst	0x00000a00 ; undefined
	/*
     634:	64697575 	.inst	0x64697575 ; undefined
	LIST_HEAD(rq_list);
     638:	0900682e 	.inst	0x0900682e ; undefined
	/*
     63c:	75750000 	.inst	0x75750000 ; undefined
	struct list_head *next = smp_load_acquire(&head->next);
     640:	682e6469 	.inst	0x682e6469 ; undefined
	return (next == head) && (next == head->prev);
     644:	00000200 	.inst	0x00000200 ; undefined
     648:	6e756f6d 	umin	v13.8h, v27.8h, v21.8h
	raw_spin_lock(&lock->rlock);
     64c:	00682e74 	.inst	0x00682e74 ; undefined
     650:	66000002 	.inst	0x66000002 ; undefined
	return READ_ONCE(head->next) == head;
     654:	00682e73 	.inst	0x00682e73 ; undefined
		spin_unlock(&hctx->lock);
     658:	71000002 	subs	w2, w0, #0x0
     65c:	61746f75 	.inst	0x61746f75 ; undefined
     660:	0900682e 	.inst	0x0900682e ; undefined
	if (!list_empty(list)) {
     664:	75710000 	.inst	0x75710000 ; undefined
     668:	2e61746f 	uabd	v15.4h, v3.4h, v1.4h
	struct list_head *last = list->prev;
     66c:	00020068 	.inst	0x00020068 ; undefined
	first->prev = prev;
     670:	666c6500 	.inst	0x666c6500 ; undefined
		__list_splice(list, head, head->next);
     674:	0200682e 	.inst	0x0200682e ; undefined
	prev->next = first;
     678:	6f6b0000 	mla	v0.8h, v0.8h, v11.h[2]
	last->next = next;
     67c:	63656a62 	.inst	0x63656a62 ; undefined
	next->prev = last;
     680:	00682e74 	.inst	0x00682e74 ; undefined
	WRITE_ONCE(list->next, list);
     684:	6d000002 	stp	d2, d0, [x0]
	list->prev = list;
     688:	6c75646f 	ldnp	d15, d25, [x3, #-176]
	raw_spin_unlock(&lock->rlock);
     68c:	72617065 	.inst	0x72617065 ; undefined
     690:	682e6d61 	.inst	0x682e6d61 ; undefined
	return READ_ONCE(head->next) == head;
     694:	00000200 	.inst	0x00000200 ; undefined
		if (blk_mq_dispatch_rq_list(hctx, &rq_list, 0)) {
     698:	75646f6d 	.inst	0x75646f6d ; undefined
     69c:	682e656c 	.inst	0x682e656c ; undefined
     6a0:	00000400 	.inst	0x00000400 ; undefined
	if (test_bit(BLK_MQ_S_SCHED_RESTART, &hctx->state))
     6a4:	75646f6d 	.inst	0x75646f6d ; undefined
     6a8:	682e656c 	.inst	0x682e656c ; undefined
				ret = blk_mq_do_dispatch_sched(hctx);
     6ac:	00000200 	.inst	0x00000200 ; undefined
     6b0:	70616d6d 	adr	x13, c345f <blk_mq_init_sched+0xc2507>
     6b4:	636f6c5f 	.inst	0x636f6c5f ; undefined
     6b8:	00682e6b 	.inst	0x00682e6b ; undefined

     6bc:	70000002 	adr	x2, 6bf <.debug_line+0x6bf>
				ret = blk_mq_do_dispatch_sched(hctx);
     6c0:	5f656761 	.inst	0x5f656761 ; undefined
     6c4:	2e666572 	umax	v18.4h, v11.4h, v6.4h
			else
     6c8:	00020068 	.inst	0x00020068 ; undefined
     6cc:	706f6900 	adr	x0, df3ef <blk_mq_init_sched+0xde497>

     6d0:	2e74726f 	uabdl	v15.4s, v19.4h, v20.4h
     6d4:	00020068 	.inst	0x00020068 ; undefined
     6d8:	74677000 	.inst	0x74677000 ; undefined
	return ret;
     6dc:	656c6261 	fnmls	z1.h, p0/m, z19.h, z12.h
     6e0:	6f72702d 	.inst	0x6f72702d ; undefined
void blk_mq_sched_dispatch_requests(struct blk_mq_hw_ctx *hctx)
     6e4:	00682e74 	.inst	0x00682e74 ; undefined
     6e8:	70000004 	adr	x4, 6eb <.debug_line+0x6eb>
     6ec:	62617467 	.inst	0x62617467 ; undefined
     6f0:	682e656c 	.inst	0x682e656c ; undefined
     6f4:	00000400 	.inst	0x00000400 ; undefined
     6f8:	682e6d6d 	.inst	0x682e6d6d ; undefined
     6fc:	00000200 	.inst	0x00000200 ; undefined
     700:	65677568 	fnmls	z8.h, p5/m, z11.h, z7.h
     704:	2e6d6d5f 	umin	v31.4h, v10.4h, v13.4h
     708:	00020068 	.inst	0x00020068 ; undefined
     70c:	5f6d7600 	sqshl	d0, d16, #45
     710:	6e657665 	uabd	v5.8h, v19.8h, v5.8h
	set_bit(BLK_MQ_S_SCHED_RESTART, &hctx->state);
     714:	74695f74 	.inst	0x74695f74 ; undefined
     718:	682e6d65 	.inst	0x682e6d65 ; undefined
     71c:	00000200 	.inst	0x00000200 ; undefined
     720:	74736d76 	.inst	0x74736d76 ; undefined
     724:	682e7461 	.inst	0x682e7461 ; undefined
				ret = blk_mq_do_dispatch_sched(hctx);
     728:	00000200 	.inst	0x00000200 ; undefined
     72c:	64726168 	.inst	0x64726168 ; undefined
     730:	2e717269 	uabdl	v9.4s, v19.4h, v17.4h
     734:	00060068 	.inst	0x00060068 ; undefined

     738:	616d7600 	.inst	0x616d7600 ; undefined
				ret = blk_mq_do_dispatch_sched(hctx);
     73c:	636f6c6c 	.inst	0x636f6c6c ; undefined
     740:	0200682e 	.inst	0x0200682e ; undefined
     744:	6c730000 	ldnp	d0, d0, [x0, #-208]
     748:	682e6261 	.inst	0x682e6261 ; undefined
     74c:	00000200 	.inst	0x00000200 ; undefined
     750:	5f717269 	sqdmlsl	s9, h19, v1.h[3]
     754:	73676572 	.inst	0x73676572 ; undefined
     758:	0600682e 	.inst	0x0600682e ; undefined
     75c:	72690000 	.inst	0x72690000 ; undefined

     760:	00682e71 	.inst	0x00682e71 ; undefined
				ret = blk_mq_do_dispatch_sched(hctx);
     764:	68000002 	.inst	0x68000002 ; undefined
     768:	69647261 	ldpsw	x1, x28, [x19, #-224]
     76c:	682e7172 	.inst	0x682e7172 ; undefined
	return (next == head) && (next == head->prev);
     770:	00000400 	.inst	0x00000400 ; undefined
     774:	65746e69 	fnmls	z9.h, p3/m, z19.h, z20.h
     778:	70757272 	adr	x18, eb5c7 <blk_mq_init_sched+0xea66f>
	return READ_ONCE(head->next) == head;
     77c:	00682e74 	.inst	0x00682e74 ; undefined
		if (blk_mq_dispatch_rq_list(hctx, &rq_list, 0)) {
     780:	6e000002 	ext	v2.16b, v0.16b, v0.16b, #0
     784:	6f727073 	.inst	0x6f727073 ; undefined
	} else if (hctx->dispatch_busy) {
     788:	682e7978 	.inst	0x682e7978 ; undefined
     78c:	00000200 	.inst	0x00000200 ; undefined

     790:	61727466 	.inst	0x61727466 ; undefined
     794:	682e6563 	.inst	0x682e6563 ; undefined
     798:	00000400 	.inst	0x00000400 ; undefined
	return ret;
     79c:	6264676b 	.inst	0x6264676b ; undefined
     7a0:	0400682e 	mls	z14.b, p2/m, z1.b, z0.b
     7a4:	6f740000 	mla	v0.8h, v0.8h, v4.h[3]
		ret = blk_mq_do_dispatch_ctx(hctx);
     7a8:	6f6c6f70 	.inst	0x6f6c6f70 ; undefined
     7ac:	682e7967 	.inst	0x682e7967 ; undefined
		blk_mq_flush_busy_ctxs(hctx, &rq_list);
     7b0:	00000a00 	.inst	0x00000a00 ; undefined
     7b4:	682e6d70 	.inst	0x682e6d70 ; undefined
     7b8:	00000200 	.inst	0x00000200 ; undefined
     7bc:	73616c63 	.inst	0x73616c63 ; undefined
	}
     7c0:	00682e73 	.inst	0x00682e73 ; undefined
     7c4:	6400000b 	.inst	0x6400000b ; undefined
     7c8:	65766972 	fnmls	z18.h, p2/m, z11.h, z22.h

     7cc:	00682e72 	.inst	0x00682e72 ; undefined
     7d0:	6400000b 	.inst	0x6400000b ; undefined
     7d4:	63697665 	.inst	0x63697665 ; undefined
     7d8:	00682e65 	.inst	0x00682e65 ; undefined

     7dc:	62000002 	.inst	0x62000002 ; undefined
     7e0:	745f6b6c 	.inst	0x745f6b6c ; undefined
void blk_mq_sched_dispatch_requests(struct blk_mq_hw_ctx *hctx)
     7e4:	73657079 	.inst	0x73657079 ; undefined
{
     7e8:	0200682e 	.inst	0x0200682e ; undefined
     7ec:	65670000 	fmla	z0.h, p0/m, z0.h, z7.h
     7f0:	2e64686e 	.inst	0x2e64686e ; undefined
     7f4:	00020068 	.inst	0x00020068 ; undefined
     7f8:	6f696200 	umlsl2	v0.4s, v16.8h, v9.h[2]
	ioc = current->io_context;
     7fc:	0200682e 	.inst	0x0200682e ; undefined
	if (!ioc)
     800:	65720000 	fmla	z0.h, p0/m, z0.h, z18.h
     804:	2e79616c 	rsubhn	v12.4h, v11.4s, v25.4s
     808:	00020068 	.inst	0x00020068 ; undefined
     80c:	6b6c6200 	.inst	0x6b6c6200 ; undefined
     810:	63617274 	.inst	0x63617274 ; undefined
	struct request_queue *q = rq->q;
     814:	70615f65 	adr	x5, c3403 <blk_mq_init_sched+0xc24ab>
	raw_spin_lock_irq(&lock->rlock);
     818:	00682e69 	.inst	0x00682e69 ; undefined
     81c:	62000009 	.inst	0x62000009 ; undefined
     820:	65666675 	fnmls	z21.h, p1/m, z19.h, z6.h
	icq = ioc_lookup_icq(ioc, q);
     824:	65685f72 	fnmla	z18.h, p7/m, z27.h, z8.h
     828:	682e6461 	.inst	0x682e6461 ; undefined
     82c:	00000200 	.inst	0x00000200 ; undefined
     830:	65646f6e 	fnmls	z14.h, p3/m, z27.h, z4.h
	raw_spin_unlock_irq(&lock->rlock);
     834:	0200682e 	.inst	0x0200682e ; undefined
     838:	70630000 	adr	x0, c683b <blk_mq_init_sched+0xc58e3>
	if (!icq) {
     83c:	00682e75 	.inst	0x00682e75 ; undefined
	get_io_context(icq->ioc);
     840:	74000002 	.inst	0x74000002 ; undefined
     844:	65636172 	fnmls	z18.h, p0/m, z11.h, z3.h
	rq->elv.icq = icq;
     848:	6e696f70 	umin	v16.8h, v27.8h, v9.8h
     84c:	00682e74 	.inst	0x00682e74 ; undefined
     850:	6d000002 	stp	d2, d0, [x0]
     854:	6c626d65 	ldnp	d5, d27, [x11, #-480]
}
     858:	2e6b636f 	rsubhn	v15.4h, v27.4s, v11.4s
     85c:	00020068 	.inst	0x00020068 ; undefined
     860:	6e657800 	.inst	0x6e657800 ; undefined
     864:	0c00682e 	st1	{v14.2s-v16.2s}, [x1]
		icq = ioc_create_icq(ioc, q, GFP_ATOMIC);
     868:	79680000 	ldrh	w0, [x0, #5120]
     86c:	76726570 	.inst	0x76726570 ; undefined
     870:	726f7369 	.inst	0x726f7369 ; undefined
     874:	0d00682e 	st3	{v14.h-v16.h}[1], [x1]
     878:	61620000 	.inst	0x61620000 ; undefined
		if (!icq)
     87c:	6f6f6c6c 	.inst	0x6f6f6c6c ; undefined
     880:	00682e6e 	.inst	0x00682e6e ; undefined
     884:	6200000c 	.inst	0x6200000c ; undefined
     888:	632d6b6c 	.inst	0x632d6b6c ; undefined
     88c:	74707972 	.inst	0x74707972 ; undefined
     890:	6e692d6f 	uqsub	v15.8h, v11.8h, v9.8h
	clear_bit(BLK_MQ_S_SCHED_RESTART, &hctx->state);
     894:	6e726574 	umax	v20.8h, v11.8h, v18.8h
     898:	682e6c61 	.inst	0x682e6c61 ; undefined
     89c:	00000100 	.inst	0x00000100 ; undefined
{
     8a0:	2d6b6c62 	ldp	s2, s27, [x3, #-168]
     8a4:	742d716d 	.inst	0x742d716d ; undefined
	/*
     8a8:	682e6761 	.inst	0x682e6761 ; undefined
{
     8ac:	00000100 	.inst	0x00000100 ; undefined
     8b0:	2d6b6c62 	ldp	s2, s27, [x3, #-168]
     8b4:	2e746277 	rsubhn	v23.4h, v19.4s, v20.4s
ATOMIC64_OP(andnot, stclr)
     8b8:	00010068 	.inst	0x00010068 ; undefined
     8bc:	6f746100 	umlsl2	v0.4s, v8.8h, v4.h[3]
	blk_mq_run_hw_queue(hctx, true);
     8c0:	2d63696d 	ldp	s13, s26, [x11, #-232]

     8c4:	74736e69 	.inst	0x74736e69 ; undefined
     8c8:	656d7572 	fnmls	z18.h, p5/m, z11.h, z13.h
static int sched_rq_cmp(void *priv, const struct list_head *a,
     8cc:	6465746e 	.inst	0x6465746e ; undefined
     8d0:	0700682e 	.inst	0x0700682e ; undefined
     8d4:	74610000 	.inst	0x74610000 ; undefined
ATOMIC64_OPS(andnot, bic, )
     8d8:	63696d6f 	.inst	0x63696d6f ; undefined
     8dc:	0400682e 	mls	z14.b, p2/m, z1.b, z0.b
     8e0:	74610000 	.inst	0x74610000 ; undefined
	blk_mq_run_hw_queue(hctx, true);
     8e4:	63696d6f 	.inst	0x63696d6f ; undefined

     8e8:	6372612d 	.inst	0x6372612d ; undefined
     8ec:	61662d68 	.inst	0x61662d68 ; undefined
static int sched_rq_cmp(void *priv, const struct list_head *a,
     8f0:	61626c6c 	.inst	0x61626c6c ; undefined
     8f4:	682e6b63 	.inst	0x682e6b63 ; undefined
     8f8:	00000700 	.inst	0x00000700 ; undefined
     8fc:	74736e69 	.inst	0x74736e69 ; undefined
     900:	656d7572 	fnmls	z18.h, p5/m, z11.h, z13.h
	/* RCU or SRCU read lock is needed before checking quiesced flag */
     904:	6465746e 	.inst	0x6465746e ; undefined

     908:	6f74612d 	umlsl2	v13.4s, v9.8h, v4.h[3]
     90c:	2e63696d 	.inst	0x2e63696d ; undefined
     910:	00030068 	.inst	0x00030068 ; undefined
     914:	6f746100 	umlsl2	v0.4s, v8.8h, v4.h[3]

     918:	2e63696d 	.inst	0x2e63696d ; undefined
     91c:	00030068 	.inst	0x00030068 ; undefined
     920:	736e6900 	.inst	0x736e6900 ; undefined
     924:	6d757274 	ldp	d20, d28, [x19, #-176]
     928:	65746e65 	fnmls	z5.h, p3/m, z19.h, z20.h
	/*
     92c:	00682e64 	.inst	0x00682e64 ; undefined
     930:	6b000002 	subs	w2, w0, w0
     934:	6e617363 	uabdl2	v3.4s, v27.8h, v1.8h
			blk_mq_run_hw_queue(hctx, true);
     938:	6568632d 	fnmls	z13.h, p0/m, z25.h, z8.h
     93c:	2e736b63 	.inst	0x2e736b63 ; undefined
     940:	00020068 	.inst	0x00020068 ; undefined
bool __blk_mq_sched_bio_merge(struct request_queue *q, struct bio *bio,
     944:	73616b00 	.inst	0x73616b00 ; undefined
     948:	632d6e61 	.inst	0x632d6e61 ; undefined
     94c:	6b636568 	.inst	0x6b636568 ; undefined
     950:	00682e73 	.inst	0x00682e73 ; undefined
	}
     954:	00000002 	.inst	0x00000002 ; undefined
     958:	00020900 	.inst	0x00020900 ; undefined
     95c:	00000000 	.inst	0x00000000 ; undefined
     960:	03000000 	.inst	0x03000000 ; undefined
}
     964:	160100cf 	b	fffffffff8040ca0 <blk_mq_init_sched+0xfffffffff803fd48>
     968:	1f21241c 	fnmadd	s28, s0, s1, s9
     96c:	02bf0321 	.inst	0x02bf0321 ; undefined
     970:	0302043c 	.inst	0x0302043c ; undefined
     974:	26017dcf 	.inst	0x26017dcf ; undefined
	struct blk_mq_ctx *ctx;
     978:	e2030304 	.inst	0xe2030304 ; undefined
     97c:	02042000 	.inst	0x02042000 ; undefined
     980:	207f9e03 	.inst	0x207f9e03 ; undefined
     984:	48030404 	stxrh	w3, w4, [x0]
     988:	03020420 	.inst	0x03020420 ; undefined
     98c:	0104203b 	.inst	0x0104203b ; undefined
     990:	5802aa03 	ldr	x3, 5ed0 <blk_mq_init_sched+0x4f78>
     994:	d9030204 	.inst	0xd9030204 ; undefined
	struct blk_mq_hw_ctx *hctx;
     998:	044c2e7d 	.inst	0x044c2e7d ; undefined

     99c:	02a30301 	.inst	0x02a30301 ; undefined
     9a0:	032f3d58 	.inst	0x032f3d58 ; undefined
     9a4:	a44a7de1 	ldff1b	{z1.s}, p7/z, [x15, x10]
     9a8:	2f207a03 	.inst	0x2f207a03 ; undefined
	ctx = blk_mq_get_ctx(q);
     9ac:	3c09031f 	stur	b31, [x24, #144]
     9b0:	24207903 	cmplo	p3.b, p6/z, z8.b, #1
	return rq_mergeable(rq) && elv_attempt_insert_merge(q, rq, free);
     9b4:	09032323 	.inst	0x09032323 ; undefined
     9b8:	20750320 	.inst	0x20750320 ; undefined
     9bc:	032e2c03 	.inst	0x032e2c03 ; undefined
     9c0:	0200205c 	.inst	0x0200205c ; undefined
     9c4:	3c060104 	stur	b4, [x8, #96]
     9c8:	03060504 	.inst	0x03060504 ; undefined
     9cc:	214a01b5 	.inst	0x214a01b5 ; undefined
	/* input parameter */
     9d0:	8b030604 	add	x4, x16, x3, lsl #1
	asm(ALTERNATIVE("mrs %0, tpidr_el1",
     9d4:	043d587f 	.inst	0x043d587f ; undefined
     9d8:	3c470301 	ldur	b1, [x24, #112]
 * This assumes per-cpu software queueing queues. They could be per-node
     9dc:	06045923 	.inst	0x06045923 ; undefined
     9e0:	3d202e03 	str	b3, [x16, #2059]
     9e4:	74030104 	.inst	0x74030104 ; undefined
	if (!(hctx->flags & BLK_MQ_F_SHOULD_MERGE) ||
     9e8:	1403223c 	b	c92d8 <blk_mq_init_sched+0xc8380>
	return ctx->hctxs[type];
     9ec:	e9060458 	.inst	0xe9060458 ; undefined
 * This assumes per-cpu software queueing queues. They could be per-node
     9f0:	03050459 	.inst	0x03050459 ; undefined
     9f4:	043c7f8f 	.inst	0x043c7f8f ; undefined
     9f8:	00c60301 	.inst	0x00c60301 ; undefined
	
     9fc:	03050420 	.inst	0x03050420 ; undefined
 * sysfs helpers
     a00:	04207f9e 	.inst	0x04207f9e ; undefined
     a04:	00ed0301 	.inst	0x00ed0301 ; undefined
     a08:	03050420 	.inst	0x03050420 ; undefined
		return false;
     a0c:	04207f91 	.inst	0x04207f91 ; undefined
     a10:	00e50301 	.inst	0x00e50301 ; undefined
     a14:	03050420 	.inst	0x03050420 ; undefined

     a18:	04207f9e 	.inst	0x04207f9e ; undefined
	    list_empty_careful(&ctx->rq_lists[type]))
     a1c:	00e30301 	.inst	0x00e30301 ; undefined

     a20:	3e362120 	.inst	0x3e362120 ; undefined
     a24:	20420330 	.inst	0x20420330 ; undefined
	struct list_head *next = smp_load_acquire(&head->next);
     a28:	2000c103 	.inst	0x2000c103 ; undefined
	return (next == head) && (next == head->prev);
     a2c:	7fb70328 	.inst	0x7fb70328 ; undefined
     a30:	00c9032e 	.inst	0x00c9032e ; undefined
	raw_spin_lock(&lock->rlock);
     a34:	04020020 	.inst	0x04020020 ; undefined
     a38:	7f960301 	.inst	0x7f960301 ; undefined

     a3c:	0402004a 	.inst	0x0402004a ; undefined
     a40:	02002501 	.inst	0x02002501 ; undefined
     a44:	7a030104 	sbcs	w4, w8, w3
     a48:	0402002e 	.inst	0x0402002e ; undefined

     a4c:	02002601 	.inst	0x02002601 ; undefined

     a50:	001d0104 	.inst	0x001d0104 ; undefined
     a54:	23010402 	.inst	0x23010402 ; undefined
     a58:	65231d21 	.inst	0x65231d21 ; undefined
	spin_unlock(&ctx->lock);
     a5c:	05041b25 	.inst	0x05041b25 ; undefined
	return ret;
     a60:	4a01bb03 	.inst	0x4a01bb03 ; undefined
	spin_unlock(&ctx->lock);
     a64:	2001d803 	.inst	0x2001d803 ; undefined
     a68:	232e4403 	.inst	0x232e4403 ; undefined
	raw_spin_unlock(&lock->rlock);
     a6c:	e803231f 	.inst	0xe803231f ; undefined
     a70:	0321207c 	.inst	0x0321207c ; undefined
	return rq_mergeable(rq) && elv_attempt_insert_merge(q, rq, free);
     a74:	04200398 	add	z24.b, z28.b, z0.b
     a78:	7dad0301 	.inst	0x7dad0301 ; undefined
     a7c:	03050420 	.inst	0x03050420 ; undefined
     a80:	042e01b1 	add	z17.b, z13.b, z14.b
     a84:	7ecf0301 	.inst	0x7ecf0301 ; undefined
     a88:	00dd0320 	.inst	0x00dd0320 ; undefined
     a8c:	21332120 	.inst	0x21332120 ; undefined
     a90:	042d0604 	sub	z4.b, z16.b, z13.b
}
     a94:	01d90305 	.inst	0x01d90305 ; undefined
     a98:	2f21332e 	.inst	0x2f21332e ; undefined
     a9c:	01041f22 	.inst	0x01041f22 ; undefined
 * sysfs helpers
     aa0:	2e7e8c03 	cmeq	v3.4h, v0.4h, v30.4h
     aa4:	200d0331 	.inst	0x200d0331 ; undefined
     aa8:	0305045b 	.inst	0x0305045b ; undefined
		return false;
     aac:	042e7ed7 	.inst	0x042e7ed7 ; undefined
     ab0:	2e3a0301 	uaddl	v1.8h, v24.8b, v26.8b
     ab4:	2e00f203 	.inst	0x2e00f203 ; undefined
     ab8:	2e02d003 	.inst	0x2e02d003 ; undefined
     abc:	02006a78 	.inst	0x02006a78 ; undefined
     ac0:	002a0204 	.inst	0x002a0204 ; NYI
     ac4:	06030402 	.inst	0x06030402 ; undefined
     ac8:	0402003c 	.inst	0x0402003c ; undefined
     acc:	2f2f0603 	ushr	v3.2s, v16.2s, #17
	/* default per sw-queue merge */
     ad0:	82030604 	.inst	0x82030604 ; undefined
     ad4:	0104207d 	.inst	0x0104207d ; undefined
	return rq_mergeable(rq) && elv_attempt_insert_merge(q, rq, free);
     ad8:	2002fe03 	.inst	0x2002fe03 ; undefined
     adc:	6e034f21 	mov	v1.b[1], v25.b[9]
     ae0:	13032f20 	sbfx	w0, w25, #3, #9
     ae4:	7dc30320 	.inst	0x7dc30320 ; undefined
     ae8:	ba0f0358 	adcs	x24, x26, x15
     aec:	2c207303 	stnp	s3, s28, [x24, #-256]

     af0:	0604223d 	.inst	0x0604223d ; undefined
     af4:	042e5803 	.inst	0x042e5803 ; undefined
     af8:	3c380301 	.inst	0x3c380301 ; undefined
     afc:	06044b23 	.inst	0x06044b23 ; undefined
     b00:	4b204d03 	sub	w3, w8, w0, uxtw #3
     b04:	81030504 	.inst	0x81030504 ; undefined
     b08:	01043c7f 	.inst	0x01043c7f ; undefined
     b0c:	2001c503 	.inst	0x2001c503 ; undefined
     b10:	ae030504 	.inst	0xae030504 ; undefined
     b14:	0104207e 	.inst	0x0104207e ; undefined
     b18:	2001d703 	.inst	0x2001d703 ; undefined
     b1c:	a6030504 	.inst	0xa6030504 ; undefined
     b20:	04222e7e 	.inst	0x04222e7e ; undefined
     b24:	01970301 	.inst	0x01970301 ; undefined
     b28:	1b233020 	.inst	0x1b233020 ; undefined
		/*
     b2c:	2000c103 	.inst	0x2000c103 ; undefined
	if (blk_mq_sched_bypass_insert(hctx, rq)) {
     b30:	207fbf03 	.inst	0x207fbf03 ; undefined

     b34:	3c035b22 	.inst	0x3c035b22 ; undefined
		 * sw queue, meantime we add flush request to dispatch queue(
     b38:	03050420 	.inst	0x03050420 ; undefined
     b3c:	04213c1e 	.inst	0x04213c1e ; undefined
     b40:	58400301 	ldr	x1, 80ba0 <blk_mq_init_sched+0x7fc48>
     b44:	4b030604 	sub	w4, w16, w3, lsl #1
     b48:	0301044a 	.inst	0x0301044a ; undefined

     b4c:	06043c3c 	.inst	0x06043c3c ; undefined
     b50:	042e4603 	index	z3.b, w16, #14
     b54:	203a0301 	.inst	0x203a0301 ; undefined
     b58:	0306042f 	.inst	0x0306042f ; undefined
     b5c:	3d2e7fbd 	str	b29, [x29, #2975]
     b60:	cb030104 	sub	x4, x8, x3
	} else {
     b64:	64033c00 	.inst	0x64033c00 ; undefined
	new->next = next;
     b68:	201d033c 	.inst	0x201d033c ; undefined
		spin_unlock(&ctx->lock);
     b6c:	00206303 	.inst	0x00206303 ; NYI
	new->prev = prev;
     b70:	03030402 	.inst	0x03030402 ; undefined
	WRITE_ONCE(prev->next, new);
     b74:	0200202e 	.inst	0x0200202e ; undefined
	next->prev = new;
     b78:	06220304 	.inst	0x06220304 ; undefined
	}
     b7c:	57030658 	.inst	0x57030658 ; undefined
     b80:	2e290382 	uaddl	v2.8h, v28.8b, v9.8b
     b84:	2e7e9003 	.inst	0x2e7e9003 ; undefined
     b88:	c2030704 	.inst	0xc2030704 ; undefined
     b8c:	01040100 	.inst	0x01040100 ; undefined
     b90:	207fbf03 	.inst	0x207fbf03 ; undefined
				  struct blk_mq_ctx *ctx,
     b94:	0804243b 	stxrb	w4, w27, [x1]
				  struct list_head *list, bool run_queue_async)
     b98:	04206e03 	.inst	0x04206e03 ; undefined
     b9c:	018b0309 	.inst	0x018b0309 ; undefined
     ba0:	0301042e 	.inst	0x0301042e ; undefined
{
     ba4:	042e7f88 	.inst	0x042e7f88 ; undefined
     ba8:	01a5030a 	.inst	0x01a5030a ; undefined
     bac:	0301042e 	.inst	0x0301042e ; undefined
     bb0:	032e7edb 	.inst	0x032e7edb ; undefined
     bb4:	822e01ee 	.inst	0x822e01ee ; undefined
     bb8:	76032624 	.inst	0x76032624 ; undefined
     bbc:	1e223e20 	fcsel	s0, s17, s2, cc  // cc = lo, ul, last
     bc0:	03050422 	.inst	0x03050422 ; undefined
     bc4:	04212013 	.inst	0x04212013 ; undefined
     bc8:	2e2c030b 	uaddl	v11.8h, v24.8b, v12.8b
     bcc:	af030504 	.inst	0xaf030504 ; undefined
	if (e) {
     bd0:	01042e7f 	.inst	0x01042e7f ; undefined
		LIST_HEAD(list);
     bd4:	04201903 	sqsub	z3.b, z8.b, z0.b
     bd8:	2e670305 	uaddl	v5.4s, v24.4h, v7.4h
     bdc:	2001c703 	.inst	0x2001c703 ; undefined

     be0:	222e5503 	.inst	0x222e5503 ; undefined
	raw_spin_lock(&lock->rlock);
     be4:	03202a03 	.inst	0x03202a03 ; undefined
     be8:	21222057 	.inst	0x21222057 ; undefined
     bec:	207ce703 	.inst	0x207ce703 ; undefined
	if (run_queue)
     bf0:	030b0421 	.inst	0x030b0421 ; undefined
     bf4:	042002ef 	add	z15.b, z23.b, z0.b
     bf8:	7f870305 	.inst	0x7f870305 ; undefined
     bfc:	0301042e 	.inst	0x0301042e ; undefined
     c00:	0704202b 	.inst	0x0704202b ; undefined
	raw_spin_unlock(&lock->rlock);
     c04:	2e7eb103 	.inst	0x2e7eb103 ; undefined
     c08:	bf030104 	.inst	0xbf030104 ; undefined
     c0c:	9203207f 	and	sp, x3, #0xe000003fe000003f
{
     c10:	63032e02 	.inst	0x63032e02 ; undefined
     c14:	201d034a 	.inst	0x201d034a ; undefined
	 * blk_mq_sched_insert_requests() is called from flush plug
     c18:	7f8e032f 	.inst	0x7f8e032f ; undefined
     c1c:	81033d2e 	.inst	0x81033d2e ; undefined
     c20:	e0032e01 	.inst	0xe0032e01 ; undefined
     c24:	0804ba7d 	stlxrb	w4, w29, [x19]
     c28:	04206e03 	.inst	0x04206e03 ; undefined
     c2c:	018b0309 	.inst	0x018b0309 ; undefined
     c30:	0301042e 	.inst	0x0301042e ; undefined
     c34:	032e0196 	.inst	0x032e0196 ; undefined
     c38:	1d034a63 	.inst	0x1d034a63 ; undefined
     c3c:	030a0420 	.inst	0x030a0420 ; undefined
	 * from being released.
     c40:	043c7f97 	.inst	0x043c7f97 ; undefined
	__rcu_read_lock();
     c44:	00e90301 	.inst	0x00e90301 ; undefined
	percpu_ptr = READ_ONCE(ref->percpu_count_ptr);
     c48:	4a63032e 	eon	w14, w25, w3, lsr #0
	if (unlikely(percpu_ptr & __PERCPU_REF_ATOMIC_DEAD))
     c4c:	04201d03 	uqsub	z3.b, z8.b, z0.b
     c50:	3c780305 	.inst	0x3c780305 ; undefined
     c54:	043c5b03 	.inst	0x043c5b03 ; undefined
	u32 pc = READ_ONCE(current_thread_info()->preempt.count);
     c58:	202b0301 	.inst	0x202b0301 ; undefined
	pc += val;
     c5c:	7f890336 	.inst	0x7f890336 ; undefined
	WRITE_ONCE(current_thread_info()->preempt.count, pc);
     c60:	f8033d2e 	str	x14, [x9, #51]!
PERCPU_OP(add, add, stadd)
     c64:	4c303c00 	.inst	0x4c303c00 ; undefined
	asm(ALTERNATIVE("mrs %0, tpidr_el1",
     c68:	4a56033d 	eor	w29, w25, w22, lsr #0
PERCPU_OP(add, add, stadd)
     c6c:	032e2e03 	.inst	0x032e2e03 ; undefined
     c70:	04207dbe 	.inst	0x04207dbe ; undefined
     c74:	01042b0c 	.inst	0x01042b0c ; undefined
     c78:	03213623 	.inst	0x03213623 ; undefined
     c7c:	0b045878 	add	w24, w3, w4, lsl #22
	u64 pc = READ_ONCE(ti->preempt_count);
     c80:	2002ed03 	.inst	0x2002ed03 ; undefined
	WRITE_ONCE(ti->preempt.count, --pc);
     c84:	9f030104 	.inst	0x9f030104 ; undefined
     c88:	0b043c7d 	add	w29, w3, w4, lsl #15
	return !pc || !READ_ONCE(ti->preempt_count);
     c8c:	4a02fa03 	.inst	0x4a02fa03 ; undefined
		this_cpu_add(*percpu_count, nr);
     c90:	89030104 	.inst	0x89030104 ; undefined
	__rcu_read_unlock();
     c94:	2f252e7d 	.inst	0x2f252e7d ; undefined
		 * try to issue requests directly if the hw queue isn't
     c98:	4a7a034b 	eon	w11, w26, w26, lsr #0
     c9c:	58150359 	ldr	x25, 2ad04 <blk_mq_init_sched+0x29dac>
		 * busy in case of 'none' scheduler, and this way may save
     ca0:	39030704 	strb	w4, [x24, #193]
		 * us one extra enqueue & dequeue to sw queue.
     ca4:	03010401 	.inst	0x03010401 ; undefined
     ca8:	313b2048 	adds	w8, w2, #0xec8
     cac:	0308041d 	.inst	0x0308041d ; undefined
     cb0:	09042069 	.inst	0x09042069 ; undefined
     cb4:	2e018a03 	.inst	0x2e018a03 ; undefined
     cb8:	99030104 	.inst	0x99030104 ; undefined
static int blk_mq_sched_alloc_map_and_rqs(struct request_queue *q,
     cbc:	2f222e7f 	.inst	0x2f222e7f ; undefined
     cc0:	99030a04 	.inst	0x99030a04 ; undefined
     cc4:	01043c01 	.inst	0x01043c01 ; undefined
	__rcu_read_lock();
     cc8:	3c7ee403 	.inst	0x3c7ee403 ; undefined
	percpu_ptr = READ_ONCE(ref->percpu_count_ptr);
     ccc:	8f032f22 	.inst	0x8f032f22 ; undefined
	if (unlikely(percpu_ptr & __PERCPU_REF_ATOMIC_DEAD))
     cd0:	07044a02 	.inst	0x07044a02 ; undefined
     cd4:	017e9b03 	.inst	0x017e9b03 ; undefined
     cd8:	e6030104 	.inst	0xe6030104 ; undefined
	u32 pc = READ_ONCE(current_thread_info()->preempt.count);
     cdc:	04232001 	.inst	0x04232001 ; undefined
	pc += val;
     ce0:	04020007 	.inst	0x04020007 ; undefined
	WRITE_ONCE(current_thread_info()->preempt.count, pc);
     ce4:	7e970301 	.inst	0x7e970301 ; undefined
     ce8:	00010420 	.inst	0x00010420 ; undefined
	asm(ALTERNATIVE("mrs %0, tpidr_el1",
     cec:	03010402 	.inst	0x03010402 ; undefined
PERCPU_OP(add, add, stadd)
     cf0:	2a2001e9 	orn	w9, w15, w0
     cf4:	4740425f 	.inst	0x4740425f ; undefined
     cf8:	26835e4b 	.inst	0x26835e4b ; undefined
     cfc:	01040200 	.inst	0x01040200 ; undefined
     d00:	3d062006 	str	b6, [x0, #392]
	u64 pc = READ_ONCE(ti->preempt_count);
     d04:	042e1803 	sqsub	z3.b, z0.b, z14.b
	WRITE_ONCE(ti->preempt.count, --pc);
     d08:	7e820306 	.inst	0x7e820306 ; undefined
     d0c:	030d0474 	.inst	0x030d0474 ; undefined
	return !pc || !READ_ONCE(ti->preempt_count);
     d10:	04207f95 	.inst	0x04207f95 ; undefined
		this_cpu_sub(*percpu_count, nr);
     d14:	00eb0306 	.inst	0x00eb0306 ; undefined
	__rcu_read_unlock();
     d18:	20750320 	.inst	0x20750320 ; undefined
{
     d1c:	03200b03 	.inst	0x03200b03 ; undefined
     d20:	01040175 	.inst	0x01040175 ; undefined
     d24:	2e01f403 	.inst	0x2e01f403 ; undefined
     d28:	f5030604 	.inst	0xf5030604 ; undefined
     d2c:	1703207d 	b	fffffffffc0c8f20 <blk_mq_init_sched+0xfffffffffc0c7fc8>
     d30:	3c680320 	.inst	0x3c680320 ; undefined
     d34:	03010425 	.inst	0x03010425 ; undefined
     d38:	003c0289 	.inst	0x003c0289 ; NYI
     d3c:	3d010402 	str	b2, [x0, #65]
     d40:	01040200 	.inst	0x01040200 ; undefined
     d44:	0402001e 	.inst	0x0402001e ; undefined
     d48:	05042201 	.inst	0x05042201 ; undefined
     d4c:	01040200 	.inst	0x01040200 ; undefined
     d50:	002e4003 	.inst	0x002e4003 ; NYI
     d54:	21010402 	.inst	0x21010402 ; undefined
     d58:	2c030b04 	stnp	s4, s2, [x24, #24]
     d5c:	0301042e 	.inst	0x0301042e ; undefined
     d60:	6c032e1d 	stnp	d29, d11, [x16, #48]
		atomic_long_add(nr, &ref->data->count);
     d64:	2014034a 	.inst	0x2014034a ; undefined
     d68:	041f213d 	.inst	0x041f213d ; undefined
     d6c:	2e0a030b 	ext	v11.8b, v24.8b, v10.8b, #0
ATOMIC64_OP(add, stadd)
     d70:	042b0104 	add	z4.b, z8.b, z11.b
     d74:	0104230b 	.inst	0x0104230b ; undefined
     d78:	0306042b 	.inst	0x0306042b ; undefined
ATOMIC64_OPS(add, add, I)
     d7c:	3f587de1 	.inst	0x3f587de1 ; undefined
     d80:	89030104 	.inst	0x89030104 ; undefined
	else if (unlikely(atomic_long_sub_and_test(nr, &ref->data->count)))
     d84:	05043c02 	.inst	0x05043c02 ; undefined
     d88:	043c4203 	index	z3.b, #-16, #-4
     d8c:	00c00301 	.inst	0x00c00301 ; undefined
ATOMIC64_OP_SUB_RETURN(        , al, "memory")
     d90:	2e110366 	ext	v6.8b, v27.8b, v17.8b, #0
     d94:	90661f03 	adrp	x3, cc3e0000 <blk_mq_init_sched+0xcc3df0a8>
     d98:	241f1f6a 	cmphs	p10.b, p7/z, z27.b, z31.b
     d9c:	01040200 	.inst	0x01040200 ; undefined
     da0:	003c2006 	.inst	0x003c2006 ; NYI
		ref->data->release(ref);
     da4:	06090402 	.inst	0x06090402 ; undefined
     da8:	04207203 	.inst	0x04207203 ; undefined
     dac:	7ea40303 	.inst	0x7ea40303 ; undefined
     db0:	0304042e 	.inst	0x0304042e ; undefined
     db4:	04207ee6 	.inst	0x04207ee6 ; undefined
ATOMIC64_OPS(sub, sub, J)
     db8:	02f60301 	.inst	0x02f60301 ; undefined
     dbc:	2e2b0320 	uaddl	v0.8h, v25.8b, v11.8b
	else if (unlikely(atomic_long_sub_and_test(nr, &ref->data->count)))
     dc0:	f5030504 	.inst	0xf5030504 ; undefined
     dc4:	0104207c 	.inst	0x0104207c ; undefined
		blk_mq_insert_requests(hctx, ctx, list);
     dc8:	20038e03 	.inst	0x20038e03 ; undefined
     dcc:	f3030504 	.inst	0xf3030504 ; undefined
     dd0:	1d21207c 	.inst	0x1d21207c ; undefined
     dd4:	90030104 	adrp	x4, 6020000 <blk_mq_init_sched+0x601f0a8>
	percpu_ref_put(&q->q_usage_counter);
     dd8:	216e2003 	.inst	0x216e2003 ; undefined
     ddc:	ac6d033d 	ldnp	q29, q0, [x25, #-608]
     de0:	06040200 	.inst	0x06040200 ; undefined
     de4:	04020021 	.inst	0x04020021 ; undefined
     de8:	0b043d06 	add	w6, w8, w4, lsl #15
	}
     dec:	207f9c03 	.inst	0x207f9c03 ; undefined
     df0:	ee030104 	.inst	0xee030104 ; undefined
     df4:	0b043c00 	add	w0, w0, w4, lsl #15
	return READ_ONCE(head->next) == head;
     df8:	587fba03 	ldr	x3, 100538 <blk_mq_init_sched+0xff5e0>

     dfc:	cd030104 	.inst	0xcd030104 ; undefined
     e00:	82333c00 	.inst	0x82333c00 ; undefined
     e04:	030e0430 	.inst	0x030e0430 ; undefined
		blk_mq_free_rqs(q->tag_set, q->sched_shared_tags,
     e08:	042001c6 	add	z6.b, z14.b, z0.b
     e0c:	7c81030f 	.inst	0x7c81030f ; undefined
     e10:	0c042820 	.inst	0x0c042820 ; undefined
     e14:	2e7edd03 	.inst	0x2e7edd03 ; undefined
     e18:	1b031004 	madd	w4, w0, w3, w4
			if (hctx->sched_tags)
     e1c:	04212120 	.inst	0x04212120 ; undefined
{
     e20:	019d030f 	.inst	0x019d030f ; undefined
     e24:	030d0420 	.inst	0x030d0420 ; undefined
     e28:	03017fb1 	.inst	0x03017fb1 ; undefined
	}
     e2c:	04207fa9 	.inst	0x04207fa9 ; undefined
     e30:	01a6030f 	.inst	0x01a6030f ; undefined
     e34:	030d0420 	.inst	0x030d0420 ; undefined
     e38:	04017fb1 	mls	z17.b, p7/m, z29.b, z1.b

     e3c:	00cf030f 	.inst	0x00cf030f ; undefined
}
     e40:	03100458 	.inst	0x03100458 ; undefined
     e44:	23017ef0 	.inst	0x23017ef0 ; undefined

     e48:	042e0903 	.inst	0x042e0903 ; undefined
}
     e4c:	0184030f 	.inst	0x0184030f ; undefined

     e50:	030e0420 	.inst	0x030e0420 ; undefined
     e54:	04200482 	sub	z2.b, z4.b, z0.b
     e58:	7ea10301 	.inst	0x7ea10301 ; undefined
	}
     e5c:	03212f20 	.inst	0x03212f20 ; undefined
     e60:	0e04660f 	.inst	0x0e04660f ; undefined
     e64:	3c01ac03 	str	b3, [x0, #26]!
     e68:	81030f04 	.inst	0x81030f04 ; undefined
	unsigned int i;
     e6c:	0428207c 	.inst	0x0428207c ; undefined
     e70:	7edd030c 	.inst	0x7edd030c ; undefined
     e74:	0310042e 	.inst	0x0310042e ; undefined
     e78:	2121201b 	.inst	0x2121201b ; undefined
				blk_mq_free_rqs(q->tag_set,
     e7c:	90030f04 	adrp	x4, 61e0000 <blk_mq_init_sched+0x61df0a8>
     e80:	0d042002 	.inst	0x0d042002 ; undefined
     e84:	017ebe03 	.inst	0x017ebe03 ; undefined
	unsigned int i;
     e88:	207fa903 	.inst	0x207fa903 ; undefined
     e8c:	99030f04 	.inst	0x99030f04 ; undefined
     e90:	0d042002 	.inst	0x0d042002 ; undefined
     e94:	017ebe03 	.inst	0x017ebe03 ; undefined
	queue_for_each_hw_ctx(q, hctx, i) {
     e98:	c2030f04 	.inst	0xc2030f04 ; undefined
     e9c:	10045801 	adr	x1, 999c <blk_mq_init_sched+0x8a44>
     ea0:	017dfd03 	.inst	0x017dfd03 ; undefined
     ea4:	2e090323 	ext	v3.8b, v25.8b, v9.8b, #0
     ea8:	f7030f04 	.inst	0xf7030f04 ; undefined
     eac:	0e042001 	tbl	v1.8b, {v0.16b, v1.16b}, v4.8b
     eb0:	20038f03 	.inst	0x20038f03 ; undefined
		}
     eb4:	b5030104 	cbnz	x4, 6ed4 <blk_mq_init_sched+0x5f7c>
     eb8:	1004207e 	adr	x30, 92c4 <blk_mq_init_sched+0x836c>
     ebc:	667cc503 	.inst	0x667cc503 ; undefined
     ec0:	86030e04 	.inst	0x86030e04 ; undefined
     ec4:	01042e05 	.inst	0x01042e05 ; undefined
     ec8:	207eb503 	.inst	0x207eb503 ; undefined
     ecc:	c5031004 	ld1sw	{z4.d}, p4/z, [x0, z3.d, uxtw]
		flags = hctx->flags;
     ed0:	0f04667c 	movi	v28.2s, #0x93, lsl #24
     ed4:	3c018603 	str	b3, [x16], #24
	}
     ed8:	d7030804 	.inst	0xd7030804 ; undefined
	blk_mq_debugfs_unregister_sched(q);
     edc:	0904207e 	.inst	0x0904207e ; undefined
     ee0:	2e018d03 	.inst	0x2e018d03 ; undefined
	}
     ee4:	1f030a04 	fmadd	s4, s16, s3, s2
     ee8:	030f043c 	.inst	0x030f043c ; undefined
     eec:	042e00ef 	add	z15.b, z7.b, z14.b
     ef0:	7de50308 	.inst	0x7de50308 ; undefined
	blk_mq_debugfs_unregister_sched(q);
     ef4:	03090420 	.inst	0x03090420 ; undefined
	if (e->type->ops.exit_sched)
     ef8:	042e0280 	add	z0.b, z20.b, z14.b
		}
     efc:	4a1b030f 	eor	w15, w24, w27
     f00:	030a0421 	.inst	0x030a0421 ; undefined
     f04:	04587f91 	mls	z17.h, p7/m, z28.h, z24.h
     f08:	00ee030f 	.inst	0x00ee030f ; undefined
	blk_mq_sched_tags_teardown(q, flags);
     f0c:	0301042e 	.inst	0x0301042e ; undefined
     f10:	4f2e01b8 	.inst	0x4f2e01b8 ; undefined
}
     f14:	03050454 	.inst	0x03050454 ; undefined
     f18:	043c7ea0 	.inst	0x043c7ea0 ; undefined
     f1c:	01e10301 	.inst	0x01e10301 ; undefined
     f20:	018b0320 	.inst	0x018b0320 ; undefined
     f24:	06045c3c 	.inst	0x06045c3c ; undefined
     f28:	207c9d03 	.inst	0x207c9d03 ; undefined
     f2c:	e3030104 	.inst	0xe3030104 ; undefined
     f30:	4c322003 	.inst	0x4c322003 ; undefined
     f34:	211f2f1f 	.inst	0x211f2f1f ; undefined
     f38:	7703503a 	.inst	0x7703503a ; undefined
     f3c:	3c09034a 	stur	b10, [x26, #144]
     f40:	0200794d 	.inst	0x0200794d ; undefined
     f44:	00580304 	.inst	0x00580304 ; undefined
     f48:	2f030402 	mvni	v2.2s, #0x60
     f4c:	03040200 	.inst	0x03040200 ; undefined
     f50:	0402002f 	.inst	0x0402002f ; undefined
     f54:	02002103 	.inst	0x02002103 ; undefined

     f58:	002d0304 	.inst	0x002d0304 ; NYI
     f5c:	06010402 	.inst	0x06010402 ; undefined
     f60:	212f062e 	.inst	0x212f062e ; undefined
     f64:	02040200 	.inst	0x02040200 ; undefined
	if (!e) {
     f68:	2f30501c 	.inst	0x2f30501c ; undefined

     f6c:	213d2f3d 	.inst	0x213d2f3d ; undefined
     f70:	667f9a03 	.inst	0x667f9a03 ; undefined
     f74:	0b03254b 	add	w11, w10, w3, lsl #9
     f78:	3c70034a 	.inst	0x3c70034a ; undefined
		if (ret)
     f7c:	4d201003 	st2	{v3.b, v4.b}[12], [x0]
     f80:	01040200 	.inst	0x01040200 ; undefined
     f84:	7fae0334 	.inst	0x7fae0334 ; undefined
	if (!e) {
     f88:	04020058 	.inst	0x04020058 ; undefined
		if (ret)
     f8c:	00d20302 	.inst	0x00d20302 ; undefined
     f90:	0402002e 	.inst	0x0402002e ; undefined
     f94:	7fad0303 	.inst	0x7fad0303 ; undefined
     f98:	0402004a 	.inst	0x0402004a ; undefined

     f9c:	00d30303 	.inst	0x00d30303 ; undefined
     fa0:	00060420 	.inst	0x00060420 ; undefined

     fa4:	03030402 	.inst	0x03030402 ; undefined
     fa8:	04207cca 	.inst	0x04207cca ; undefined
     fac:	04020001 	.inst	0x04020001 ; undefined
     fb0:	03b60303 	.inst	0x03b60303 ; undefined
     fb4:	04020020 	.inst	0x04020020 ; undefined
						    q->nr_requests);
     fb8:	7fad0303 	.inst	0x7fad0303 ; undefined
     fbc:	214d2520 	.inst	0x214d2520 ; undefined

     fc0:	5b3c2403 	.inst	0x5b3c2403 ; undefined
     fc4:	58260323 	ldr	x3, 4d028 <blk_mq_init_sched+0x4c0d0>
     fc8:	20160359 	.inst	0x20160359 ; undefined
     fcc:	2f213e2f 	.inst	0x2f213e2f ; undefined
	hctx->sched_tags = blk_mq_alloc_map_and_rqs(q->tag_set, hctx_idx,
     fd0:	22584b03 	.inst	0x22584b03 ; undefined

     fd4:	2e34031f 	uaddl	v31.8h, v24.8b, v20.8b
     fd8:	30586803 	adr	x3, b1cd9 <blk_mq_init_sched+0xb0d81>
     fdc:	03580b03 	.inst	0x03580b03 ; undefined
	hctx->sched_tags = blk_mq_alloc_map_and_rqs(q->tag_set, hctx_idx,
     fe0:	02003c75 	.inst	0x02003c75 ; undefined
	return 0;
     fe4:	004b0304 	.inst	0x004b0304 ; undefined
     fe8:	21030402 	.inst	0x21030402 ; undefined
     fec:	03040200 	.inst	0x03040200 ; undefined
     ff0:	0402001e 	.inst	0x0402001e ; undefined
static void blk_mq_exit_sched_shared_tags(struct request_queue *queue)
     ff4:	3d212f03 	str	b3, [x24, #2123]
{
     ff8:	231d2121 	.inst	0x231d2121 ; undefined
     ffc:	032f3d21 	.inst	0x032f3d21 ; undefined
    1000:	2e02824a 	.inst	0x2e02824a ; undefined

    1004:	Address 0x0000000000001004 is out of bounds.


Disassembly of section .debug_str:

0000000000000000 <.debug_str>:

       0:	5f4b4c42 	.inst	0x5f4b4c42 ; undefined
	struct request *rqb = container_of(b, struct request, queuelist);
       4:	465f514d 	.inst	0x465f514d ; undefined

       8:	4154535f 	.inst	0x4154535f ; undefined
static bool blk_mq_dispatch_hctx_list(struct list_head *rq_list)
       c:	4e494b43 	.inst	0x4e494b43 ; undefined

      10:	6f6c0047 	mla	v7.8h, v2.8h, v12.h[2]
static bool blk_mq_dispatch_hctx_list(struct list_head *rq_list)
      14:	6c20676e 	stnp	d14, d25, [x27, #-512]
      18:	20676e6f 	.inst	0x20676e6f ; undefined
      1c:	00746e69 	.inst	0x00746e69 ; undefined
static inline bool rq_mergeable(struct request *rq)
      20:	36755f5f 	tbz	wzr, #14, ffffffffffffac08 <blk_mq_init_sched+0xffffffffffff9cb0>
		return false;
      24:	524e0034 	.inst	0x524e0034 ; undefined
      28:	4c49465f 	.inst	0x4c49465f ; undefined
      2c:	41505f45 	.inst	0x41505f45 ; undefined
      30:	00534547 	.inst	0x00534547 ; undefined
		return false;
      34:	616d756e 	.inst	0x616d756e ; undefined
      38:	66666f5f 	.inst	0x66666f5f ; undefined
      3c:	6e5f5f00 	.inst	0x6e5f5f00 ; undefined
      40:	736e696f 	.inst	0x736e696f ; undefined
      44:	745f7274 	.inst	0x745f7274 ; undefined
{
      48:	5f747865 	sqdmlsl	s5, h3, v4.h[7]
      4c:	00646e65 	.inst	0x00646e65 ; undefined
		return false;
      50:	5f414d43 	.inst	0x5f414d43 ; undefined
      54:	4f4c4c41 	.inst	0x4f4c4c41 ; undefined
      58:	41465f43 	.inst	0x41465f43 ; undefined
      5c:	7a004c49 	.inst	0x7a004c49 ; undefined
	if (rq->cmd_flags & REQ_NOMERGE_FLAGS)
      60:	5f656e6f 	.inst	0x5f656e6f ; undefined
      64:	74617473 	.inst	0x74617473 ; undefined
      68:	6574695f 	fnmls	z31.h, p2/m, z10.h, z20.h
      6c:	6f63006d 	mla	v13.8h, v3.8h, v3.h[2]
      70:	6c6f736e 	ldnp	d14, d28, [x27, #-272]
static bool blk_mq_sched_bypass_insert(struct blk_mq_hw_ctx *hctx,
      74:	72705f65 	.inst	0x72705f65 ; undefined
      78:	6b746e69 	.inst	0x6b746e69 ; undefined
      7c:	73696400 	.inst	0x73696400 ; undefined
				       struct request *rq)
      80:	63746170 	.inst	0x63746170 ; undefined
      84:	00646568 	.inst	0x00646568 ; undefined
{
      88:	74735f5f 	.inst	0x74735f5f ; undefined
      8c:	5f5f706f 	sqdmlsl	s15, h3, v15.h[1]
      90:	6d756a5f 	ldp	d31, d26, [x18, #-176]
      94:	61745f70 	.inst	0x61745f70 ; undefined
	struct elevator_queue *e = q->elevator;
      98:	00656c62 	.inst	0x00656c62 ; undefined
      9c:	535f524e 	.inst	0x535f524e ; undefined
      a0:	5f42414c 	.inst	0x5f42414c ; undefined
      a4:	4c434552 	.inst	0x4c434552 ; undefined
      a8:	414d4941 	.inst	0x414d4941 ; undefined
      ac:	5f454c42 	.inst	0x5f454c42 ; undefined
      b0:	61700042 	.inst	0x61700042 ; undefined
      b4:	5f6d6172 	.inst	0x5f6d6172 ; undefined
      b8:	5f73706f 	sqdmlsl	s15, h3, v3.h[3]
      bc:	62766e69 	.inst	0x62766e69 ; undefined

      c0:	006c6f6f 	.inst	0x006c6f6f ; undefined
	struct elevator_queue *e = q->elevator;
      c4:	74696e69 	.inst	0x74696e69 ; undefined
      c8:	6469705f 	.inst	0x6469705f ; undefined
	bool multi_hctxs = false, run_queue = false;
      cc:	00736e5f 	.inst	0x00736e5f ; undefined
	struct elevator_queue *e = q->elevator;
      d0:	5f544257 	.inst	0x5f544257 ; undefined
      d4:	5f515752 	shl	d18, d26, #17
      d8:	6c004742 	stnp	d2, d17, [x26]
	else
      dc:	20676e6f 	.inst	0x20676e6f ; undefined
	bool dispatched = false, busy = false;
      e0:	69736e75 	ldpsw	x21, x27, [x19, #-104]

      e4:	64656e67 	.inst	0x64656e67 ; undefined
	else
      e8:	746e6920 	.inst	0x746e6920 ; undefined
	do {
      ec:	635f5f00 	.inst	0x635f5f00 ; undefined
			break;
      f0:	69706d6f 	ldpsw	x15, x27, [x11, #-128]
		max_dispatch = hctx->queue->nr_requests;
      f4:	6974656c 	ldpsw	x12, x25, [x11, #-96]
      f8:	615f656d 	.inst	0x615f656d ; undefined
		/*
      fc:	72657373 	.inst	0x72657373 ; undefined

     100:	38325f74 	.inst	0x38325f74 ; undefined
     104:	73660038 	.inst	0x73660038 ; undefined
     108:	65766f5f 	fnmls	z31.h, p3/m, z26.h, z22.h
     10c:	6f6c6672 	sqshlu	v18.2d, v19.2d, #44
     110:	64696777 	.inst	0x64696777 ; undefined
     114:	55524c00 	.inst	0x55524c00 ; undefined
     118:	454e555f 	.inst	0x454e555f ; undefined
	struct list_head *next = smp_load_acquire(&head->next);
     11c:	54434956 	.inst	0x54434956 ; undefined
	return (next == head) && (next == head->prev);
     120:	454c4241 	.inst	0x454c4241 ; undefined
     124:	735f5f00 	.inst	0x735f5f00 ; undefined
     128:	74726174 	.inst	0x74726174 ; undefined
     12c:	64706f5f 	.inst	0x64706f5f ; undefined
     130:	555f5f00 	.inst	0x555f5f00 ; undefined

     134:	5551494e 	.inst	0x5551494e ; undefined
     138:	44495f45 	.inst	0x44495f45 ; undefined
     13c:	615f5f5f 	.inst	0x615f5f5f ; undefined
static inline void blk_mq_set_rq_budget_token(struct request *rq, int token)
     140:	65726464 	fnmls	z4.h, p1/m, z3.h, z18.h
     144:	62617373 	.inst	0x62617373 ; undefined
     148:	625f656c 	.inst	0x625f656c ; undefined

     14c:	6d5f6b6c 	ldp	d12, d26, [x27, #496]
			blk_mq_put_dispatch_budget(q, budget_token);
     150:	63735f71 	.inst	0x63735f71 ; undefined
     154:	5f646568 	.inst	0x5f646568 ; undefined
     158:	5f797274 	sqdmlsl	s20, h19, v9.h[3]
     15c:	65736e69 	fnmls	z9.h, p3/m, z19.h, z19.h
     160:	6d5f7472 	ldp	d18, d29, [x3, #496]
			/*
     164:	65677265 	fnmls	z5.h, p4/m, z19.h, z7.h
static inline int blk_mq_get_dispatch_budget(struct request_queue *q)
     168:	00363134 	.inst	0x00363134 ; NYI
     16c:	495f524e 	.inst	0x495f524e ; undefined
     170:	414c4f53 	.inst	0x414c4f53 ; undefined
{
     174:	5f444554 	.inst	0x5f444554 ; undefined
     178:	454c4946 	.inst	0x454c4946 ; undefined
     17c:	66696a00 	.inst	0x66696a00 ; undefined
			blk_mq_delay_run_hw_queues(q, BLK_MQ_BUDGET_DELAY);
     180:	73656966 	.inst	0x73656966 ; undefined
		/*
     184:	73797300 	.inst	0x73797300 ; undefined
     188:	5f6d6574 	.inst	0x5f6d6574 ; undefined
     18c:	65657266 	fnmls	z6.h, p4/m, z19.h, z5.h
     190:	6c62617a 	ldnp	d26, d24, [x11, #-480]
     194:	6f705f65 	.inst	0x6f705f65 ; undefined
static int blk_mq_do_dispatch_sched(struct blk_mq_hw_ctx *hctx)
     198:	5f726577 	.inst	0x5f726577 ; undefined
     19c:	69666665 	ldpsw	x5, x25, [x19, #-208]
     1a0:	6e656963 	.inst	0x6e656963 ; undefined
     1a4:	71775f74 	subs	w20, w27, #0xdd7, lsl #12
     1a8:	6d697300 	ldp	d0, d28, [x24, #-368]
     1ac:	5f656c70 	.inst	0x5f656c70 ; undefined
     1b0:	6c6d7973 	ldnp	d19, d30, [x11, #-304]
     1b4:	5f6b6e69 	.inst	0x5f6b6e69 ; undefined
     1b8:	646f6e69 	.inst	0x646f6e69 ; undefined
     1bc:	706f5f65 	adr	x5, dedab <blk_mq_init_sched+0xdde53>
     1c0:	74617265 	.inst	0x74617265 ; undefined
     1c4:	736e6f69 	.inst	0x736e6f69 ; undefined
     1c8:	5f524e00 	.inst	0x5f524e00 ; undefined
     1cc:	454e4f5a 	.inst	0x454e4f5a ; undefined
     1d0:	5443415f 	.inst	0x5443415f ; undefined
static inline int blk_mq_get_rq_budget_token(struct request *rq)
     1d4:	5f455649 	shl	d9, d18, #5
     1d8:	454c4946 	.inst	0x454c4946 ; undefined
     1dc:	616d6d00 	.inst	0x616d6d00 ; undefined
     1e0:	6e725f70 	uqrshl	v16.8h, v27.8h, v18.8h
     1e4:	69625f64 	ldpsw	x4, x23, [x27, #-240]
{
     1e8:	55007374 	.inst	0x55007374 ; undefined
     1ec:	4956454e 	.inst	0x4956454e ; undefined
     1f0:	42415443 	.inst	0x42415443 ; undefined
	__list_add(new, head->prev, head);
     1f4:	505f454c 	adr	x12, bea9e <blk_mq_init_sched+0xbdb46>
		if (rq->mq_hctx != hctx)
     1f8:	454c4347 	.inst	0x454c4347 ; undefined
	new->prev = prev;
     1fc:	44455241 	.inst	0x44455241 ; undefined
	} while (count < max_dispatch);
     200:	656c6500 	fnmls	z0.h, p1/m, z8.h, z12.h
	next->prev = new;
     204:	6f746176 	umlsl2	v22.4s, v11.8h, v4.h[3]
			multi_hctxs = true;
     208:	79745f72 	ldrh	w18, [x27, #6702]
	WRITE_ONCE(prev->next, new);
     20c:	72006570 	ands	w16, w11, #0x3ffffff

     210:	615f6d61 	.inst	0x615f6d61 ; undefined
		/*
     214:	0073706f 	.inst	0x0073706f ; undefined
     218:	636f6c62 	.inst	0x636f6c62 ; undefined
	} while (count < max_dispatch);
     21c:	6c622f6b 	ldnp	d11, d11, [x27, #-480]
     220:	716d2d6b 	subs	w11, w11, #0xb4b, lsl #12
     224:	6863732d 	.inst	0x6863732d ; undefined
	if (!count) {
     228:	632e6465 	.inst	0x632e6465 ; undefined
     22c:	50475000 	adr	x0, 8ec2e <blk_mq_init_sched+0x8dcd6>
			blk_mq_delay_run_hw_queues(q, BLK_MQ_BUDGET_DELAY);
     230:	004e4947 	.inst	0x004e4947 ; undefined
	LIST_HEAD(rq_list);
     234:	63617473 	.inst	0x63617473 ; undefined
		 * Requests from different hctx may be dequeued from some
     238:	75675f6b 	.inst	0x75675f6b ; undefined
			dispatched |= blk_mq_dispatch_hctx_list(&rq_list);
     23c:	5f647261 	sqdmlsl	s1, h19, v4.h[2]
     240:	00706167 	.inst	0x00706167 ; undefined
	LIST_HEAD(rq_list);
     244:	656c6966 	fnmls	z6.h, p2/m, z11.h, z12.h
			dispatched |= blk_mq_dispatch_hctx_list(&rq_list);
     248:	74735f73 	.inst	0x74735f73 ; undefined
     24c:	72007461 	ands	w1, w3, #0x3fffffff
     250:	78696461 	.inst	0x78696461 ; undefined
     254:	6572745f 	fnmls	z31.h, p5/m, z2.h, z18.h
	LIST_HEAD(hctx_list);
     258:	72705f65 	.inst	0x72705f65 ; undefined
			list_cut_before(&hctx_list, rq_list, &rq->queuelist);
     25c:	616f6c65 	.inst	0x616f6c65 ; undefined
     260:	5f5f0064 	.inst	0x5f5f0064 ; undefined
	struct request *rq;
     264:	5f746572 	.inst	0x5f746572 ; undefined
			list_cut_before(&hctx_list, rq_list, &rq->queuelist);
     268:	6e726177 	rsubhn2	v23.8h, v11.4s, v18.4s

     26c:	006e6f5f 	.inst	0x006e6f5f ; undefined
			list_cut_before(&hctx_list, rq_list, &rq->queuelist);
     270:	5f4b4c42 	.inst	0x5f4b4c42 ; undefined
			goto dispatch;
     274:	465f514d 	.inst	0x465f514d ; undefined
	list_for_each_entry(rq, rq_list, queuelist) {
     278:	4f48535f 	.inst	0x4f48535f ; undefined
			goto dispatch;
     27c:	5f444c55 	.inst	0x5f444c55 ; undefined
     280:	4752454d 	.inst	0x4752454d ; undefined
     284:	65640045 	fmla	z5.h, p0/m, z2.h, z4.h
     288:	7972746e 	ldrh	w14, [x3, #6458]
     28c:	6174735f 	.inst	0x6174735f ; undefined
     290:	00745f74 	.inst	0x00745f74 ; undefined
			list_cut_before(&hctx_list, rq_list, &rq->queuelist);
     294:	5f55524c 	.inst	0x5f55524c ; undefined
	list_splice_tail_init(rq_list, &hctx_list);
     298:	49544341 	.inst	0x49544341 ; undefined
			list_cut_before(&hctx_list, rq_list, &rq->queuelist);
     29c:	415f4556 	.inst	0x415f4556 ; undefined
     2a0:	004e4f4e 	.inst	0x004e4f4e ; undefined
     2a4:	74696e69 	.inst	0x74696e69 ; undefined
     2a8:	6c6c6163 	ldnp	d3, d24, [x11, #-320]
	return READ_ONCE(head->next) == head;
     2ac:	746e655f 	.inst	0x746e655f ; undefined
	if (!list_empty(list)) {
     2b0:	745f7972 	.inst	0x745f7972 ; undefined
     2b4:	53514400 	.inst	0x53514400 ; undefined
	struct list_head *last = list->prev;
     2b8:	52465f54 	.inst	0x52465f54 ; undefined
	prev->next = first;
     2bc:	445f4545 	.inst	0x445f4545 ; undefined
	first->prev = prev;
     2c0:	544f5551 	.inst	0x544f5551 ; undefined
	last->next = next;
     2c4:	4f430053 	.inst	0x4f430053 ; undefined
	WRITE_ONCE(list->next, list);
     2c8:	4341504d 	.inst	0x4341504d ; undefined
	list->prev = list;
     2cc:	45524654 	.inst	0x45524654 ; undefined
	next->prev = last;
     2d0:	43535f45 	.inst	0x43535f45 ; undefined

     2d4:	454e4e41 	.inst	0x454e4e41 ; undefined
     2d8:	5f5f0044 	.inst	0x5f5f0044 ; undefined
	return READ_ONCE(head->next) == head;
     2dc:	5f726570 	.inst	0x5f726570 ; undefined
     2e0:	5f757063 	sqdmlsl	s3, h3, v5.h[3]
	} else {
     2e4:	64616f6c 	.inst	0x64616f6c ; undefined
		dispatched = blk_mq_dispatch_rq_list(hctx, &rq_list, count);
     2e8:	5f6d7000 	sqdmlsl	s0, h0, v13.h[2]
     2ec:	65776f70 	fnmls	z16.h, p3/m, z27.h, z23.h
	return !!dispatched;
     2f0:	666f5f72 	.inst	0x666f5f72 ; undefined
}
     2f4:	72705f66 	.inst	0x72705f66 ; undefined
     2f8:	72617065 	.inst	0x72617065 ; undefined
{
     2fc:	5f5f0065 	.inst	0x5f5f0065 ; undefined
     300:	706d6f63 	adr	x3, db0ef <blk_mq_init_sched+0xda197>
	if (head->next == entry) {
     304:	74656c69 	.inst	0x74656c69 ; undefined
     308:	5f656d69 	.inst	0x5f656d69 ; undefined
	list->next->prev = list;
     30c:	65737361 	fnmls	z1.h, p4/m, z27.h, z19.h
	list->prev = entry->prev;
     310:	345f7472 	cbz	w18, bf19c <blk_mq_init_sched+0xbe244>
     314:	6e003930 	ext	v16.16b, v9.16b, v0.16b, #7
	list->prev->next = list;
     318:	705f6d75 	adr	x21, bf0c7 <blk_mq_init_sched+0xbe16f>
	entry->prev = head;
     31c:	6f73696f 	umlsl2	v15.4s, v11.8h, v3.h[7]
	head->next = entry;
     320:	5f64656e 	.inst	0x5f64656e ; undefined
     324:	65676170 	fnmls	z16.h, p0/m, z11.h, z7.h
			blk_mq_delay_run_hw_queues(q, BLK_MQ_BUDGET_DELAY);
     328:	6f630073 	mla	v19.8h, v3.8h, v3.h[2]
     32c:	756f706d 	.inst	0x756f706d ; undefined
		 * Requests from different hctx may be dequeued from some
     330:	705f646e 	adr	x14, befbf <blk_mq_init_sched+0xbe067>

     334:	5f656761 	.inst	0x5f656761 ; undefined
     338:	726f7464 	.inst	0x726f7464 ; undefined
     33c:	5f5f0073 	.inst	0x5f5f0073 ; undefined
     340:	5f4b4c42 	.inst	0x5f4b4c42 ; undefined
     344:	465f4154 	.inst	0x465f4154 ; undefined
	return !!dispatched;
     348:	544e4f52 	.inst	0x544e4f52 ; undefined
     34c:	4752454d 	.inst	0x4752454d ; undefined
	WRITE_ONCE(list->next, list);
     350:	4c420045 	.inst	0x4c420045 ; undefined
     354:	514d5f4b 	sub	w11, w26, #0x357, lsl #12
	list_for_each_entry(rq, rq_list, queuelist) {
     358:	495f535f 	.inst	0x495f535f ; undefined
     35c:	5443414e 	b.al	86b84 <blk_mq_init_sched+0x85c2c>
static int blk_mq_do_dispatch_sched(struct blk_mq_hw_ctx *hctx)
     360:	00455649 	.inst	0x00455649 ; undefined
     364:	68637261 	.inst	0x68637261 ; undefined
		if (hctx->sched_tags) {
     368:	6f74615f 	umlsl2	v31.4s, v10.8h, v4.h[3]
     36c:	3663696d 	tbz	w13, #12, 7098 <blk_mq_init_sched+0x6140>
     370:	6e615f34 	uqrshl	v20.8h, v25.8h, v1.8h
     374:	746f6e64 	.inst	0x746f6e64 ; undefined
     378:	6e657800 	.inst	0x6e657800 ; undefined
     37c:	6174735f 	.inst	0x6174735f ; undefined
     380:	665f7472 	.inst	0x665f7472 ; undefined
		}
     384:	7367616c 	.inst	0x7367616c ; undefined
     388:	6e617200 	uabdl2	v0.4s, v16.8h, v1.8h
     38c:	5f6d6f64 	.inst	0x5f6d6f64 ; undefined
     390:	73706f66 	.inst	0x73706f66 ; undefined
     394:	54524800 	b.eq	a4c94 <blk_mq_init_sched+0xa3d3c>  // b.none
     398:	52454d49 	.inst	0x52454d49 ; undefined
		blk_mq_exit_sched_shared_tags(q);
     39c:	58414d5f 	ldr	xzr, 82d44 <blk_mq_init_sched+0x81dec>
     3a0:	4f4c435f 	.inst	0x4f4c435f ; undefined
		}
     3a4:	425f4b43 	.inst	0x425f4b43 ; undefined
     3a8:	53455341 	.inst	0x53455341 ; undefined
     3ac:	6f687300 	fcmla	v0.8h, v24.8h, v8.h[1], #270
     3b0:	6e755f77 	uqrshl	v23.8h, v27.8h, v21.8h
     3b4:	646e6168 	.inst	0x646e6168 ; undefined
	}
     3b8:	5f64656c 	.inst	0x5f64656c ; undefined
     3bc:	6e676973 	.inst	0x6e676973 ; undefined

     3c0:	00736c61 	.inst	0x00736c61 ; undefined
{
     3c4:	6e5f726e 	.inst	0x6e5f726e ; undefined
     3c8:	5f65646f 	.inst	0x5f65646f ; undefined
	if (blk_mq_is_shared_tags(flags))
     3cc:	00736469 	.inst	0x00736469 ; undefined
     3d0:	6f635f5f 	.inst	0x6f635f5f ; undefined
     3d4:	6c69706d 	ldnp	d13, d28, [x3, #-368]
     3d8:	6d697465 	ldp	d5, d29, [x3, #-368]
{
     3dc:	73615f65 	.inst	0x73615f65 ; undefined
static void blk_mq_sched_tags_teardown(struct request_queue *q, unsigned int flags)
     3e0:	74726573 	.inst	0x74726573 ; undefined
     3e4:	3031345f 	adr	xzr, 62a6d <blk_mq_init_sched+0x61b15>
{
     3e8:	635f5f00 	.inst	0x635f5f00 ; undefined

     3ec:	69706d6f 	ldpsw	x15, x27, [x11, #-128]
     3f0:	6974656c 	ldpsw	x12, x25, [x11, #-96]
     3f4:	615f656d 	.inst	0x615f656d ; undefined
     3f8:	72657373 	.inst	0x72657373 ; undefined
     3fc:	31345f74 	adds	w20, w27, #0xd17
	LIST_HEAD(rq_list);
     400:	65720031 	fmla	z17.h, p0/m, z1.h, z18.h
     404:	76726573 	.inst	0x76726573 ; undefined
     408:	705f6465 	adr	x5, bf097 <blk_mq_init_sched+0xbe13f>
     40c:	69645f67 	ldpsw	x7, x23, [x27, #-224]
     410:	5f5f0072 	.inst	0x5f5f0072 ; undefined
     414:	706d6f63 	adr	x3, db203 <blk_mq_init_sched+0xda2ab>
     418:	74656c69 	.inst	0x74656c69 ; undefined
     41c:	5f656d69 	.inst	0x5f656d69 ; undefined
     420:	65737361 	fnmls	z1.h, p4/m, z27.h, z19.h
     424:	345f7472 	cbz	w18, bf2b0 <blk_mq_init_sched+0xbe358>
     428:	4e003331 	tbx	v17.16b, {v25.16b, v26.16b}, v0.16b
     42c:	52575f52 	.inst	0x52575f52 ; undefined

     430:	42455449 	.inst	0x42455449 ; undefined
	int ret = 0;
     434:	5f4b4341 	.inst	0x5f4b4341 ; undefined
     438:	504d4554 	adr	x20, 9ace2 <blk_mq_init_sched+0x99d8a>
	LIST_HEAD(rq_list);
     43c:	635f5f00 	.inst	0x635f5f00 ; undefined
     440:	69706d6f 	ldpsw	x15, x27, [x11, #-128]
     444:	6974656c 	ldpsw	x12, x25, [x11, #-96]
	struct blk_mq_ctx *ctx = READ_ONCE(hctx->dispatch_from);
     448:	615f656d 	.inst	0x615f656d ; undefined
	struct request *rq;
     44c:	72657373 	.inst	0x72657373 ; undefined
     450:	31345f74 	adds	w20, w27, #0xd17
static inline void blk_mq_set_rq_budget_token(struct request *rq, int token)
     454:	5f5f0035 	.inst	0x5f5f0035 ; undefined
     458:	5f757063 	sqdmlsl	s3, h3, v5.h[3]
     45c:	69676f6c 	ldpsw	x12, x27, [x27, #-200]

     460:	5f6c6163 	.inst	0x5f6c6163 ; undefined
			blk_mq_put_dispatch_budget(q, budget_token);
     464:	0070616d 	.inst	0x0070616d ; undefined
     468:	65746172 	fnmls	z18.h, p0/m, z11.h, z20.h
     46c:	696d696c 	ldpsw	x12, x26, [x11, #-152]
     470:	74735f74 	.inst	0x74735f74 ; undefined
			/*
     474:	00657461 	.inst	0x00657461 ; undefined
static inline int blk_mq_get_rq_budget_token(struct request *rq)
     478:	7265766f 	.inst	0x7265766f ; undefined
     47c:	776f6c66 	.inst	0x776f6c66 ; undefined
     480:	00646967 	.inst	0x00646967 ; undefined
     484:	535f524e 	.inst	0x535f524e ; undefined
{
     488:	4d454d48 	.inst	0x4d454d48 ; undefined
     48c:	444d505f 	.inst	0x444d505f ; undefined
     490:	5050414d 	adr	x13, a0cba <blk_mq_init_sched+0x9fd62>
	__list_add(new, head, head->next);
     494:	72004445 	ands	w5, w2, #0x3ffff
		/* round robin for fair dispatch */
     498:	6c757365 	ldnp	d5, d28, [x27, #-176]
	WRITE_ONCE(prev->next, new);
     49c:	524e0074 	.inst	0x524e0074 ; undefined
	WRITE_ONCE(hctx->dispatch_from, ctx);
     4a0:	4c49465f 	.inst	0x4c49465f ; undefined
     4a4:	49445f45 	.inst	0x49445f45 ; undefined
	next->prev = new;
     4a8:	00595452 	.inst	0x00595452 ; undefined
	new->prev = prev;
     4ac:	43534750 	.inst	0x43534750 ; undefined
	if (++idx == hctx->nr_ctx)
     4b0:	5a5f4e41 	.inst	0x5a5f4e41 ; undefined
     4b4:	5f454e4f 	.inst	0x5f454e4f ; undefined

     4b8:	4c434552 	.inst	0x4c434552 ; undefined

     4bc:	5f4d4941 	.inst	0x5f4d4941 ; undefined
	if (++idx == hctx->nr_ctx)
     4c0:	4c494146 	.inst	0x4c494146 ; undefined
	WRITE_ONCE(hctx->dispatch_from, ctx);
     4c4:	73004445 	.inst	0x73004445 ; undefined
	if (++idx == hctx->nr_ctx)
     4c8:	65747379 	fnmls	z25.h, p4/m, z27.h, z20.h

     4cc:	69685f6d 	ldpsw	x13, x23, [x27, #-192]
     4d0:	72706867 	.inst	0x72706867 ; undefined
     4d4:	71775f69 	subs	w9, w27, #0xdd7, lsl #12
     4d8:	65737500 	fnmls	z0.h, p5/m, z8.h, z19.h
     4dc:	646f6d72 	.inst	0x646f6d72 ; undefined

     4e0:	6c656865 	ldnp	d5, d26, [x3, #-432]
	WRITE_ONCE(hctx->dispatch_from, ctx);
     4e4:	5f726570 	.inst	0x5f726570 ; undefined
     4e8:	6c626174 	ldnp	d20, d24, [x11, #-480]
     4ec:	52490065 	.inst	0x52490065 ; undefined
	struct list_head *next = smp_load_acquire(&head->next);
     4f0:	4f505f51 	.inst	0x4f505f51 ; undefined
	return (next == head) && (next == head->prev);
     4f4:	535f4c4c 	.inst	0x535f4c4c ; undefined
     4f8:	4954464f 	.inst	0x4954464f ; undefined
     4fc:	6e005152 	ext	v18.16b, v10.16b, v0.16b, #10
     500:	72695f6f 	.inst	0x72695f6f ; undefined
     504:	68635f71 	.inst	0x68635f71 ; undefined

     508:	43007069 	.inst	0x43007069 ; undefined
     50c:	41504d4f 	.inst	0x41504d4f ; undefined
     510:	41465443 	.inst	0x41465443 ; undefined
     514:	54004c49 	b.ls	e9c <.debug_str+0xe9c>  // b.plast

     518:	465f5048 	.inst	0x465f5048 ; undefined
     51c:	5f454c49 	.inst	0x5f454c49 ; undefined
     520:	4f4c4c41 	.inst	0x4f4c4c41 ; undefined
			blk_mq_put_dispatch_budget(q, budget_token);
     524:	5f5f0043 	.inst	0x5f5f0043 ; undefined
     528:	5f514552 	.inst	0x5f514552 ; undefined
{
     52c:	4c494146 	.inst	0x4c494146 ; undefined
     530:	54534146 	b.vs	a6d58 <blk_mq_init_sched+0xa5e00>
     534:	4952445f 	.inst	0x4952445f ; undefined
			/*
     538:	00524556 	.inst	0x00524556 ; undefined
     53c:	69766564 	ldpsw	x4, x25, [x11, #-80]
static inline int blk_mq_get_dispatch_budget(struct request_queue *q)
     540:	615f6563 	.inst	0x615f6563 ; undefined
     544:	69727474 	ldpsw	x20, x29, [x3, #-112]
     548:	65747562 	fnmls	z2.h, p5/m, z11.h, z20.h
{
     54c:	745f5f00 	.inst	0x745f5f00 ; undefined
     550:	65636172 	fnmls	z18.h, p0/m, z11.h, z3.h
     554:	6e696f70 	umin	v16.8h, v27.8h, v9.8h
		}
     558:	61705f74 	.inst	0x61705f74 ; undefined
     55c:	725f6567 	.inst	0x725f6567 ; undefined
     560:	6d5f6665 	ldp	d5, d25, [x19, #496]

     564:	6200646f 	.inst	0x6200646f ; undefined

     568:	6d5f6b6c 	ldp	d12, d26, [x27, #496]

     56c:	63735f71 	.inst	0x63735f71 ; undefined
}
     570:	5f646568 	.inst	0x5f646568 ; undefined
static int __blk_mq_sched_dispatch_requests(struct blk_mq_hw_ctx *hctx)
     574:	70736964 	adr	x4, e72a3 <blk_mq_init_sched+0xe634b>
     578:	68637461 	.inst	0x68637461 ; undefined
     57c:	7165725f 	cmp	w18, #0x95c, lsl #12
     580:	74736575 	.inst	0x74736575 ; undefined
     584:	726c0073 	.inst	0x726c0073 ; undefined
     588:	696c5f75 	ldpsw	x21, x23, [x27, #-160]
     58c:	42007473 	.inst	0x42007473 ; undefined
     590:	4b434f4c 	sub	w12, w26, w3, lsr #19
     594:	464f535f 	.inst	0x464f535f ; undefined
     598:	51524954 	sub	w20, w10, #0x492, lsl #12
     59c:	626f6b00 	.inst	0x626f6b00 ; undefined
     5a0:	74615f6a 	.inst	0x74615f6a ; undefined
     5a4:	62697274 	.inst	0x62697274 ; undefined
		}
     5a8:	00657475 	.inst	0x00657475 ; undefined
     5ac:	7274706b 	.inst	0x7274706b ; undefined
static int __blk_mq_sched_dispatch_requests(struct blk_mq_hw_ctx *hctx)
     5b0:	7365725f 	.inst	0x7365725f ; undefined
     5b4:	63697274 	.inst	0x63697274 ; undefined
     5b8:	72660074 	.inst	0x72660074 ; undefined
	if (test_bit(BLK_MQ_S_SCHED_RESTART, &hctx->state))
     5bc:	5f006565 	.inst	0x5f006565 ; undefined
     5c0:	73696c5f 	.inst	0x73696c5f ; undefined
     5c4:	64615f74 	.inst	0x64615f74 ; undefined
{
     5c8:	48570064 	ldxrh	w4, [x3]
	set_bit(BLK_MQ_S_SCHED_RESTART, &hctx->state);
     5cc:	5f454c4f 	.inst	0x5f454c4f ; undefined
     5d0:	4f434553 	.inst	0x4f434553 ; undefined
     5d4:	0053444e 	.inst	0x0053444e ; undefined
ATOMIC64_OP(or, stset)
     5d8:	5f716572 	.inst	0x5f716572 ; undefined
     5dc:	67616c66 	.inst	0x67616c66 ; undefined
}
     5e0:	7469625f 	.inst	0x7469625f ; undefined
     5e4:	72740073 	.inst	0x72740073 ; undefined
ATOMIC64_OPS(or, orr, L)
     5e8:	70736e61 	adr	x1, e73b7 <blk_mq_init_sched+0xe645f>
     5ec:	6e657261 	uabdl2	v1.4s, v19.8h, v5.8h
     5f0:	75685f74 	.inst	0x75685f74 ; undefined
     5f4:	61706567 	.inst	0x61706567 ; undefined
	const bool has_sched = q->elevator;
     5f8:	665f6567 	.inst	0x665f6567 ; undefined
     5fc:	7367616c 	.inst	0x7367616c ; undefined
     600:	61747300 	.inst	0x61747300 ; undefined
     604:	695f7472 	ldpsw	x18, x29, [x3, #248]
     608:	006f666e 	.inst	0x006f666e ; undefined
     60c:	51455352 	sub	w18, w26, #0x154, lsl #12
     610:	4556455f 	.inst	0x4556455f ; undefined
     614:	505f544e 	adr	x14, bf09e <blk_mq_init_sched+0xbe146>
     618:	4d454552 	.inst	0x4d454552 ; undefined
	/*
     61c:	425f5450 	.inst	0x425f5450 ; undefined
		if (!list_empty(&hctx->dispatch))
     620:	70005449 	adr	x9, 10ab <.debug_str+0x10ab>
	const bool has_sched = q->elevator;
     624:	746e6972 	.inst	0x746e6972 ; undefined
     628:	65645f6b 	fnmla	z11.h, p7/m, z27.h, z4.h
     62c:	5f79616c 	.inst	0x5f79616c ; undefined
	LIST_HEAD(rq_list);
     630:	6365736d 	.inst	0x6365736d ; undefined
	/*
     634:	646f6e00 	.inst	0x646f6e00 ; undefined
	LIST_HEAD(rq_list);
     638:	73616d65 	.inst	0x73616d65 ; undefined
	/*
     63c:	00745f6b 	.inst	0x00745f6b ; undefined
	struct list_head *next = smp_load_acquire(&head->next);
     640:	68637261 	.inst	0x68637261 ; undefined
	return (next == head) && (next == head->prev);
     644:	6f74615f 	umlsl2	v31.4s, v10.8h, v4.h[3]
     648:	3663696d 	tbz	w13, #12, 7374 <blk_mq_init_sched+0x641c>
	raw_spin_lock(&lock->rlock);
     64c:	75735f34 	.inst	0x75735f34 ; undefined
     650:	65725f62 	fnmla	z2.h, p7/m, z27.h, z18.h
	return READ_ONCE(head->next) == head;
     654:	6e727574 	uabd	v20.8h, v11.8h, v18.8h
		spin_unlock(&hctx->lock);
     658:	6f6f7200 	fcmla	v0.8h, v16.8h, v15.h[1], #270
     65c:	73755f74 	.inst	0x73755f74 ; undefined
     660:	6c007265 	stnp	d5, d28, [x19]
	if (!list_empty(list)) {
     664:	5f747369 	sqdmlsl	s9, h27, v4.h[3]
     668:	696c7073 	ldpsw	x19, x28, [x3, #-160]
	struct list_head *last = list->prev;
     66c:	695f6563 	ldpsw	x3, x25, [x11, #248]
	first->prev = prev;
     670:	0074696e 	.inst	0x0074696e ; undefined
		__list_splice(list, head, head->next);
     674:	69685f5f 	ldpsw	xzr, x23, [x26, #-192]
	prev->next = first;
     678:	73656867 	.inst	0x73656867 ; undefined
	last->next = next;
     67c:	72705f74 	.inst	0x72705f74 ; undefined
	next->prev = last;
     680:	6e657365 	uabdl2	v5.4s, v27.8h, v5.8h
	WRITE_ONCE(list->next, list);
     684:	65735f74 	fnmla	z20.h, p7/m, z27.h, z19.h
	list->prev = list;
     688:	6f697463 	uqshl	v3.2d, v3.2d, #41
	raw_spin_unlock(&lock->rlock);
     68c:	726e5f6e 	.inst	0x726e5f6e ; undefined
     690:	6e697500 	uabd	v0.8h, v8.8h, v9.8h
	return READ_ONCE(head->next) == head;
     694:	5f323374 	.inst	0x5f323374 ; undefined
		if (blk_mq_dispatch_rq_list(hctx, &rq_list, 0)) {
     698:	4f430074 	.inst	0x4f430074 ; undefined
     69c:	4341504d 	.inst	0x4341504d ; undefined
     6a0:	4f534954 	.inst	0x4f534954 ; undefined
	if (test_bit(BLK_MQ_S_SCHED_RESTART, &hctx->state))
     6a4:	4554414c 	.inst	0x4554414c ; undefined
     6a8:	5f5f0044 	.inst	0x5f5f0044 ; undefined
				ret = blk_mq_do_dispatch_sched(hctx);
     6ac:	43524550 	.inst	0x43524550 ; undefined
     6b0:	525f5550 	.inst	0x525f5550 ; undefined
     6b4:	415f4645 	.inst	0x415f4645 ; undefined
     6b8:	494d4f54 	.inst	0x494d4f54 ; undefined

     6bc:	45445f43 	.inst	0x45445f43 ; undefined
				ret = blk_mq_do_dispatch_sched(hctx);
     6c0:	70004441 	adr	x1, f4b <.debug_str+0xf4b>
     6c4:	5f757063 	sqdmlsl	s3, h3, v5.h[3]
			else
     6c8:	736f6863 	.inst	0x736f6863 ; undefined
     6cc:	665f6e65 	.inst	0x665f6e65 ; undefined

     6d0:	79730063 	ldrh	w3, [x3, #6528]
     6d4:	6c746373 	ldnp	d19, d24, [x27, #-192]
     6d8:	6d69745f 	ldp	d31, d29, [x2, #-368]
	return ret;
     6dc:	6d5f7265 	ldp	d5, d28, [x19, #496]
     6e0:	61726769 	.inst	0x61726769 ; undefined
void blk_mq_sched_dispatch_requests(struct blk_mq_hw_ctx *hctx)
     6e4:	6e6f6974 	.inst	0x6e6f6974 ; undefined
     6e8:	53595300 	.inst	0x53595300 ; undefined
     6ec:	5f4d4554 	.inst	0x5f4d4554 ; undefined
     6f0:	45484353 	.inst	0x45484353 ; undefined
     6f4:	494c5544 	.inst	0x494c5544 ; undefined
     6f8:	6700474e 	.inst	0x6700474e ; undefined
     6fc:	72656e65 	.inst	0x72656e65 ; undefined
     700:	725f6369 	.inst	0x725f6369 ; undefined
     704:	6f665f6f 	.inst	0x6f665f6f ; undefined
     708:	6b007370 	subs	w16, w27, w0, lsl #28
     70c:	656e7265 	fnmls	z5.h, p4/m, z19.h, z14.h
     710:	61705f6c 	.inst	0x61705f6c ; undefined
	set_bit(BLK_MQ_S_SCHED_RESTART, &hctx->state);
     714:	5f6d6172 	.inst	0x5f6d6172 ; undefined
     718:	0073706f 	.inst	0x0073706f ; undefined
     71c:	454e4f5a 	.inst	0x454e4f5a ; undefined
     720:	5453494c 	b.gt	a7048 <blk_mq_init_sched+0xa60f0>
     724:	4c41465f 	.inst	0x4c41465f ; undefined
				ret = blk_mq_do_dispatch_sched(hctx);
     728:	4341424c 	.inst	0x4341424c ; undefined
     72c:	6370004b 	.inst	0x6370004b ; undefined
     730:	665f7570 	.inst	0x665f7570 ; undefined
     734:	616e5f63 	.inst	0x616e5f63 ; undefined

     738:	0073656d 	.inst	0x0073656d ; undefined
				ret = blk_mq_do_dispatch_sched(hctx);
     73c:	465f4253 	.inst	0x465f4253 ; undefined
     740:	5a454552 	.inst	0x5a454552 ; undefined
     744:	52575f45 	.inst	0x52575f45 ; undefined
     748:	00455449 	.inst	0x00455449 ; undefined
     74c:	736c6166 	.inst	0x736c6166 ; undefined
     750:	79730065 	ldrh	w5, [x3, #6528]
     754:	6c746373 	ldnp	d19, d24, [x27, #-192]
     758:	6761705f 	.inst	0x6761705f ; undefined
     75c:	6f6c5f65 	.inst	0x6f6c5f65 ; undefined

     760:	755f6b63 	.inst	0x755f6b63 ; undefined
				ret = blk_mq_do_dispatch_sched(hctx);
     764:	6961666e 	ldpsw	x14, x25, [x19, #-248]
     768:	73656e72 	.inst	0x73656e72 ; undefined
     76c:	61700073 	.inst	0x61700073 ; undefined
	return (next == head) && (next == head->prev);
     770:	5f63696e 	.inst	0x5f63696e ; undefined
     774:	6f5f6e6f 	.inst	0x6f5f6e6f ; undefined
     778:	0073706f 	.inst	0x0073706f ; undefined
	return READ_ONCE(head->next) == head;
     77c:	79685f5f 	ldrh	wzr, [x26, #5166]
		if (blk_mq_dispatch_rq_list(hctx, &rq_list, 0)) {
     780:	6f725f70 	.inst	0x6f725f70 ; undefined
     784:	61746164 	.inst	0x61746164 ; undefined
	} else if (hctx->dispatch_busy) {
     788:	646e655f 	.inst	0x646e655f ; undefined
     78c:	425f5f00 	.inst	0x425f5f00 ; undefined

     790:	545f4b4c 	b.gt	bf0f8 <blk_mq_init_sched+0xbe1a0>
     794:	55515f41 	.inst	0x55515f41 ; undefined
     798:	00455545 	.inst	0x00455545 ; undefined
	return ret;
     79c:	63737973 	.inst	0x63737973 ; undefined
     7a0:	765f6c74 	.inst	0x765f6c74 ; undefined
     7a4:	00736c61 	.inst	0x00736c61 ; undefined
		ret = blk_mq_do_dispatch_ctx(hctx);
     7a8:	45525f5f 	.inst	0x45525f5f ; undefined
     7ac:	4f4e5f51 	.inst	0x4f4e5f51 ; undefined
		blk_mq_flush_busy_ctxs(hctx, &rq_list);
     7b0:	414d4e55 	.inst	0x414d4e55 ; undefined
     7b4:	4d4d0050 	.inst	0x4d4d0050 ; undefined
     7b8:	4157535f 	.inst	0x4157535f ; undefined
     7bc:	544e4550 	.inst	0x544e4550 ; undefined
	}
     7c0:	47500053 	.inst	0x47500053 ; undefined
     7c4:	41455453 	.inst	0x41455453 ; undefined
     7c8:	4e415f4c 	.inst	0x4e415f4c ; undefined

     7cc:	5f004e4f 	.inst	0x5f004e4f ; undefined
     7d0:	4b4c425f 	sub	wzr, w18, w12, lsr #16
     7d4:	5f41545f 	shl	d31, d2, #1
     7d8:	55535349 	.inst	0x55535349 ; undefined

     7dc:	756e0045 	.inst	0x756e0045 ; undefined
     7e0:	6e5f616d 	.inst	0x6e5f616d ; undefined
void blk_mq_sched_dispatch_requests(struct blk_mq_hw_ctx *hctx)
     7e4:	0065646f 	.inst	0x0065646f ; undefined
{
     7e8:	63726570 	.inst	0x63726570 ; undefined
     7ec:	705f7570 	adr	x16, bf69b <blk_mq_init_sched+0xbe743>
     7f0:	6c656761 	ldnp	d1, d25, [x27, #-432]
     7f4:	5f747369 	sqdmlsl	s9, h27, v4.h[3]
     7f8:	68676968 	.inst	0x68676968 ; undefined
	ioc = current->io_context;
     7fc:	6172665f 	.inst	0x6172665f ; undefined
	if (!ioc)
     800:	6f697463 	uqshl	v3.2d, v3.2d, #41
     804:	7375006e 	.inst	0x7375006e ; undefined
     808:	6f637265 	fcmla	v5.8h, v19.8h, v3.h[1], #270
     80c:	665f7970 	.inst	0x665f7970 ; undefined
     810:	626c6c61 	.inst	0x626c6c61 ; undefined
	struct request_queue *q = rq->q;
     814:	006b6361 	.inst	0x006b6361 ; undefined
	raw_spin_lock_irq(&lock->rlock);
     818:	746f745f 	.inst	0x746f745f ; undefined
     81c:	61726c61 	.inst	0x61726c61 ; undefined
     820:	61705f6d 	.inst	0x61705f6d ; undefined
	icq = ioc_lookup_icq(ioc, q);
     824:	00736567 	.inst	0x00736567 ; undefined
     828:	6f625f5f 	.inst	0x6f625f5f ; undefined
     82c:	635f746f 	.inst	0x635f746f ; undefined
     830:	6d5f7570 	ldp	d16, d29, [x11, #496]
	raw_spin_unlock_irq(&lock->rlock);
     834:	0065646f 	.inst	0x0065646f ; undefined
     838:	6c615f5f 	ldnp	d31, d23, [x26, #-496]
	if (!icq) {
     83c:	6e695f74 	uqrshl	v20.8h, v27.8h, v9.8h
	get_io_context(icq->ioc);
     840:	75727473 	.inst	0x75727473 ; undefined
     844:	6f697463 	uqshl	v3.2d, v3.2d, #41
	rq->elv.icq = icq;
     848:	655f736e 	fcmeq	p14.h, p4/z, z27.h, z31.h
     84c:	4e00646e 	.inst	0x4e00646e ; undefined
     850:	57535f52 	.inst	0x57535f52 ; undefined
     854:	41435041 	.inst	0x41435041 ; undefined
}
     858:	00454843 	.inst	0x00454843 ; undefined
     85c:	70646f6d 	adr	x13, c964b <blk_mq_init_sched+0xc86f3>
     860:	65626f72 	fnmls	z18.h, p3/m, z27.h, z2.h
     864:	7461705f 	.inst	0x7461705f ; undefined
		icq = ioc_create_icq(ioc, q, GFP_ATOMIC);
     868:	4f430068 	.inst	0x4f430068 ; undefined
     86c:	4341504d 	.inst	0x4341504d ; undefined
     870:	41545354 	.inst	0x41545354 ; undefined
     874:	4e004c4c 	.inst	0x4e004c4c ; undefined
     878:	5f414d55 	.inst	0x5f414d55 ; undefined
		if (!icq)
     87c:	5f455450 	shl	d16, d2, #5
     880:	41445055 	.inst	0x41445055 ; undefined
     884:	00534554 	.inst	0x00534554 ; undefined
     888:	75637273 	.inst	0x75637273 ; undefined
     88c:	7274735f 	.inst	0x7274735f ; undefined
     890:	00746375 	.inst	0x00746375 ; undefined
	clear_bit(BLK_MQ_S_SCHED_RESTART, &hctx->state);
     894:	5f4b4c42 	.inst	0x5f4b4c42 ; undefined
     898:	465f514d 	.inst	0x465f514d ; undefined
     89c:	4741545f 	.inst	0x4741545f ; undefined
{
     8a0:	4555515f 	.inst	0x4555515f ; undefined
     8a4:	535f4555 	.inst	0x535f4555 ; undefined
	/*
     8a8:	45524148 	.inst	0x45524148 ; undefined
{
     8ac:	434b0044 	.inst	0x434b0044 ; undefined
     8b0:	41504d4f 	.inst	0x41504d4f ; undefined
     8b4:	5f445443 	shl	d3, d2, #4
ATOMIC64_OP(andnot, stclr)
     8b8:	454b4157 	.inst	0x454b4157 ; undefined
     8bc:	414d5700 	.inst	0x414d5700 ; undefined
	blk_mq_run_hw_queue(hctx, true);
     8c0:	4d5f4b52 	.inst	0x4d5f4b52 ; undefined

     8c4:	69004e49 	.inst	0x69004e49 ; undefined
     8c8:	635f7172 	.inst	0x635f7172 ; undefined
static int sched_rq_cmp(void *priv, const struct list_head *a,
     8cc:	74737570 	.inst	0x74737570 ; undefined
     8d0:	745f7461 	.inst	0x745f7461 ; undefined
     8d4:	6f736b00 	umlsl2	v0.4s, v24.8h, v3.h[7]
ATOMIC64_OPS(andnot, bic, )
     8d8:	72697466 	.inst	0x72697466 ; undefined
     8dc:	69006471 	.inst	0x69006471 ; undefined
     8e0:	6d656d6f 	ldp	d15, d27, [x11, #-432]
	blk_mq_run_hw_queue(hctx, true);
     8e4:	7365725f 	.inst	0x7365725f ; undefined

     8e8:	6372756f 	.inst	0x6372756f ; undefined
     8ec:	45520065 	.inst	0x45520065 ; undefined
static int sched_rq_cmp(void *priv, const struct list_head *a,
     8f0:	504f5f51 	adr	x17, 9f4da <blk_mq_init_sched+0x9e582>
     8f4:	4952575f 	.inst	0x4952575f ; undefined
     8f8:	535f4554 	.inst	0x535f4554 ; undefined
     8fc:	00454d41 	.inst	0x00454d41 ; undefined
     900:	696e6170 	ldpsw	x16, x24, [x11, #-144]
	/* RCU or SRCU read lock is needed before checking quiesced flag */
     904:	69745f63 	ldpsw	x3, x23, [x27, #-96]

     908:	756f656d 	.inst	0x756f656d ; undefined
     90c:	696c0074 	ldpsw	x20, x0, [x3, #-160]
     910:	62007473 	.inst	0x62007473 ; undefined
     914:	65666675 	fnmls	z21.h, p1/m, z19.h, z6.h

     918:	65685f72 	fnmla	z18.h, p7/m, z27.h, z8.h
     91c:	5f736461 	.inst	0x5f736461 ; undefined
     920:	7265766f 	.inst	0x7265766f ; undefined
     924:	6d696c5f 	ldp	d31, d27, [x2, #-368]
     928:	70007469 	adr	x9, 17b7 <.debug_str+0x17b7>
	/*
     92c:	70637265 	adr	x5, c777b <blk_mq_init_sched+0xc6823>
     930:	65725f75 	fnmla	z21.h, p7/m, z27.h, z18.h
     934:	48540066 	ldxrh	w6, [x3]
			blk_mq_run_hw_queue(hctx, true);
     938:	50535f50 	adr	x16, a7522 <blk_mq_init_sched+0xa65ca>
     93c:	5f54494c 	.inst	0x5f54494c ; undefined
     940:	45474150 	.inst	0x45474150 ; undefined
bool __blk_mq_sched_bio_merge(struct request_queue *q, struct bio *bio,
     944:	4941465f 	.inst	0x4941465f ; undefined
     948:	0044454c 	.inst	0x0044454c ; undefined
     94c:	73625f5f 	.inst	0x73625f5f ; undefined
     950:	74735f73 	.inst	0x74735f73 ; undefined
	}
     954:	7000706f 	adr	x15, 1763 <.debug_str+0x1763>
     958:	745f6469 	.inst	0x745f6469 ; undefined
     95c:	00657079 	.inst	0x00657079 ; undefined
     960:	6c6f6f62 	ldnp	d2, d27, [x27, #-272]
}
     964:	73797300 	.inst	0x73797300 ; undefined
     968:	5f6c7463 	sqshl	d3, d3, #44
     96c:	6167656c 	.inst	0x6167656c ; undefined
     970:	765f7963 	.inst	0x765f7963 ; undefined
     974:	616c5f61 	.inst	0x616c5f61 ; undefined
	struct blk_mq_ctx *ctx;
     978:	74756f79 	.inst	0x74756f79 ; undefined
     97c:	655f5f00 	fcmge	p0.h, p7/z, z24.h, z31.h
     980:	74746978 	.inst	0x74746978 ; undefined
     984:	5f747865 	sqdmlsl	s5, h3, v4.h[7]
     988:	69676562 	ldpsw	x2, x25, [x11, #-200]
     98c:	6c62006e 	ldnp	d14, d0, [x3, #-480]
     990:	716d5f6b 	subs	w11, w27, #0xb57, lsl #12
     994:	70616d5f 	adr	xzr, c373f <blk_mq_init_sched+0xc27e7>
	struct blk_mq_hw_ctx *hctx;
     998:	6575715f 	fnmls	z31.h, p4/m, z10.h, z21.h

     99c:	69006575 	.inst	0x69006575 ; undefined
     9a0:	65646f6e 	fnmls	z14.h, p3/m, z27.h, z4.h
     9a4:	74735f73 	.inst	0x74735f73 ; undefined
     9a8:	64007461 	.inst	0x64007461 ; undefined
	ctx = blk_mq_get_ctx(q);
     9ac:	72746e65 	.inst	0x72746e65 ; undefined
     9b0:	706f5f79 	adr	x25, df59f <blk_mq_init_sched+0xde647>
	return rq_mergeable(rq) && elv_attempt_insert_merge(q, rq, free);
     9b4:	74617265 	.inst	0x74617265 ; undefined
     9b8:	736e6f69 	.inst	0x736e6f69 ; undefined
     9bc:	696d6e00 	ldpsw	x0, x27, [x16, #-152]
     9c0:	6e6f635f 	rsubhn2	v31.8h, v26.4s, v15.4s
     9c4:	74786574 	.inst	0x74786574 ; undefined
     9c8:	53520073 	.inst	0x53520073 ; undefined
     9cc:	435f5145 	.inst	0x435f5145 ; undefined
	/* input parameter */
     9d0:	4c465f53 	.inst	0x4c465f53 ; undefined
	asm(ALTERNATIVE("mrs %0, tpidr_el1",
     9d4:	4e5f4741 	.inst	0x4e5f4741 ; undefined
     9d8:	45525f4f 	.inst	0x45525f4f ; undefined
 * This assumes per-cpu software queueing queues. They could be per-node
     9dc:	52415453 	.inst	0x52415453 ; undefined
     9e0:	4e4f5f54 	.inst	0x4e4f5f54 ; undefined
     9e4:	4749535f 	.inst	0x4749535f ; undefined
	if (!(hctx->flags & BLK_MQ_F_SHOULD_MERGE) ||
     9e8:	5f4c414e 	.inst	0x5f4c414e ; undefined
	return ctx->hctxs[type];
     9ec:	00544942 	.inst	0x00544942 ; undefined
 * This assumes per-cpu software queueing queues. They could be per-node
     9f0:	366d7261 	tbz	w1, #13, ffffffffffffb83c <blk_mq_init_sched+0xffffffffffffa8e4>
     9f4:	74665f34 	.inst	0x74665f34 ; undefined
     9f8:	766f5f72 	.inst	0x766f5f72 ; undefined
	
     9fc:	69727265 	ldpsw	x5, x28, [x19, #-112]
 * sysfs helpers
     a00:	71006564 	subs	w4, w11, #0x19
     a04:	00727473 	.inst	0x00727473 ; undefined
     a08:	435f524e 	.inst	0x435f524e ; undefined
		return false;
     a0c:	4f504d4f 	.inst	0x4f504d4f ; undefined
     a10:	5f444e55 	.inst	0x5f444e55 ; undefined
     a14:	524f5444 	.inst	0x524f5444 ; undefined

     a18:	79730053 	ldrh	w19, [x2, #6528]
	    list_empty_careful(&ctx->rq_lists[type]))
     a1c:	6c746373 	ldnp	d19, d24, [x27, #-192]

     a20:	7366765f 	.inst	0x7366765f ; undefined
     a24:	6361635f 	.inst	0x6361635f ; undefined
	struct list_head *next = smp_load_acquire(&head->next);
     a28:	705f6568 	adr	x8, bf6d7 <blk_mq_init_sched+0xbe77f>
	return (next == head) && (next == head->prev);
     a2c:	73736572 	.inst	0x73736572 ; undefined
     a30:	00657275 	.inst	0x00657275 ; undefined
	raw_spin_lock(&lock->rlock);
     a34:	4c425f5f 	.inst	0x4c425f5f ; undefined
     a38:	41545f4b 	.inst	0x41545f4b ; undefined

     a3c:	454c535f 	.inst	0x454c535f ; undefined
     a40:	51525045 	sub	w5, w2, #0x494, lsl #12
     a44:	4f5f4e00 	.inst	0x4f5f4e00 ; undefined
     a48:	4e494c4e 	.inst	0x4e494c4e ; undefined

     a4c:	6d760045 	ldp	d5, d0, [x2, #-160]

     a50:	6d756e5f 	ldp	d31, d27, [x18, #-176]
     a54:	74735f61 	.inst	0x74735f61 ; undefined
     a58:	6b5f7461 	subs	w1, w3, wzr, lsr #29
	spin_unlock(&ctx->lock);
     a5c:	70007965 	adr	x5, 198b <.debug_str+0x198b>
	return ret;
     a60:	6d617261 	ldp	d1, d28, [x19, #-496]
	spin_unlock(&ctx->lock);
     a64:	73706f5f 	.inst	0x73706f5f ; undefined
     a68:	6e69625f 	rsubhn2	v31.8h, v18.4s, v9.4s
	raw_spin_unlock(&lock->rlock);
     a6c:	69730074 	ldpsw	x20, x0, [x3, #-104]
     a70:	5f00657a 	.inst	0x5f00657a ; undefined
	return rq_mergeable(rq) && elv_attempt_insert_merge(q, rq, free);
     a74:	6b6c625f 	.inst	0x6b6c625f ; undefined
     a78:	5f716d5f 	.inst	0x5f716d5f ; undefined
     a7c:	65686373 	fnmls	z19.h, p0/m, z27.h, z8.h
     a80:	69625f64 	ldpsw	x4, x23, [x27, #-240]
     a84:	656d5f6f 	fnmla	z15.h, p7/m, z27.h, z13.h
     a88:	00656772 	.inst	0x00656772 ; undefined
     a8c:	706d6f63 	adr	x3, db87b <blk_mq_init_sched+0xda923>
     a90:	655f7461 	fcmeq	p1.h, p5/z, z3.h, z31.h
}
     a94:	685f666c 	.inst	0x685f666c ; undefined
     a98:	70616377 	adr	x23, c3707 <blk_mq_init_sched+0xc27af>
     a9c:	71657200 	subs	w0, w16, #0x95c, lsl #12
 * sysfs helpers
     aa0:	66706f5f 	.inst	0x66706f5f ; undefined
     aa4:	72696600 	.inst	0x72696600 ; undefined
     aa8:	6d007473 	stp	d19, d29, [x3]
		return false;
     aac:	5f70616d 	.inst	0x5f70616d ; undefined
     ab0:	5f646e72 	.inst	0x5f646e72 ; undefined
     ab4:	706d6f63 	adr	x3, db8a3 <blk_mq_init_sched+0xda94b>
     ab8:	625f7461 	.inst	0x625f7461 ; undefined
     abc:	5f737469 	sqshl	d9, d3, #51
     ac0:	0078616d 	.inst	0x0078616d ; undefined
     ac4:	706d6973 	adr	x19, db7f3 <blk_mq_init_sched+0xda89b>
     ac8:	645f656c 	fcmla	z12.h, p1/m, z11.h, z31.h, #270
     acc:	695f7269 	ldpsw	x9, x28, [x19, #248]
	/* default per sw-queue merge */
     ad0:	65646f6e 	fnmls	z14.h, p3/m, z27.h, z4.h
     ad4:	65706f5f 	fnmls	z31.h, p3/m, z26.h, z16.h
	return rq_mergeable(rq) && elv_attempt_insert_merge(q, rq, free);
     ad8:	69746172 	ldpsw	x18, x24, [x11, #-96]
     adc:	00736e6f 	.inst	0x00736e6f ; undefined
     ae0:	61726170 	.inst	0x61726170 ; undefined
     ae4:	706f5f6d 	adr	x13, df6d3 <blk_mq_init_sched+0xde77b>
     ae8:	68635f73 	.inst	0x68635f73 ; undefined
     aec:	00707261 	.inst	0x00707261 ; undefined

     af0:	524f4853 	.inst	0x524f4853 ; undefined
     af4:	4e495f54 	.inst	0x4e495f54 ; undefined
     af8:	0045444f 	.inst	0x0045444f ; undefined
     afc:	746f6f62 	.inst	0x746f6f62 ; undefined
     b00:	6d6f635f 	ldp	d31, d24, [x26, #-272]
     b04:	646e616d 	.inst	0x646e616d ; undefined
     b08:	6e696c5f 	umin	v31.8h, v2.8h, v9.8h
     b0c:	65700065 	fmla	z5.h, p0/m, z3.h, z16.h
     b10:	75706372 	.inst	0x75706372 ; undefined
     b14:	7274705f 	.inst	0x7274705f ; undefined
     b18:	414d4b00 	.inst	0x414d4b00 ; undefined
     b1c:	434f4c4c 	.inst	0x434f4c4c ; undefined
     b20:	4345525f 	.inst	0x4345525f ; undefined
     b24:	4d49414c 	.inst	0x4d49414c ; undefined
     b28:	7a697300 	.inst	0x7a697300 ; undefined
		/*
     b2c:	00745f65 	.inst	0x00745f65 ; undefined
	if (blk_mq_sched_bypass_insert(hctx, rq)) {
     b30:	636f6c62 	.inst	0x636f6c62 ; undefined

     b34:	676e696b 	.inst	0x676e696b ; undefined
		 * sw queue, meantime we add flush request to dispatch queue(
     b38:	746f6e5f 	.inst	0x746f6e5f ; undefined
     b3c:	65696669 	fnmls	z9.h, p1/m, z19.h, z9.h
     b40:	65685f72 	fnmla	z18.h, p7/m, z27.h, z8.h
     b44:	5f006461 	.inst	0x5f006461 ; undefined
     b48:	6572705f 	fnmls	z31.h, p4/m, z2.h, z18.h

     b4c:	74706d65 	.inst	0x74706d65 ; undefined
     b50:	756f635f 	.inst	0x756f635f ; undefined
     b54:	645f746e 	fcmla	z14.h, p5/m, z3.h, z31.h, #270
     b58:	615f6365 	.inst	0x615f6365 ; undefined
     b5c:	745f646e 	.inst	0x745f646e ; undefined
     b60:	00747365 	.inst	0x00747365 ; undefined
	} else {
     b64:	7461645f 	.inst	0x7461645f ; undefined
	new->next = next;
     b68:	454e0061 	.inst	0x454e0061 ; undefined
		spin_unlock(&ctx->lock);
     b6c:	58545f54 	ldr	x20, a9754 <blk_mq_init_sched+0xa87fc>
	new->prev = prev;
     b70:	464f535f 	.inst	0x464f535f ; undefined
	WRITE_ONCE(prev->next, new);
     b74:	51524954 	sub	w20, w10, #0x492, lsl #12
	next->prev = new;
     b78:	79736100 	ldrh	w0, [x8, #6576]
	}
     b7c:	5f00636e 	.inst	0x5f00636e ; undefined
     b80:	73696c5f 	.inst	0x73696c5f ; undefined
     b84:	64615f74 	.inst	0x64615f74 ; undefined
     b88:	61765f64 	.inst	0x61765f64 ; undefined
     b8c:	0064696c 	.inst	0x0064696c ; undefined
     b90:	43534750 	.inst	0x43534750 ; undefined
				  struct blk_mq_ctx *ctx,
     b94:	445f4e41 	.inst	0x445f4e41 ; undefined
				  struct list_head *list, bool run_queue_async)
     b98:	43455249 	.inst	0x43455249 ; undefined
     b9c:	48545f54 	ldxrh	w20, [x26]
     ba0:	54544f52 	.inst	0x54544f52 ; undefined
{
     ba4:	5400454c 	b.gt	144c <.debug_str+0x144c>
     ba8:	535f5048 	.inst	0x535f5048 ; undefined
     bac:	54494c50 	.inst	0x54494c50 ; undefined
     bb0:	444d505f 	.inst	0x444d505f ; undefined
     bb4:	4d5f4e00 	.inst	0x4d5f4e00 ; undefined
     bb8:	524f4d45 	.inst	0x524f4d45 ; undefined
     bbc:	51440059 	sub	w25, w2, #0x100, lsl #12
     bc0:	445f5453 	.inst	0x445f5453 ; undefined
     bc4:	53504f52 	.inst	0x53504f52 ; undefined
     bc8:	47494d00 	.inst	0x47494d00 ; undefined
     bcc:	45544152 	.inst	0x45544152 ; undefined
	if (e) {
     bd0:	5059545f 	adr	xzr, b365a <blk_mq_init_sched+0xb2702>
		LIST_HEAD(list);
     bd4:	41005345 	.inst	0x41005345 ; undefined
     bd8:	5f524444 	.inst	0x5f524444 ; undefined
     bdc:	504d4f43 	adr	x3, 9b5c6 <blk_mq_init_sched+0x9a66e>

     be0:	4c5f5441 	.inst	0x4c5f5441 ; undefined
	raw_spin_lock(&lock->rlock);
     be4:	554f5941 	.inst	0x554f5941 ; undefined
     be8:	73700054 	.inst	0x73700054 ; undefined
     bec:	65746174 	fnmls	z20.h, p0/m, z11.h, z20.h
	if (run_queue)
     bf0:	6568635f 	fnmls	z31.h, p0/m, z26.h, z8.h
     bf4:	745f6b63 	.inst	0x745f6b63 ; undefined
     bf8:	706d6500 	adr	x0, db89b <blk_mq_init_sched+0xda943>
     bfc:	6e5f7974 	.inst	0x6e5f7974 ; undefined
     c00:	00656d61 	.inst	0x00656d61 ; undefined
	raw_spin_unlock(&lock->rlock);
     c04:	66726570 	.inst	0x66726570 ; undefined
     c08:	766e695f 	.inst	0x766e695f ; undefined
     c0c:	64696c61 	.inst	0x64696c61 ; undefined
{
     c10:	6e6f635f 	rsubhn2	v31.8h, v26.4s, v15.4s
     c14:	74786574 	.inst	0x74786574 ; undefined
	 * blk_mq_sched_insert_requests() is called from flush plug
     c18:	655f5f00 	fcmge	p0.h, p7/z, z24.h, z31.h
     c1c:	74746978 	.inst	0x74746978 ; undefined
     c20:	5f747865 	sqdmlsl	s5, h3, v4.h[7]
     c24:	00646e65 	.inst	0x00646e65 ; undefined
     c28:	6c6c6162 	ldnp	d2, d24, [x11, #-320]
     c2c:	5f6e6f6f 	.inst	0x5f6e6f6f ; undefined
     c30:	74617473 	.inst	0x74617473 ; undefined
     c34:	4f570073 	.inst	0x4f570073 ; undefined
     c38:	4e494b52 	.inst	0x4e494b52 ; undefined
     c3c:	54455347 	b.vc	8b6a4 <blk_mq_init_sched+0x8a74c>
	 * from being released.
     c40:	4645525f 	.inst	0x4645525f ; undefined
	__rcu_read_lock();
     c44:	544c5541 	b.ne	996ec <blk_mq_init_sched+0x98794>  // b.any
	percpu_ptr = READ_ONCE(ref->percpu_count_ptr);
     c48:	5341425f 	.inst	0x5341425f ; undefined
	if (unlikely(percpu_ptr & __PERCPU_REF_ATOMIC_DEAD))
     c4c:	70630045 	adr	x5, c6c57 <blk_mq_init_sched+0xc5cff>
     c50:	73616d75 	.inst	0x73616d75 ; undefined
     c54:	61765f6b 	.inst	0x61765f6b ; undefined
	u32 pc = READ_ONCE(current_thread_info()->preempt.count);
     c58:	00745f72 	.inst	0x00745f72 ; undefined
	pc += val;
     c5c:	736b5f5f 	.inst	0x736b5f5f ; undefined
	WRITE_ONCE(current_thread_info()->preempt.count, pc);
     c60:	61747274 	.inst	0x61747274 ; undefined
PERCPU_OP(add, add, stadd)
     c64:	5f736e62 	.inst	0x5f736e62 ; undefined
	asm(ALTERNATIVE("mrs %0, tpidr_el1",
     c68:	5f6b6c62 	.inst	0x5f6b6c62 ; undefined
PERCPU_OP(add, add, stadd)
     c6c:	735f716d 	.inst	0x735f716d ; undefined
     c70:	64656863 	.inst	0x64656863 ; undefined
     c74:	7972745f 	ldrh	wzr, [x2, #6458]
     c78:	736e695f 	.inst	0x736e695f ; undefined
     c7c:	5f747265 	sqdmlsl	s5, h19, v4.h[3]
	u64 pc = READ_ONCE(ti->preempt_count);
     c80:	6772656d 	.inst	0x6772656d ; undefined
	WRITE_ONCE(ti->preempt.count, --pc);
     c84:	47500065 	.inst	0x47500065 ; undefined
     c88:	4f4d4544 	.inst	0x4f4d4544 ; undefined
	return !pc || !READ_ONCE(ti->preempt_count);
     c8c:	4b5f4554 	sub	w20, w10, wzr, lsr #17
		this_cpu_add(*percpu_count, nr);
     c90:	50415753 	adr	x19, 8377a <blk_mq_init_sched+0x82822>
	__rcu_read_unlock();
     c94:	65730044 	fmla	z4.h, p0/m, z2.h, z19.h
		 * try to issue requests directly if the hw queue isn't
     c98:	636f6c71 	.inst	0x636f6c71 ; undefined
     c9c:	00745f6b 	.inst	0x00745f6b ; undefined
		 * busy in case of 'none' scheduler, and this way may save
     ca0:	75746573 	.inst	0x75746573 ; undefined
		 * us one extra enqueue & dequeue to sw queue.
     ca4:	616d5f70 	.inst	0x616d5f70 ; undefined
     ca8:	70635f78 	adr	x24, c7897 <blk_mq_init_sched+0xc693f>
     cac:	73007375 	.inst	0x73007375 ; undefined
     cb0:	765f6576 	.inst	0x765f6576 ; undefined
     cb4:	616d5f71 	.inst	0x616d5f71 ; undefined
     cb8:	5f5f0070 	.inst	0x5f5f0070 ; undefined
static int blk_mq_sched_alloc_map_and_rqs(struct request_queue *q,
     cbc:	5f726570 	.inst	0x5f726570 ; undefined
     cc0:	5f757063 	sqdmlsl	s3, h3, v5.h[3]
     cc4:	00646e65 	.inst	0x00646e65 ; undefined
	__rcu_read_lock();
     cc8:	43534750 	.inst	0x43534750 ; undefined
	percpu_ptr = READ_ONCE(ref->percpu_count_ptr);
     ccc:	465f4e41 	.inst	0x465f4e41 ; undefined
	if (unlikely(percpu_ptr & __PERCPU_REF_ATOMIC_DEAD))
     cd0:	00454c49 	.inst	0x00454c49 ; undefined
     cd4:	5a5f524e 	.inst	0x5a5f524e ; undefined
     cd8:	5f454e4f 	.inst	0x5f454e4f ; undefined
	u32 pc = READ_ONCE(current_thread_info()->preempt.count);
     cdc:	56454e55 	.inst	0x56454e55 ; undefined
	pc += val;
     ce0:	41544349 	.inst	0x41544349 ; undefined
	WRITE_ONCE(current_thread_info()->preempt.count, pc);
     ce4:	00454c42 	.inst	0x00454c42 ; undefined
     ce8:	72657375 	.inst	0x72657375 ; undefined
	asm(ALTERNATIVE("mrs %0, tpidr_el1",
     cec:	6d616e5f 	ldp	d31, d27, [x18, #-496]
PERCPU_OP(add, add, stadd)
     cf0:	61707365 	.inst	0x61707365 ; undefined
     cf4:	75006563 	.inst	0x75006563 ; undefined
     cf8:	5f646975 	.inst	0x5f646975 ; undefined
     cfc:	65646e69 	fnmls	z9.h, p3/m, z19.h, z4.h
     d00:	6c620078 	ldnp	d24, d0, [x3, #-480]
	u64 pc = READ_ONCE(ti->preempt_count);
     d04:	716d5f6b 	subs	w11, w27, #0xb57, lsl #12
	WRITE_ONCE(ti->preempt.count, --pc);
     d08:	6863735f 	.inst	0x6863735f ; undefined
     d0c:	615f6465 	.inst	0x615f6465 ; undefined
	return !pc || !READ_ONCE(ti->preempt_count);
     d10:	67697373 	.inst	0x67697373 ; undefined
		this_cpu_sub(*percpu_count, nr);
     d14:	6f695f6e 	.inst	0x6f695f6e ; undefined
	__rcu_read_unlock();
     d18:	72610063 	.inst	0x72610063 ; undefined
{
     d1c:	735f6863 	.inst	0x735f6863 ; undefined
     d20:	625f7465 	.inst	0x625f7465 ; undefined
     d24:	42007469 	.inst	0x42007469 ; undefined
     d28:	4d5f4b4c 	.inst	0x4d5f4b4c ; undefined
     d2c:	5f465f51 	.inst	0x5f465f51 ; undefined
     d30:	5f474154 	.inst	0x5f474154 ; undefined
     d34:	58544348 	ldr	x8, a959c <blk_mq_init_sched+0xa8644>
     d38:	4148535f 	.inst	0x4148535f ; undefined
     d3c:	00444552 	.inst	0x00444552 ; undefined
     d40:	6a626f6b 	bics	w11, w27, w2, lsr #27
     d44:	7379735f 	.inst	0x7379735f ; undefined
     d48:	6f5f7366 	.inst	0x6f5f7366 ; undefined
     d4c:	69007370 	.inst	0x69007370 ; undefined
     d50:	5f74696e 	.inst	0x5f74696e ; undefined
     d54:	6b736174 	.inst	0x6b736174 ; undefined
     d58:	524f5700 	.inst	0x524f5700 ; undefined
     d5c:	474e494b 	.inst	0x474e494b ; undefined
     d60:	5f544553 	.inst	0x5f544553 ; undefined
		atomic_long_add(nr, &ref->data->count);
     d64:	54534552 	.inst	0x54534552 ; undefined
     d68:	5f45524f 	.inst	0x5f45524f ; undefined
     d6c:	4e4f4e41 	.inst	0x4e4f4e41 ; undefined
ATOMIC64_OP(add, stadd)
     d70:	4d554e00 	.inst	0x4d554e00 ; undefined
     d74:	49485f41 	.inst	0x49485f41 ; undefined
     d78:	465f544e 	.inst	0x465f544e ; undefined
ATOMIC64_OPS(add, add, I)
     d7c:	544c5541 	b.ne	99824 <blk_mq_init_sched+0x988cc>  // b.any
     d80:	4f4c5f53 	.inst	0x4f4c5f53 ; undefined
	else if (unlikely(atomic_long_sub_and_test(nr, &ref->data->count)))
     d84:	004c4143 	.inst	0x004c4143 ; undefined
     d88:	74737973 	.inst	0x74737973 ; undefined
     d8c:	665f6d65 	.inst	0x665f6d65 ; undefined
ATOMIC64_OP_SUB_RETURN(        , al, "memory")
     d90:	7a656572 	.inst	0x7a656572 ; undefined
     d94:	656c6261 	fnmls	z1.h, p0/m, z19.h, z12.h
     d98:	0071775f 	.inst	0x0071775f ; undefined
     d9c:	494d4750 	.inst	0x494d4750 ; undefined
     da0:	54415247 	b.vc	837e8 <blk_mq_init_sched+0x82890>
		ref->data->release(ref);
     da4:	55535f45 	.inst	0x55535f45 ; undefined
     da8:	53454343 	.inst	0x53454343 ; undefined
     dac:	52480053 	.inst	0x52480053 ; undefined
     db0:	454d4954 	.inst	0x454d4954 ; undefined
     db4:	41425f52 	.inst	0x41425f52 ; undefined
ATOMIC64_OPS(sub, sub, J)
     db8:	4d5f4553 	.inst	0x4d5f4553 ; undefined
     dbc:	544f4e4f 	b.nv	9f784 <blk_mq_init_sched+0x9e82c>
	else if (unlikely(atomic_long_sub_and_test(nr, &ref->data->count)))
     dc0:	43494e4f 	.inst	0x43494e4f ; undefined
     dc4:	74655f00 	.inst	0x74655f00 ; undefined
		blk_mq_insert_requests(hctx, ctx, list);
     dc8:	00747865 	.inst	0x00747865 ; undefined
     dcc:	61635f5f 	.inst	0x61635f5f ; undefined
     dd0:	6d655f70 	ldp	d16, d23, [x27, #-432]
     dd4:	5f797470 	sqshl	d16, d3, #57
	percpu_ref_put(&q->q_usage_counter);
     dd8:	00746573 	.inst	0x00746573 ; undefined
     ddc:	696e6170 	ldpsw	x16, x24, [x11, #-144]
     de0:	6e6f5f63 	uqrshl	v3.8h, v27.8h, v15.8h
     de4:	5f6f695f 	.inst	0x5f6f695f ; undefined
     de8:	00696d6e 	.inst	0x00696d6e ; undefined
	}
     dec:	565f524e 	.inst	0x565f524e ; undefined
     df0:	554e5f4d 	.inst	0x554e5f4d ; undefined
     df4:	455f414d 	.inst	0x455f414d ; undefined
	return READ_ONCE(head->next) == head;
     df8:	544e4556 	.inst	0x544e4556 ; undefined

     dfc:	4554495f 	.inst	0x4554495f ; undefined
     e00:	4300534d 	.inst	0x4300534d ; undefined
     e04:	415f414d 	.inst	0x415f414d ; undefined
		blk_mq_free_rqs(q->tag_set, q->sched_shared_tags,
     e08:	434f4c4c 	.inst	0x434f4c4c ; undefined
     e0c:	4355535f 	.inst	0x4355535f ; undefined
     e10:	53534543 	.inst	0x53534543 ; undefined
     e14:	61747300 	.inst	0x61747300 ; undefined
     e18:	5f636974 	.inst	0x5f636974 ; undefined
			if (hctx->sched_tags)
     e1c:	0079656b 	.inst	0x0079656b ; undefined
{
     e20:	65676170 	fnmls	z16.h, p0/m, z11.h, z7.h
     e24:	6f72675f 	sqshlu	v31.2d, v26.2d, #50
     e28:	625f7075 	.inst	0x625f7075 ; undefined
	}
     e2c:	6f6d5f79 	.inst	0x6f6d5f79 ; undefined
     e30:	696c6962 	ldpsw	x2, x26, [x11, #-160]
     e34:	645f7974 	fcmla	z20.h, p6/m, z11.h, z31.h, #270
     e38:	62617369 	.inst	0x62617369 ; undefined

     e3c:	0064656c 	.inst	0x0064656c ; undefined
}
     e40:	425f524e 	.inst	0x425f524e ; undefined
     e44:	434e554f 	.inst	0x434e554f ; undefined

     e48:	5f5f0045 	.inst	0x5f5f0045 ; undefined
}
     e4c:	65626968 	fnmls	z8.h, p2/m, z11.h, z2.h

     e50:	74616e72 	.inst	0x74616e72 ; undefined
     e54:	78655f65 	.inst	0x78655f65 ; undefined
     e58:	745f7469 	.inst	0x745f7469 ; undefined
	}
     e5c:	5f747865 	sqdmlsl	s5, h3, v4.h[7]
     e60:	72617473 	.inst	0x72617473 ; undefined
     e64:	45580074 	.inst	0x45580074 ; undefined
     e68:	56485f4e 	.inst	0x56485f4e ; undefined
	unsigned int i;
     e6c:	4f445f4d 	.inst	0x4f445f4d ; undefined
     e70:	4e49414d 	.inst	0x4e49414d ; undefined
     e74:	695f5f00 	ldpsw	x0, x23, [x24, #248]
     e78:	5f74696e 	.inst	0x5f74696e ; undefined
				blk_mq_free_rqs(q->tag_set,
     e7c:	69676562 	ldpsw	x2, x25, [x11, #-200]
     e80:	756d006e 	.inst	0x756d006e ; undefined
     e84:	5f69746c 	sqshl	d12, d3, #41
	unsigned int i;
     e88:	78746368 	ldumaxlh	w20, w8, [x27]
     e8c:	414d0073 	.inst	0x414d0073 ; undefined
     e90:	4f5a5f58 	.inst	0x4f5a5f58 ; undefined
     e94:	494c454e 	.inst	0x494c454e ; undefined
	queue_for_each_hw_ctx(q, hctx, i) {
     e98:	00535453 	.inst	0x00535453 ; undefined
     e9c:	45525f5f 	.inst	0x45525f5f ; undefined
     ea0:	4f4e5f51 	.inst	0x4f4e5f51 ; undefined
     ea4:	4752454d 	.inst	0x4752454d ; undefined
     ea8:	63680045 	.inst	0x63680045 ; undefined
     eac:	745f7874 	.inst	0x745f7874 ; undefined
     eb0:	00657079 	.inst	0x00657079 ; undefined
		}
     eb4:	696e6170 	ldpsw	x16, x24, [x11, #-144]
     eb8:	6e6f5f63 	uqrshl	v3.8h, v27.8h, v15.8h
     ebc:	7261775f 	.inst	0x7261775f ; undefined
     ec0:	4950006e 	.inst	0x4950006e ; undefined
     ec4:	50595444 	adr	x4, b394e <blk_mq_init_sched+0xb29f6>
     ec8:	47545f45 	.inst	0x47545f45 ; undefined
     ecc:	5f004449 	.inst	0x5f004449 ; undefined
		flags = hctx->flags;
     ed0:	494e555f 	.inst	0x494e555f ; undefined
     ed4:	5f455551 	shl	d17, d10, #5
	}
     ed8:	5f5f4449 	.inst	0x5f5f4449 ; undefined
	blk_mq_debugfs_unregister_sched(q);
     edc:	3134795f 	cmn	w10, #0xd1e
     ee0:	61700038 	.inst	0x61700038 ; undefined
	}
     ee4:	5f63696e 	.inst	0x5f63696e ; undefined
     ee8:	00757063 	.inst	0x00757063 ; undefined
     eec:	655f6d76 	fcmne	p6.h, p3/z, z11.h, z31.h
     ef0:	746e6576 	.inst	0x746e6576 ; undefined
	blk_mq_debugfs_unregister_sched(q);
     ef4:	6574695f 	fnmls	z31.h, p2/m, z10.h, z20.h
	if (e->type->ops.exit_sched)
     ef8:	4750006d 	.inst	0x4750006d ; undefined
		}
     efc:	595a414c 	.inst	0x595a414c ; undefined
     f00:	45455246 	.inst	0x45455246 ; undefined
     f04:	73797300 	.inst	0x73797300 ; undefined
     f08:	5f6c7463 	sqshl	d3, d3, #44
	blk_mq_sched_tags_teardown(q, flags);
     f0c:	74617473 	.inst	0x74617473 ; undefined
     f10:	746e695f 	.inst	0x746e695f ; undefined
}
     f14:	61767265 	.inst	0x61767265 ; undefined
     f18:	656b006c 	fmla	z12.h, p0/m, z3.h, z11.h
     f1c:	79735f79 	ldrh	w25, [x27, #6574]
     f20:	6c746373 	ldnp	d19, d24, [x27, #-192]
     f24:	54530073 	.inst	0x54530073 ; undefined
     f28:	445f5441 	.inst	0x445f5441 ; undefined
     f2c:	41435349 	.inst	0x41435349 ; undefined
     f30:	72004452 	ands	w18, w2, #0x3ffff
     f34:	696c5f71 	ldpsw	x17, x23, [x27, #-160]
     f38:	64007473 	.inst	0x64007473 ; undefined
     f3c:	67756265 	.inst	0x67756265 ; undefined
     f40:	636f6c5f 	.inst	0x636f6c5f ; undefined
     f44:	735f736b 	.inst	0x735f736b ; undefined
     f48:	6e656c69 	umin	v9.8h, v3.8h, v5.8h
     f4c:	5f5f0074 	.inst	0x5f5f0074 ; undefined
     f50:	5f6b6c62 	.inst	0x5f6b6c62 ; undefined
     f54:	645f716d 	fcmla	z13.h, p4/m, z11.h, z31.h, #270

     f58:	69645f6f 	ldpsw	x15, x23, [x27, #-224]
     f5c:	74617073 	.inst	0x74617073 ; undefined
     f60:	735f6863 	.inst	0x735f6863 ; undefined
     f64:	64656863 	.inst	0x64656863 ; undefined
	if (!e) {
     f68:	5f524e00 	.inst	0x5f524e00 ; undefined

     f6c:	4c4f5349 	.inst	0x4c4f5349 ; undefined
     f70:	44455441 	.inst	0x44455441 ; undefined
     f74:	4f4e415f 	.inst	0x4f4e415f ; undefined
     f78:	4854004e 	ldxrh	w14, [x2]
		if (ret)
     f7c:	41465f50 	.inst	0x41465f50 ; undefined
     f80:	5f544c55 	.inst	0x5f544c55 ; undefined
     f84:	4f4c4c41 	.inst	0x4f4c4c41 ; undefined
	if (!e) {
     f88:	51440043 	sub	w3, w2, #0x100, lsl #12
		if (ret)
     f8c:	535f5453 	.inst	0x535f5453 ; undefined
     f90:	53434e59 	.inst	0x53434e59 ; undefined
     f94:	5f524e00 	.inst	0x5f524e00 ; undefined
     f98:	454e4f5a 	.inst	0x454e4f5a ; undefined

     f9c:	5443415f 	.inst	0x5443415f ; undefined
     fa0:	5f455649 	shl	d9, d18, #5

     fa4:	4e4f4e41 	.inst	0x4e4f4e41 ; undefined
     fa8:	50435000 	adr	x0, 879aa <blk_mq_init_sched+0x86a52>
     fac:	43465f55 	.inst	0x43465f55 ; undefined
     fb0:	5455415f 	.inst	0x5455415f ; undefined
     fb4:	6564004f 	fmla	z15.h, p0/m, z2.h, z4.h
						    q->nr_requests);
     fb8:	65636976 	fnmls	z22.h, p2/m, z11.h, z3.h
     fbc:	4e5f4e00 	.inst	0x4e5f4e00 ; undefined

     fc0:	414d524f 	.inst	0x414d524f ; undefined
     fc4:	454d5f4c 	.inst	0x454d5f4c ; undefined
     fc8:	59524f4d 	.inst	0x59524f4d ; undefined
     fcc:	67697300 	.inst	0x67697300 ; undefined
	hctx->sched_tags = blk_mq_alloc_map_and_rqs(q->tag_set, hctx_idx,
     fd0:	5f6c616e 	.inst	0x5f6c616e ; undefined

     fd4:	736e696d 	.inst	0x736e696d ; undefined
     fd8:	74736769 	.inst	0x74736769 ; undefined
     fdc:	007a736b 	.inst	0x007a736b ; undefined
	hctx->sched_tags = blk_mq_alloc_map_and_rqs(q->tag_set, hctx_idx,
     fe0:	656e6f7a 	fnmls	z26.h, p3/m, z27.h, z14.h
	return 0;
     fe4:	7461775f 	.inst	0x7461775f ; undefined
     fe8:	616d7265 	.inst	0x616d7265 ; undefined
     fec:	00736b72 	.inst	0x00736b72 ; undefined
     ff0:	5f696d6e 	.inst	0x5f696d6e ; undefined
static void blk_mq_exit_sched_shared_tags(struct request_queue *queue)
     ff4:	00787463 	.inst	0x00787463 ; undefined
{
     ff8:	70616d6d 	adr	x13, c3da7 <blk_mq_init_sched+0xc2e4f>
     ffc:	646e725f 	.inst	0x646e725f ; undefined
    1000:	6d6f635f 	ldp	d31, d24, [x26, #-272]

    1004:	5f746170 	.inst	0x5f746170 ; undefined
    1008:	73746962 	.inst	0x73746962 ; undefined
    100c:	6e696d5f 	umin	v31.8h, v10.8h, v9.8h
    1010:	61727400 	.inst	0x61727400 ; undefined
    1014:	705f706d 	adr	x13, bfe23 <blk_mq_init_sched+0xbeecb>
	return 0;
    1018:	69645f67 	ldpsw	x7, x23, [x27, #-224]
int blk_mq_init_sched(struct request_queue *q, struct elevator_type *e)
    101c:	5f4e0072 	.inst	0x5f4e0072 ; undefined
    1020:	00555043 	.inst	0x00555043 ; undefined
    1024:	414d554e 	.inst	0x414d554e ; undefined
    1028:	48544f5f 	ldxrh	wzr, [x26]
    102c:	52005245 	eor	w5, w18, #0x1fffff

    1030:	4f5f5145 	.inst	0x4f5f5145 ; undefined
    1034:	4f5a5f50 	.inst	0x4f5a5f50 ; undefined
    1038:	435f454e 	.inst	0x435f454e ; undefined
    103c:	45534f4c 	.inst	0x45534f4c ; undefined
    1040:	6b6c6200 	.inst	0x6b6c6200 ; undefined
	queue_for_each_hw_ctx(q, hctx, i) {
    1044:	5f716d5f 	.inst	0x5f716d5f ; undefined
}
    1048:	65686373 	fnmls	z19.h, p0/m, z27.h, z8.h
    104c:	65725f64 	fnmla	z4.h, p7/m, z27.h, z18.h

    1050:	72617473 	.inst	0x72617473 ; undefined
    1054:	6f6c0074 	mla	v20.8h, v3.8h, v12.h[2]
    1058:	54006b63 	b.cc	1dc4 <.debug_str+0x1dc4>  // b.lo, b.ul, b.last
 * called in either blk_queue_cleanup or elevator_switch, tagset
    105c:	534e4152 	.inst	0x534e4152 ; undefined
 * is required for freeing requests
    1060:	45475548 	.inst	0x45475548 ; undefined
    1064:	4741505f 	.inst	0x4741505f ; undefined
 */
    1068:	54445f45 	b.pl	89c50 <blk_mq_init_sched+0x88cf8>  // b.nfrst
    106c:	5f00524f 	fmls	h15, h18, v0.h[0]
    1070:	6172745f 	.inst	0x6172745f ; undefined
    1074:	6f706563 	sqshlu	v3.2d, v11.2d, #48
    1078:	5f746e69 	.inst	0x5f746e69 ; undefined
	/*
    107c:	65676170 	fnmls	z16.h, p0/m, z11.h, z7.h
	 * since we don't split into sync/async like the old code did.
    1080:	6665725f 	.inst	0x6665725f ; undefined
	 * Default to double of smaller one between hw queue_depth and 128,
    1084:	666e755f 	.inst	0x666e755f ; undefined
    1088:	7a656572 	.inst	0x7a656572 ; undefined
 */
    108c:	5f5f0065 	.inst	0x5f5f0065 ; undefined
    1090:	5f757063 	sqdmlsl	s3, h3, v5.h[3]
    1094:	6e697964 	.inst	0x6e697964 ; undefined
    1098:	616d5f67 	.inst	0x616d5f67 ; undefined
    109c:	5f006b73 	.inst	0x5f006b73 ; undefined
			if (ret) {
    10a0:	74736b5f 	.inst	0x74736b5f ; undefined
    10a4:	62617472 	.inst	0x62617472 ; undefined
				blk_mq_sched_free_rqs(q);
    10a8:	6b6c625f 	.inst	0x6b6c625f ; undefined
    10ac:	5f716d5f 	.inst	0x5f716d5f ; undefined
    10b0:	65686373 	fnmls	z19.h, p0/m, z27.h, z8.h
    10b4:	616d5f64 	.inst	0x616d5f64 ; undefined
    10b8:	725f6b72 	.inst	0x725f6b72 ; undefined
err_free_map_and_rqs:
    10bc:	61747365 	.inst	0x61747365 ; undefined
    10c0:	685f7472 	.inst	0x685f7472 ; undefined
    10c4:	00787463 	.inst	0x00787463 ; undefined
				blk_mq_sched_free_rqs(q);
    10c8:	746f6f72 	.inst	0x746f6f72 ; undefined
    10cc:	6d6f645f 	ldp	d31, d25, [x2, #-272]
    10d0:	006e6961 	.inst	0x006e6961 ; undefined
    10d4:	6e695f5f 	uqrshl	v31.8h, v26.8h, v9.8h
				blk_mq_exit_sched(q, eq);
    10d8:	65747469 	fnmls	z9.h, p5/m, z3.h, z20.h
				kobject_put(&eq->kobj);
    10dc:	625f7478 	.inst	0x625f7478 ; undefined
				blk_mq_sched_free_rqs(q);
    10e0:	6e696765 	umax	v5.8h, v27.8h, v9.8h
    10e4:	6c5f5f00 	ldnp	d0, d23, [x24, #496]
				blk_mq_exit_sched(q, eq);
    10e8:	5f747369 	sqdmlsl	s9, h27, v4.h[3]
				kobject_put(&eq->kobj);
    10ec:	696c7073 	ldpsw	x19, x28, [x3, #-160]
    10f0:	73006563 	.inst	0x73006563 ; undefined
    10f4:	65747379 	fnmls	z25.h, p4/m, z27.h, z20.h
				return ret;
    10f8:	6e755f6d 	uqrshl	v13.8h, v27.8h, v21.8h
			}
    10fc:	6e756f62 	umin	v2.8h, v27.8h, v21.8h
		}
    1100:	71775f64 	subs	w4, w27, #0xdd7, lsl #12
				kobject_put(&eq->kobj);
    1104:	6d5f5f00 	ldp	d0, d23, [x24, #496]
		}
    1108:	00727470 	.inst	0x00727470 ; undefined
		blk_mq_debugfs_register_sched_hctx(q, hctx);
    110c:	6e617262 	uabdl2	v2.4s, v19.8h, v1.8h
    1110:	6d006863 	stp	d3, d26, [x3]
    1114:	6c5f7861 	ldnp	d1, d30, [x3, #496]
	}
    1118:	705f776f 	adr	x15, c0007 <blk_mq_init_sched+0xbf0af>
    111c:	73006e66 	.inst	0x73006e66 ; undefined

    1120:	69746174 	ldpsw	x20, x24, [x11, #-96]
    1124:	656b5f63 	fnmla	z3.h, p7/m, z27.h, z11.h
    1128:	61665f79 	.inst	0x61665f79 ; undefined
    112c:	0065736c 	.inst	0x0065736c ; undefined
    1130:	6e655f5f 	uqrshl	v31.8h, v26.8h, v5.8h
    1134:	5f797274 	sqdmlsl	s20, h19, v9.h[3]
    1138:	6d617274 	ldp	d20, d28, [x19, #-496]
    113c:	65745f70 	fnmla	z16.h, p7/m, z27.h, z20.h
}
    1140:	655f7478 	fcmne	p8.h, p5/z, z3.h, z31.h
    1144:	7400646e 	.inst	0x7400646e ; undefined
    1148:	746e6961 	.inst	0x746e6961 ; undefined
    114c:	616c665f 	.inst	0x616c665f ; undefined
    1150:	52007367 	eor	w7, w27, #0x1fffffff
    1154:	4f5f5145 	.inst	0x4f5f5145 ; undefined
    1158:	49445f50 	.inst	0x49445f50 ; undefined
    115c:	52414353 	.inst	0x52414353 ; undefined
    1160:	6f620044 	mla	v4.8h, v2.8h, v2.h[2]
    1164:	635f746f 	.inst	0x635f746f ; undefined
    1168:	62617061 	.inst	0x62617061 ; undefined
    116c:	74696c69 	.inst	0x74696c69 ; undefined
    1170:	00736569 	.inst	0x00736569 ; undefined
    1174:	50415753 	adr	x19, 83c5e <blk_mq_init_sched+0x82d06>
    1178:	0041525f 	.inst	0x0041525f ; undefined
    117c:	5f504854 	.inst	0x5f504854 ; undefined
    1180:	5247494d 	.inst	0x5247494d ; undefined
    1184:	4f495441 	shl	v1.2d, v2.2d, #9
    1188:	55535f4e 	.inst	0x55535f4e ; undefined
    118c:	53454343 	.inst	0x53454343 ; undefined
    1190:	79730053 	ldrh	w19, [x2, #6528]
    1194:	6c746373 	ldnp	d19, d24, [x27, #-192]
    1198:	5f726e5f 	.inst	0x5f726e5f ; undefined
    119c:	6d697274 	ldp	d20, d28, [x19, #-368]
    11a0:	6761705f 	.inst	0x6761705f ; undefined
    11a4:	62007365 	.inst	0x62007365 ; undefined
    11a8:	6b636f6c 	.inst	0x6b636f6c ; undefined
    11ac:	5f766564 	.inst	0x5f766564 ; undefined
    11b0:	65707573 	fnmls	z19.h, p5/m, z11.h, z16.h
    11b4:	6f6c6272 	umlsl2	v18.4s, v19.8h, v12.h[2]
    11b8:	61006b63 	.inst	0x61006b63 ; undefined
    11bc:	5f686372 	.inst	0x5f686372 ; undefined
    11c0:	6d6f7461 	ldp	d1, d29, [x3, #-272]
    11c4:	34366369 	cbz	w9, 6de30 <blk_mq_init_sched+0x6ced8>
    11c8:	6275735f 	.inst	0x6275735f ; undefined
    11cc:	646e615f 	.inst	0x646e615f ; undefined
    11d0:	7365745f 	.inst	0x7365745f ; undefined
    11d4:	5f5f0074 	.inst	0x5f5f0074 ; undefined
    11d8:	6f756d6d 	.inst	0x6f756d6d ; undefined
    11dc:	645f6666 	fcmla	z6.h, p1/m, z19.h, z31.h, #270
    11e0:	5f617461 	sqshl	d1, d3, #33
    11e4:	00646e65 	.inst	0x00646e65 ; undefined
    11e8:	38755f5f 	.inst	0x38755f5f ; undefined
    11ec:	525f5f00 	.inst	0x525f5f00 ; undefined
    11f0:	465f5145 	.inst	0x465f5145 ; undefined
    11f4:	464c4941 	.inst	0x464c4941 ; undefined
    11f8:	5f545341 	.inst	0x5f545341 ; undefined
    11fc:	4e415254 	.inst	0x4e415254 ; undefined
    1200:	524f5053 	.inst	0x524f5053 ; undefined
    1204:	524e0054 	.inst	0x524e0054 ; undefined
    1208:	4d48535f 	.inst	0x4d48535f ; undefined
    120c:	64004d45 	.inst	0x64004d45 ; undefined
    1210:	796d6d75 	ldrh	w21, [x11, #5814]
    1214:	7172695f 	cmp	w10, #0xc9a, lsl #12
    1218:	6968635f 	ldpsw	xzr, x24, [x26, #-192]
    121c:	524e0070 	.inst	0x524e0070 ; undefined
    1220:	4c4f465f 	.inst	0x4c4f465f ; undefined
    1224:	49505f4c 	.inst	0x49505f4c ; undefined
    1228:	43415f4e 	.inst	0x43415f4e ; undefined
    122c:	52495551 	.inst	0x52495551 ; undefined
    1230:	66004445 	.inst	0x66004445 ; undefined
    1234:	69625f73 	ldpsw	x19, x23, [x27, #-240]
    1238:	65735f6f 	fnmla	z15.h, p7/m, z27.h, z19.h
    123c:	65700074 	fmla	z20.h, p0/m, z3.h, z16.h
    1240:	735f6672 	.inst	0x735f6672 ; undefined
    1244:	6f635f77 	.inst	0x6f635f77 ; undefined
    1248:	7865746e 	.inst	0x7865746e ; undefined
    124c:	65680074 	fmla	z20.h, p0/m, z3.h, z8.h
    1250:	73615f78 	.inst	0x73615f78 ; undefined
    1254:	70755f63 	adr	x3, ebe43 <blk_mq_init_sched+0xeaeeb>
    1258:	00726570 	.inst	0x00726570 ; undefined
    125c:	6c625f5f 	ldnp	d31, d23, [x26, #-480]
    1260:	716d5f6b 	subs	w11, w27, #0xb57, lsl #12
    1264:	7465675f 	.inst	0x7465675f ; undefined
    1268:	7874635f 	stumaxlh	w20, [x26]
    126c:	5f524e00 	.inst	0x5f524e00 ; undefined
    1270:	455f4d56 	.inst	0x455f4d56 ; undefined
    1274:	544e4556 	.inst	0x544e4556 ; undefined
    1278:	4554495f 	.inst	0x4554495f ; undefined
    127c:	6d00534d 	stp	d13, d20, [x26]
    1280:	6c75646f 	ldnp	d15, d25, [x3, #-176]
    1284:	79735f65 	ldrh	w5, [x27, #6574]
    1288:	5f736673 	.inst	0x5f736673 ; undefined
    128c:	74696e69 	.inst	0x74696e69 ; undefined
    1290:	696c6169 	ldpsw	x9, x24, [x11, #-160]
    1294:	0064657a 	.inst	0x0064657a ; undefined
    1298:	6e5f6d76 	.inst	0x6e5f6d76 ; undefined
    129c:	5f616d75 	.inst	0x5f616d75 ; undefined
    12a0:	6e657665 	uabd	v5.8h, v19.8h, v5.8h
    12a4:	5f5f0074 	.inst	0x5f5f0074 ; undefined
    12a8:	43524550 	.inst	0x43524550 ; undefined
    12ac:	525f5550 	.inst	0x525f5550 ; undefined
    12b0:	415f4645 	.inst	0x415f4645 ; undefined
    12b4:	494d4f54 	.inst	0x494d4f54 ; undefined
    12b8:	75730043 	.inst	0x75730043 ; undefined
    12bc:	5f726570 	.inst	0x5f726570 ; undefined
    12c0:	636f6c62 	.inst	0x636f6c62 ; undefined
    12c4:	7973006b 	ldrh	w11, [x3, #6528]
    12c8:	6d657473 	ldp	d19, d29, [x3, #-432]
    12cc:	0071775f 	.inst	0x0071775f ; undefined
    12d0:	44535f5f 	.inst	0x44535f5f ; undefined
    12d4:	45564f5f 	.inst	0x45564f5f ; undefined
    12d8:	50414c52 	adr	x18, 83c62 <blk_mq_init_sched+0x82d0a>
    12dc:	4d4f4f00 	.inst	0x4d4f4f00 ; undefined
    12e0:	4c494b5f 	.inst	0x4c494b5f ; undefined
    12e4:	5f5f004c 	.inst	0x5f5f004c ; undefined
    12e8:	5f4b4c42 	.inst	0x5f4b4c42 ; undefined
    12ec:	475f4154 	.inst	0x475f4154 ; undefined
    12f0:	51525445 	sub	w5, w2, #0x495, lsl #12
    12f4:	695f5f00 	ldpsw	x0, x23, [x24, #248]
    12f8:	70616d64 	adr	x4, c40a7 <blk_mq_init_sched+0xc314f>
    12fc:	7865745f 	.inst	0x7865745f ; undefined
    1300:	6e655f74 	uqrshl	v20.8h, v27.8h, v5.8h
    1304:	6c620064 	ldnp	d4, d0, [x3, #-480]
    1308:	71725f6b 	subs	w11, w27, #0xc97, lsl #12
    130c:	5f73695f 	.inst	0x5f73695f ; undefined
    1310:	73736170 	.inst	0x73736170 ; undefined
    1314:	6f726874 	umlsl2	v20.4s, v3.8h, v2.h[7]
    1318:	00686775 	.inst	0x00686775 ; undefined
    131c:	495f524e 	.inst	0x495f524e ; undefined
    1320:	5443414e 	b.al	87b48 <blk_mq_init_sched+0x86bf0>
    1324:	5f455649 	shl	d9, d18, #5
    1328:	454c4946 	.inst	0x454c4946 ; undefined
    132c:	525f5f00 	.inst	0x525f5f00 ; undefined
    1330:	495f5145 	.inst	0x495f5145 ; undefined
    1334:	00454c44 	.inst	0x00454c44 ; undefined
    1338:	616e6572 	.inst	0x616e6572 ; undefined
    133c:	6c5f656d 	ldnp	d13, d25, [x11, #496]
    1340:	006b636f 	.inst	0x006b636f ; undefined
    1344:	49545248 	.inst	0x49545248 ; undefined
    1348:	5f52454d 	.inst	0x5f52454d ; undefined
    134c:	45534142 	.inst	0x45534142 ; undefined
    1350:	4e4f4d5f 	.inst	0x4e4f4d5f ; undefined
    1354:	4e4f544f 	.inst	0x4e4f544f ; undefined
    1358:	535f4349 	.inst	0x535f4349 ; undefined
    135c:	0054464f 	.inst	0x0054464f ; undefined
    1360:	70707573 	adr	x19, e220f <blk_mq_init_sched+0xe12b7>
    1364:	73736572 	.inst	0x73736572 ; undefined
    1368:	6972705f 	ldpsw	xzr, x28, [x2, #-112]
    136c:	006b746e 	.inst	0x006b746e ; undefined
    1370:	6c6c5f5f 	ldnp	d31, d23, [x26, #-320]
    1374:	5f63735f 	sqdmlsl	s31, h26, v3.h[2]
    1378:	6d6f7461 	ldp	d1, d29, [x3, #-272]
    137c:	34366369 	cbz	w9, 6dfe8 <blk_mq_init_sched+0x6d090>
    1380:	6464615f 	.inst	0x6464615f ; undefined
    1384:	75637200 	.inst	0x75637200 ; undefined
    1388:	5f68625f 	.inst	0x5f68625f ; undefined
    138c:	6b636f6c 	.inst	0x6b636f6c ; undefined
    1390:	70616d5f 	adr	xzr, c413b <blk_mq_init_sched+0xc31e3>
    1394:	74726800 	.inst	0x74726800 ; undefined
    1398:	72656d69 	.inst	0x72656d69 ; undefined
    139c:	7361625f 	.inst	0x7361625f ; undefined
    13a0:	79745f65 	ldrh	w5, [x27, #6702]
    13a4:	48006570 	stxrh	w0, w16, [x11]
    13a8:	4f535f49 	.inst	0x4f535f49 ; undefined
    13ac:	52495446 	.inst	0x52495446 ; undefined
    13b0:	5f5f0051 	.inst	0x5f5f0051 ; undefined
    13b4:	5f514552 	.inst	0x5f514552 ; undefined
    13b8:	41574f4e 	.inst	0x41574f4e ; undefined
    13bc:	41005449 	.inst	0x41005449 ; undefined
    13c0:	434f4c4c 	.inst	0x434f4c4c ; undefined
    13c4:	4c415453 	.inst	0x4c415453 ; undefined
    13c8:	4f4d5f4c 	.inst	0x4f4d5f4c ; undefined
    13cc:	4c424156 	.inst	0x4c424156 ; undefined
    13d0:	76730045 	.inst	0x76730045 ; undefined
    13d4:	616d5f65 	.inst	0x616d5f65 ; undefined
    13d8:	69765f78 	ldpsw	x24, x23, [x27, #-80]
    13dc:	61757472 	.inst	0x61757472 ; undefined
    13e0:	6173696c 	.inst	0x6173696c ; undefined
    13e4:	5f656c62 	.inst	0x5f656c62 ; undefined
    13e8:	5f006c76 	.inst	0x5f006c76 ; undefined
    13ec:	5145525f 	sub	wsp, w18, #0x154, lsl #12
    13f0:	4841525f 	ldxrh	wzr, [x18]
    13f4:	00444145 	.inst	0x00444145 ; undefined
    13f8:	44535f5f 	.inst	0x44535f5f ; undefined
    13fc:	5953415f 	.inst	0x5953415f ; undefined
    1400:	50435f4d 	adr	x13, 87fea <blk_mq_init_sched+0x87092>
    1404:	50414355 	adr	x21, 83c6e <blk_mq_init_sched+0x82d16>
    1408:	54494341 	b.ne	93c70 <blk_mq_init_sched+0x92d18>  // b.any
    140c:	72610059 	.inst	0x72610059 ; undefined
    1410:	615f6863 	.inst	0x615f6863 ; undefined
    1414:	696d6f74 	ldpsw	x20, x27, [x27, #-152]
    1418:	5f343663 	.inst	0x5f343663 ; undefined
    141c:	7000726f 	adr	x15, 226b <.debug_str+0x226b>
    1420:	7265776f 	.inst	0x7265776f ; undefined
    1424:	6f72675f 	sqshlu	v31.2d, v26.2d, #50
    1428:	6e5f7075 	.inst	0x6e5f7075 ; undefined
    142c:	00656d61 	.inst	0x00656d61 ; undefined
    1430:	4d5f524e 	.inst	0x4d5f524e ; undefined
    1434:	4b434f4c 	sub	w12, w26, w3, lsr #19
    1438:	5f736600 	.inst	0x5f736600 ; undefined
    143c:	6a626f6b 	bics	w11, w27, w2, lsr #27
    1440:	735f5f00 	.inst	0x735f5f00 ; undefined
    1444:	6974666f 	ldpsw	x15, x25, [x19, #-96]
    1448:	6e657172 	uabdl2	v18.4s, v11.8h, v5.8h
    144c:	5f797274 	sqdmlsl	s20, h19, v9.h[3]
    1450:	74786574 	.inst	0x74786574 ; undefined
    1454:	6174735f 	.inst	0x6174735f ; undefined
    1458:	5f007472 	.inst	0x5f007472 ; undefined
    145c:	6172745f 	.inst	0x6172745f ; undefined
    1460:	6f706563 	sqshlu	v3.2d, v11.2d, #48
    1464:	5f746e69 	.inst	0x5f746e69 ; undefined
    1468:	65676170 	fnmls	z16.h, p0/m, z11.h, z7.h
    146c:	6665725f 	.inst	0x6665725f ; undefined
    1470:	7465735f 	.inst	0x7465735f ; undefined
    1474:	5f524e00 	.inst	0x5f524e00 ; undefined
    1478:	4e5f4d56 	.inst	0x4e5f4d56 ; undefined
    147c:	5f45444f 	.inst	0x5f45444f ; undefined
    1480:	54415453 	.inst	0x54415453 ; undefined
    1484:	4554495f 	.inst	0x4554495f ; undefined
    1488:	5700534d 	.inst	0x5700534d ; undefined
    148c:	4e5f5442 	.inst	0x4e5f5442 ; undefined
    1490:	525f4d55 	.inst	0x525f4d55 ; undefined
    1494:	4d005157 	st1	{v23.h}[6], [x10]
    1498:	41524749 	.inst	0x41524749 ; undefined
    149c:	505f4554 	adr	x20, bfd46 <blk_mq_init_sched+0xbedee>
    14a0:	59545043 	.inst	0x59545043 ; undefined
    14a4:	00534550 	.inst	0x00534550 ; undefined
    14a8:	696c6d76 	ldpsw	x22, x27, [x11, #-160]
    14ac:	5f78756e 	sqshl	d14, d11, #56
    14b0:	6c697562 	ldnp	d2, d29, [x11, #-368]
    14b4:	64695f64 	.inst	0x64695f64 ; undefined
    14b8:	72617000 	.inst	0x72617000 ; undefined
    14bc:	6f5f6d61 	.inst	0x6f5f6d61 ; undefined
    14c0:	735f7370 	.inst	0x735f7370 ; undefined
    14c4:	74726f68 	.inst	0x74726f68 ; undefined
    14c8:	47554800 	.inst	0x47554800 ; undefined
    14cc:	424c5445 	.inst	0x424c5445 ; undefined
    14d0:	4741505f 	.inst	0x4741505f ; undefined
    14d4:	54445f45 	b.pl	8a0bc <blk_mq_init_sched+0x89164>  // b.nfrst
    14d8:	5f00524f 	fmls	h15, h18, v0.h[0]
    14dc:	7265705f 	.inst	0x7265705f ; undefined
    14e0:	7570635f 	.inst	0x7570635f ; undefined
    14e4:	66666f5f 	.inst	0x66666f5f ; undefined
    14e8:	00746573 	.inst	0x00746573 ; undefined
    14ec:	5f6b6c62 	.inst	0x5f6b6c62 ; undefined
    14f0:	675f716d 	.inst	0x675f716d ; undefined
    14f4:	635f7465 	.inst	0x635f7465 ; undefined
    14f8:	70007874 	adr	x20, 2407 <.debug_str+0x2407>
    14fc:	6d617261 	ldp	d1, d28, [x19, #-496]
    1500:	7272615f 	.inst	0x7272615f ; undefined
    1504:	6f5f7961 	.inst	0x6f5f7961 ; undefined
    1508:	62007370 	.inst	0x62007370 ; undefined
    150c:	645f6b6c 	fcmla	z12.h, p2/m, z27.h, z31.h, #270
    1510:	67756265 	.inst	0x67756265 ; undefined
    1514:	725f7366 	.inst	0x725f7366 ; undefined
    1518:	00746f6f 	.inst	0x00746f6f ; undefined
    151c:	68637261 	.inst	0x68637261 ; undefined
    1520:	6572665f 	fnmls	z31.h, p1/m, z18.h, z18.h
    1524:	63735f71 	.inst	0x63735f71 ; undefined
    1528:	00656c61 	.inst	0x00656c61 ; undefined
    152c:	6e655f5f 	uqrshl	v31.8h, v26.8h, v5.8h
    1530:	5f797274 	sqdmlsl	s20, h19, v9.h[3]
    1534:	74786574 	.inst	0x74786574 ; undefined
    1538:	646e655f 	.inst	0x646e655f ; undefined
    153c:	625f5f00 	.inst	0x625f5f00 ; undefined
    1540:	5f746f6f 	.inst	0x5f746f6f ; undefined
    1544:	5f757063 	sqdmlsl	s3, h3, v5.h[3]
    1548:	5f006469 	.inst	0x5f006469 ; undefined
    154c:	5145525f 	sub	wsp, w18, #0x154, lsl #12
    1550:	5049485f 	adr	xzr, 93e5a <blk_mq_init_sched+0x92f02>
    1554:	73004952 	.inst	0x73004952 ; undefined
    1558:	74637379 	.inst	0x74637379 ; undefined
    155c:	656d5f6c 	fnmla	z12.h, p7/m, z27.h, z13.h
    1560:	79726f6d 	ldrh	w13, [x27, #6454]
    1564:	6961665f 	ldpsw	xzr, x25, [x18, #-248]
    1568:	6572756c 	fnmls	z12.h, p5/m, z11.h, z18.h
    156c:	6365725f 	.inst	0x6365725f ; undefined
    1570:	7265766f 	.inst	0x7265766f ; undefined
    1574:	54480079 	.inst	0x54480079 ; undefined
    1578:	425f424c 	.inst	0x425f424c ; undefined
    157c:	59444455 	.inst	0x59444455 ; undefined
    1580:	4147505f 	.inst	0x4147505f ; undefined
    1584:	434f4c4c 	.inst	0x434f4c4c ; undefined
    1588:	4941465f 	.inst	0x4941465f ; undefined
    158c:	4854004c 	ldxrh	w12, [x2]
    1590:	50535f50 	adr	x16, a817a <blk_mq_init_sched+0xa7222>
    1594:	5f54494c 	.inst	0x5f54494c ; undefined
    1598:	45474150 	.inst	0x45474150 ; undefined
    159c:	5f726e00 	.inst	0x5f726e00 ; undefined
    15a0:	696c6e6f 	ldpsw	x15, x27, [x19, #-160]
    15a4:	6e5f656e 	.inst	0x6e5f656e ; undefined
    15a8:	7365646f 	.inst	0x7365646f ; undefined
    15ac:	66656400 	.inst	0x66656400 ; undefined
    15b0:	7268635f 	.inst	0x7268635f ; undefined
    15b4:	706f665f 	adr	xzr, e027f <blk_mq_init_sched+0xdf327>
    15b8:	5f5f0073 	.inst	0x5f5f0073 ; undefined
    15bc:	735f6c6c 	.inst	0x735f6c6c ; undefined
    15c0:	74615f63 	.inst	0x74615f63 ; undefined
    15c4:	63696d6f 	.inst	0x63696d6f ; undefined
    15c8:	6f5f3436 	ursra	v22.2d, v1.2d, #33
    15cc:	64610072 	fmla	z18.h, z3.h, z1.h[4]
    15d0:	73657264 	.inst	0x73657264 ; undefined
    15d4:	70735f73 	adr	x19, e81c3 <blk_mq_init_sched+0xe726b>
    15d8:	5f656361 	.inst	0x5f656361 ; undefined
    15dc:	7265706f 	.inst	0x7265706f ; undefined
    15e0:	6f697461 	uqshl	v1.2d, v3.2d, #41
    15e4:	5700736e 	.inst	0x5700736e ; undefined
    15e8:	494b524f 	.inst	0x494b524f ; undefined
    15ec:	4553474e 	.inst	0x4553474e ; undefined
    15f0:	43415f54 	.inst	0x43415f54 ; undefined
    15f4:	41564954 	.inst	0x41564954 ; undefined
    15f8:	465f4554 	.inst	0x465f4554 ; undefined
    15fc:	00454c49 	.inst	0x00454c49 ; undefined
    1600:	63737973 	.inst	0x63737973 ; undefined
    1604:	6d5f6c74 	ldp	d20, d27, [x3, #496]
    1608:	726f6d65 	.inst	0x726f6d65 ; undefined
    160c:	61665f79 	.inst	0x61665f79 ; undefined
    1610:	72756c69 	.inst	0x72756c69 ; undefined
    1614:	61655f65 	.inst	0x61655f65 ; undefined
    1618:	5f796c72 	.inst	0x5f796c72 ; undefined
    161c:	6c6c696b 	ldnp	d11, d26, [x11, #-320]
    1620:	685f5f00 	.inst	0x685f5f00 ; undefined
    1624:	725f7079 	.inst	0x725f7079 ; undefined
    1628:	636f6c65 	.inst	0x636f6c65 ; undefined
    162c:	6765625f 	.inst	0x6765625f ; undefined
    1630:	5f006e69 	.inst	0x5f006e69 ; undefined
    1634:	65736c5f 	fnmls	z31.h, p3/m, z2.h, z19.h
    1638:	6f74615f 	umlsl2	v31.4s, v10.8h, v4.h[3]
    163c:	3663696d 	tbz	w13, #12, 8368 <blk_mq_init_sched+0x7410>
    1640:	75735f34 	.inst	0x75735f34 ; undefined
    1644:	65725f62 	fnmla	z2.h, p7/m, z27.h, z18.h
    1648:	6e727574 	uabd	v20.8h, v11.8h, v18.8h
    164c:	69735f00 	ldpsw	x0, x23, [x24, #-104]
    1650:	7474696e 	.inst	0x7474696e ; undefined
    1654:	00747865 	.inst	0x00747865 ; undefined
    1658:	616d6469 	.inst	0x616d6469 ; undefined
    165c:	67705f70 	.inst	0x67705f70 ; undefined
    1660:	646e655f 	.inst	0x646e655f ; undefined
    1664:	47494d00 	.inst	0x47494d00 ; undefined
    1668:	45544152 	.inst	0x45544152 ; undefined
    166c:	4345525f 	.inst	0x4345525f ; undefined
    1670:	4d49414c 	.inst	0x4d49414c ; undefined
    1674:	454c4241 	.inst	0x454c4241 ; undefined
    1678:	47494d00 	.inst	0x47494d00 ; undefined
    167c:	45544152 	.inst	0x45544152 ; undefined
    1680:	4f53495f 	.inst	0x4f53495f ; undefined
    1684:	4554414c 	.inst	0x4554414c ; undefined
    1688:	44495000 	.inst	0x44495000 ; undefined
    168c:	45505954 	.inst	0x45505954 ; undefined
    1690:	4449535f 	.inst	0x4449535f ; undefined
    1694:	67756800 	.inst	0x67756800 ; undefined
    1698:	657a5f65 	fnmla	z5.h, p7/m, z27.h, z26.h
    169c:	705f6f72 	adr	x18, c048b <blk_mq_init_sched+0xbf533>
    16a0:	70006e66 	adr	x6, 246f <.debug_str+0x246f>
    16a4:	5f667265 	sqdmlsl	s5, h19, v6.h[2]
    16a8:	6e657665 	uabd	v5.8h, v19.8h, v5.8h
    16ac:	61745f74 	.inst	0x61745f74 ; undefined
    16b0:	635f6b73 	.inst	0x635f6b73 ; undefined
    16b4:	65746e6f 	fnmls	z15.h, p3/m, z19.h, z20.h
    16b8:	4e007478 	.inst	0x4e007478 ; undefined
    16bc:	454b5f52 	.inst	0x454b5f52 ; undefined
    16c0:	4c454e52 	.inst	0x4c454e52 ; undefined
    16c4:	4154535f 	.inst	0x4154535f ; undefined
    16c8:	4b5f4b43 	sub	w3, w26, wzr, lsr #18
    16cc:	656c0042 	fmla	z2.h, p0/m, z2.h, z12.h
    16d0:	5f657361 	sqdmlsl	s1, h27, v5.h[2]
    16d4:	61657262 	.inst	0x61657262 ; undefined
    16d8:	69745f6b 	ldpsw	x11, x23, [x27, #-96]
    16dc:	5f00656d 	.inst	0x5f00656d ; undefined
    16e0:	6e6f635f 	rsubhn2	v31.8h, v26.4s, v15.4s
    16e4:	696e695f 	ldpsw	xzr, x26, [x10, #-144]
    16e8:	6c616374 	ldnp	d20, d24, [x27, #-496]
    16ec:	74735f6c 	.inst	0x74735f6c ; undefined
    16f0:	00747261 	.inst	0x00747261 ; undefined
    16f4:	54535953 	.inst	0x54535953 ; undefined
    16f8:	505f4d45 	adr	x5, c00a2 <blk_mq_init_sched+0xbf14a>
    16fc:	5245574f 	.inst	0x5245574f ; undefined
    1700:	46464f5f 	.inst	0x46464f5f ; undefined
    1704:	6b6c6200 	.inst	0x6b6c6200 ; undefined
    1708:	5f716d5f 	.inst	0x5f716d5f ; undefined
    170c:	7478656e 	.inst	0x7478656e ; undefined
    1710:	7874635f 	stumaxlh	w20, [x26]
    1714:	6f6f6c00 	.inst	0x6f6f6c00 ; undefined
    1718:	6f6e0070 	mla	v16.8h, v3.8h, v14.h[2]
    171c:	745f6564 	.inst	0x745f6564 ; undefined
    1720:	70635f6f 	adr	x15, c830f <blk_mq_init_sched+0xc73b7>
    1724:	73616d75 	.inst	0x73616d75 ; undefined
    1728:	616d5f6b 	.inst	0x616d5f6b ; undefined
    172c:	54530070 	.inst	0x54530070 ; undefined
    1730:	525f5441 	.inst	0x525f5441 ; undefined
    1734:	00444145 	.inst	0x00444145 ; undefined
    1738:	69747268 	ldpsw	x8, x28, [x19, #-96]
    173c:	5f72656d 	.inst	0x5f72656d ; undefined
    1740:	6f736572 	sqshlu	v18.2d, v11.2d, #51
    1744:	6974756c 	ldpsw	x12, x29, [x11, #-96]
    1748:	55006e6f 	.inst	0x55006e6f ; undefined
    174c:	4956454e 	.inst	0x4956454e ; undefined
    1750:	42415443 	.inst	0x42415443 ; undefined
    1754:	505f454c 	adr	x12, bfffe <blk_mq_init_sched+0xbf0a6>
    1758:	4f4c4d47 	.inst	0x4f4c4d47 ; undefined
    175c:	44454b43 	.inst	0x44454b43 ; undefined
    1760:	6c696600 	ldnp	d0, d25, [x16, #-368]
    1764:	735f7365 	.inst	0x735f7365 ; undefined
    1768:	5f746174 	.inst	0x5f746174 ; undefined
    176c:	75727473 	.inst	0x75727473 ; undefined
    1770:	69007463 	.inst	0x69007463 ; undefined
    1774:	645f7172 	fcmla	z18.h, p4/m, z11.h, z31.h, #270
    1778:	75616665 	.inst	0x75616665 ; undefined
    177c:	615f746c 	.inst	0x615f746c ; undefined
    1780:	6e696666 	umax	v6.8h, v19.8h, v9.8h
    1784:	00797469 	.inst	0x00797469 ; undefined
    1788:	72745f5f 	.inst	0x72745f5f ; undefined
    178c:	70656361 	adr	x1, cc3fb <blk_mq_init_sched+0xcb4a3>
    1790:	746e696f 	.inst	0x746e696f ; undefined
    1794:	616d6d5f 	.inst	0x616d6d5f ; undefined
    1798:	6f6c5f70 	.inst	0x6f6c5f70 ; undefined
    179c:	615f6b63 	.inst	0x615f6b63 ; undefined
    17a0:	69757163 	ldpsw	x3, x28, [x11, #-88]
    17a4:	725f6572 	.inst	0x725f6572 ; undefined
    17a8:	72757465 	.inst	0x72757465 ; undefined
    17ac:	0064656e 	.inst	0x0064656e ; undefined
    17b0:	646f6e69 	.inst	0x646f6e69 ; undefined
    17b4:	706f5f65 	adr	x5, e03a3 <blk_mq_init_sched+0xdf44b>
    17b8:	74617265 	.inst	0x74617265 ; undefined
    17bc:	736e6f69 	.inst	0x736e6f69 ; undefined
    17c0:	53475000 	.inst	0x53475000 ; undefined
    17c4:	5f4e4143 	.inst	0x5f4e4143 ; undefined
    17c8:	50494b53 	adr	x19, 94132 <blk_mq_init_sched+0x931da>
    17cc:	414d445f 	.inst	0x414d445f ; undefined
    17d0:	44495000 	.inst	0x44495000 ; undefined
    17d4:	45505954 	.inst	0x45505954 ; undefined
    17d8:	4947505f 	.inst	0x4947505f ; undefined
    17dc:	5f5f0044 	.inst	0x5f5f0044 ; undefined
    17e0:	65626968 	fnmls	z8.h, p2/m, z11.h, z2.h
    17e4:	74616e72 	.inst	0x74616e72 ; undefined
    17e8:	78655f65 	.inst	0x78655f65 ; undefined
    17ec:	745f7469 	.inst	0x745f7469 ; undefined
    17f0:	5f747865 	sqdmlsl	s5, h3, v4.h[7]
    17f4:	00646e65 	.inst	0x00646e65 ; undefined
    17f8:	79685f5f 	ldrh	wzr, [x26, #5166]
    17fc:	65745f70 	fnmla	z16.h, p7/m, z27.h, z20.h
    1800:	735f7478 	.inst	0x735f7478 ; undefined
    1804:	74726174 	.inst	0x74726174 ; undefined
    1808:	74636800 	.inst	0x74636800 ; undefined
    180c:	64695f78 	.inst	0x64695f78 ; undefined
    1810:	5f5f0078 	.inst	0x5f5f0078 ; undefined
    1814:	74696e69 	.inst	0x74696e69 ; undefined
    1818:	61746164 	.inst	0x61746164 ; undefined
    181c:	646e655f 	.inst	0x646e655f ; undefined
    1820:	72617000 	.inst	0x72617000 ; undefined
    1824:	6f5f6d61 	.inst	0x6f5f6d61 ; undefined
    1828:	735f7370 	.inst	0x735f7370 ; undefined
    182c:	6e697274 	uabdl2	v20.4s, v19.8h, v9.8h
    1830:	6c450067 	ldnp	d7, d0, [x3, #80]
    1834:	5f343666 	.inst	0x5f343666 ; undefined
    1838:	006e7944 	.inst	0x006e7944 ; undefined
    183c:	69626176 	ldpsw	x22, x24, [x11, #-240]
    1840:	615f7374 	.inst	0x615f7374 ; undefined
    1844:	61757463 	.inst	0x61757463 ; undefined
    1848:	494d006c 	.inst	0x494d006c ; undefined
    184c:	54415247 	b.vc	84294 <blk_mq_init_sched+0x8333c>
    1850:	49485f45 	.inst	0x49485f45 ; undefined
    1854:	54414847 	b.vc	8415c <blk_mq_init_sched+0x83204>
    1858:	43494d4f 	.inst	0x43494d4f ; undefined
    185c:	51455200 	sub	w0, w16, #0x154, lsl #12
    1860:	5f504f5f 	.inst	0x5f504f5f ; undefined
    1864:	5f565244 	.inst	0x5f565244 ; undefined
    1868:	0054554f 	.inst	0x0054554f ; undefined
    186c:	645f7164 	fcmla	z4.h, p4/m, z11.h, z31.h, #270
    1870:	5f617461 	sqshl	d1, d3, #33
    1874:	6b636f6c 	.inst	0x6b636f6c ; undefined
    1878:	5f747000 	sqdmlsl	s0, h0, v4.h[3]
    187c:	73676572 	.inst	0x73676572 ; undefined
    1880:	64697000 	.inst	0x64697000 ; undefined
    1884:	78616d5f 	.inst	0x78616d5f ; undefined
    1888:	78616d5f 	.inst	0x78616d5f ; undefined
    188c:	6d697300 	ldp	d0, d28, [x24, #-368]
    1890:	5f656c70 	.inst	0x5f656c70 ; undefined
    1894:	746e6564 	.inst	0x746e6564 ; undefined
    1898:	6f5f7972 	.inst	0x6f5f7972 ; undefined
    189c:	61726570 	.inst	0x61726570 ; undefined
    18a0:	6e6f6974 	.inst	0x6e6f6974 ; undefined
    18a4:	5f5f0073 	.inst	0x5f5f0073 ; undefined
    18a8:	425f4453 	.inst	0x425f4453 ; undefined
    18ac:	4e414c41 	.inst	0x4e414c41 ; undefined
    18b0:	575f4543 	.inst	0x575f4543 ; undefined
    18b4:	00454b41 	.inst	0x00454b41 ; undefined
    18b8:	6e72656b 	umax	v11.8h, v11.8h, v18.8h
    18bc:	635f6c65 	.inst	0x635f6c65 ; undefined
    18c0:	735f7061 	.inst	0x735f7061 ; undefined
    18c4:	63757274 	.inst	0x63757274 ; undefined
    18c8:	4d4b0074 	.inst	0x4d4b0074 ; undefined
    18cc:	4f4c4c41 	.inst	0x4f4c4c41 ; undefined
    18d0:	47435f43 	.inst	0x47435f43 ; undefined
    18d4:	50554f52 	adr	x18, ac2be <blk_mq_init_sched+0xab366>
    18d8:	5f6d6d00 	.inst	0x5f6d6d00 ; undefined
    18dc:	6a626f6b 	bics	w11, w27, w2, lsr #27
    18e0:	6b6c6200 	.inst	0x6b6c6200 ; undefined
    18e4:	5f716d5f 	.inst	0x5f716d5f ; undefined
    18e8:	65686373 	fnmls	z19.h, p0/m, z27.h, z8.h
    18ec:	79625f64 	ldrh	w4, [x27, #4398]
    18f0:	73736170 	.inst	0x73736170 ; undefined
    18f4:	736e695f 	.inst	0x736e695f ; undefined
    18f8:	00747265 	.inst	0x00747265 ; undefined
    18fc:	414d554e 	.inst	0x414d554e ; undefined
    1900:	4741505f 	.inst	0x4741505f ; undefined
    1904:	494d5f45 	.inst	0x494d5f45 ; undefined
    1908:	54415247 	b.vc	84350 <blk_mq_init_sched+0x833f8>
    190c:	65730045 	fmla	z5.h, p0/m, z2.h, z19.h
    1910:	69625f74 	ldpsw	x20, x23, [x27, #-240]
    1914:	41540074 	.inst	0x41540074 ; undefined
    1918:	454c4b53 	.inst	0x454c4b53 ; undefined
    191c:	4f535f54 	.inst	0x4f535f54 ; undefined
    1920:	52495446 	.inst	0x52495446 ; undefined
    1924:	72740051 	.inst	0x72740051 ; undefined
    1928:	70656361 	adr	x1, cc597 <blk_mq_init_sched+0xcb63f>
    192c:	746e696f 	.inst	0x746e696f ; undefined
    1930:	74735f00 	.inst	0x74735f00 ; undefined
    1934:	00747865 	.inst	0x00747865 ; undefined
    1938:	75657571 	.inst	0x75657571 ; undefined
    193c:	6f6d0065 	mla	v5.8h, v3.8h, v13.h[2]
    1940:	656c7564 	fnmls	z4.h, p5/m, z11.h, z12.h
    1944:	7474615f 	.inst	0x7474615f ; undefined
    1948:	75626972 	.inst	0x75626972 ; undefined
    194c:	70006574 	adr	x20, 25fb <.debug_str+0x25fb>
    1950:	6d5f6469 	ldp	d9, d25, [x3, #496]
    1954:	5f007861 	.inst	0x5f007861 ; undefined
    1958:	5f44535f 	.inst	0x5f44535f ; undefined
    195c:	52414853 	.inst	0x52414853 ; undefined
    1960:	4b505f45 	sub	w5, w26, w16, lsr #23
    1964:	45525f47 	.inst	0x45525f47 ; undefined
    1968:	52554f53 	.inst	0x52554f53 ; undefined
    196c:	00534543 	.inst	0x00534543 ; undefined
    1970:	79685f5f 	ldrh	wzr, [x26, #5166]
    1974:	6f725f70 	.inst	0x6f725f70 ; undefined
    1978:	61746164 	.inst	0x61746164 ; undefined
    197c:	6174735f 	.inst	0x6174735f ; undefined
    1980:	72007472 	ands	w18, w3, #0x3fffffff
    1984:	715f6e75 	subs	w21, w19, #0x7db, lsl #12
    1988:	65756575 	fnmls	z21.h, p1/m, z11.h, z21.h
    198c:	7973615f 	ldrh	wzr, [x10, #6576]
    1990:	6c00636e 	stnp	d14, d24, [x27]
    1994:	78756e69 	.inst	0x78756e69 ; undefined
    1998:	6f72705f 	.inst	0x6f72705f ; undefined
    199c:	61625f63 	.inst	0x61625f63 ; undefined
    19a0:	72656e6e 	.inst	0x72656e6e ; undefined
    19a4:	78656e00 	.inst	0x78656e00 ; undefined
    19a8:	4c420074 	.inst	0x4c420074 ; undefined
    19ac:	514d5f4b 	sub	w11, w26, #0x357, lsl #12
    19b0:	545f535f 	.inst	0x545f535f ; undefined
    19b4:	415f4741 	.inst	0x415f4741 ; undefined
    19b8:	56495443 	.inst	0x56495443 ; undefined
    19bc:	5f5f0045 	.inst	0x5f5f0045 ; undefined
    19c0:	65717269 	fnmls	z9.h, p4/m, z19.h, z17.h
    19c4:	7972746e 	ldrh	w14, [x3, #6458]
    19c8:	7865745f 	.inst	0x7865745f ; undefined
    19cc:	74735f74 	.inst	0x74735f74 ; undefined
    19d0:	00747261 	.inst	0x00747261 ; undefined
    19d4:	61746f74 	.inst	0x61746f74 ; undefined
    19d8:	70635f6c 	adr	x12, c85c7 <blk_mq_init_sched+0xc766f>
    19dc:	76007375 	.inst	0x76007375 ; undefined
    19e0:	61665f6d 	.inst	0x61665f6d ; undefined
    19e4:	5f746c75 	.inst	0x5f746c75 ; undefined
    19e8:	47500074 	.inst	0x47500074 ; undefined
    19ec:	4e414353 	.inst	0x4e414353 ; undefined
    19f0:	4f4e415f 	.inst	0x4f4e415f ; undefined
    19f4:	5f5f004e 	.inst	0x5f5f004e ; undefined
    19f8:	63726570 	.inst	0x63726570 ; undefined
    19fc:	615f7570 	.inst	0x615f7570 ; undefined
    1a00:	635f6464 	.inst	0x635f6464 ; undefined
    1a04:	5f657361 	sqdmlsl	s1, h27, v5.h[2]
    1a08:	73003436 	.inst	0x73003436 ; undefined
    1a0c:	74637379 	.inst	0x74637379 ; undefined
    1a10:	61705f6c 	.inst	0x61705f6c ; undefined
    1a14:	5f63696e 	.inst	0x5f63696e ; undefined
    1a18:	725f6e6f 	.inst	0x725f6e6f ; undefined
    1a1c:	735f7563 	.inst	0x735f7563 ; undefined
    1a20:	6c6c6174 	ldnp	d20, d24, [x11, #-320]
    1a24:	4b4c4200 	sub	w0, w16, w12, lsr #16
    1a28:	5f514d5f 	.inst	0x5f514d5f ; undefined
    1a2c:	5f474154 	.inst	0x5f474154 ; undefined
    1a30:	0058414d 	.inst	0x0058414d ; undefined
    1a34:	5f504854 	.inst	0x5f504854 ; undefined
    1a38:	454c4946 	.inst	0x454c4946 ; undefined
    1a3c:	50414d5f 	adr	xzr, 843e6 <blk_mq_init_sched+0x8348e>
    1a40:	00444550 	.inst	0x00444550 ; undefined
    1a44:	63726570 	.inst	0x63726570 ; undefined
    1a48:	635f7570 	.inst	0x635f7570 ; undefined
    1a4c:	746e756f 	.inst	0x746e756f ; undefined
    1a50:	625f7265 	.inst	0x625f7265 ; undefined
    1a54:	68637461 	.inst	0x68637461 ; undefined
    1a58:	53595300 	.inst	0x53595300 ; undefined
    1a5c:	5f4d4554 	.inst	0x5f4d4554 ; undefined
    1a60:	544c4148 	b.hi	9a288 <blk_mq_init_sched+0x99330>  // b.pmore
    1a64:	63697400 	.inst	0x63697400 ; undefined
    1a68:	70635f6b 	adr	x11, c8657 <blk_mq_init_sched+0xc76ff>
    1a6c:	65645f75 	fnmla	z21.h, p7/m, z27.h, z4.h
    1a70:	65636976 	fnmls	z22.h, p2/m, z11.h, z3.h
    1a74:	53475000 	.inst	0x53475000 ; undefined
    1a78:	4c414554 	.inst	0x4c414554 ; undefined
    1a7c:	5249445f 	.inst	0x5249445f ; undefined
    1a80:	00544345 	.inst	0x00544345 ; undefined
    1a84:	51455352 	sub	w18, w26, #0x154, lsl #12
    1a88:	5f53435f 	.inst	0x5f53435f ; undefined
    1a8c:	47414c46 	.inst	0x47414c46 ; undefined
    1a90:	5f4f4e5f 	.inst	0x5f4f4e5f ; undefined
    1a94:	54534552 	.inst	0x54534552 ; undefined
    1a98:	5f545241 	.inst	0x5f545241 ; undefined
    1a9c:	4d5f4e4f 	.inst	0x4d5f4e4f ; undefined
    1aa0:	41524749 	.inst	0x41524749 ; undefined
    1aa4:	425f4554 	.inst	0x425f4554 ; undefined
    1aa8:	5f005449 	.inst	0x5f005449 ; undefined
    1aac:	6c6f6f42 	ldnp	d2, d27, [x26, #-272]
    1ab0:	6e696d00 	umin	v0.8h, v8.8h, v9.8h
    1ab4:	6572665f 	fnmls	z31.h, p1/m, z18.h, z18.h
    1ab8:	626b5f65 	.inst	0x626b5f65 ; undefined
    1abc:	73657479 	.inst	0x73657479 ; undefined
    1ac0:	6f706500 	sqshlu	v0.2d, v8.2d, #48
    1ac4:	745f6c6c 	.inst	0x745f6c6c ; undefined
    1ac8:	656c6261 	fnmls	z1.h, p0/m, z19.h, z12.h
    1acc:	4d554e00 	.inst	0x4d554e00 ; undefined
    1ad0:	55485f41 	.inst	0x55485f41 ; undefined
    1ad4:	505f4547 	adr	x7, c037e <blk_mq_init_sched+0xbf426>
    1ad8:	555f4554 	.inst	0x555f4554 ; undefined
    1adc:	54414450 	.inst	0x54414450 ; undefined
    1ae0:	62005345 	.inst	0x62005345 ; undefined
    1ae4:	6d5f6b6c 	ldp	d12, d26, [x27, #496]
    1ae8:	69645f71 	ldpsw	x17, x23, [x27, #-224]
    1aec:	74617073 	.inst	0x74617073 ; undefined
    1af0:	685f6863 	.inst	0x685f6863 ; undefined
    1af4:	5f787463 	sqshl	d3, d3, #56
    1af8:	7473696c 	.inst	0x7473696c ; undefined
    1afc:	646f7200 	.inst	0x646f7200 ; undefined
    1b00:	5f617461 	sqshl	d1, d3, #33
    1b04:	62616e65 	.inst	0x62616e65 ; undefined
    1b08:	0064656c 	.inst	0x0064656c ; undefined
    1b0c:	74737973 	.inst	0x74737973 ; undefined
    1b10:	735f6d65 	.inst	0x735f6d65 ; undefined
    1b14:	65746174 	fnmls	z20.h, p0/m, z11.h, z20.h
    1b18:	52480073 	.inst	0x52480073 ; undefined
    1b1c:	454d4954 	.inst	0x454d4954 ; undefined
    1b20:	41425f52 	.inst	0x41425f52 ; undefined
    1b24:	525f4553 	.inst	0x525f4553 ; undefined
    1b28:	544c4145 	b.pl	9a350 <blk_mq_init_sched+0x993f8>  // b.nfrst
    1b2c:	5f454d49 	.inst	0x5f454d49 ; undefined
    1b30:	54464f53 	.inst	0x54464f53 ; undefined
    1b34:	6d5f5f00 	ldp	d0, d23, [x24, #496]
    1b38:	666f756d 	.inst	0x666f756d ; undefined
    1b3c:	61645f66 	.inst	0x61645f66 ; undefined
    1b40:	735f6174 	.inst	0x735f6174 ; undefined
    1b44:	74726174 	.inst	0x74726174 ; undefined
    1b48:	61747300 	.inst	0x61747300 ; undefined
    1b4c:	5f636974 	.inst	0x5f636974 ; undefined
    1b50:	5f79656b 	.inst	0x5f79656b ; undefined
    1b54:	65757274 	fnmls	z20.h, p4/m, z19.h, z21.h
    1b58:	5f524e00 	.inst	0x5f524e00 ; undefined
    1b5c:	454c4946 	.inst	0x454c4946 ; undefined
    1b60:	5048545f 	adr	xzr, 925ea <blk_mq_init_sched+0x91692>
    1b64:	6c620053 	ldnp	d19, d0, [x2, #-480]
    1b68:	6172746b 	.inst	0x6172746b ; undefined
    1b6c:	615f6563 	.inst	0x615f6563 ; undefined
    1b70:	73007463 	.inst	0x73007463 ; undefined
    1b74:	74637379 	.inst	0x74637379 ; undefined
    1b78:	6d765f6c 	ldp	d12, d23, [x27, #-160]
    1b7c:	6d756e5f 	ldp	d31, d27, [x18, #-176]
    1b80:	74735f61 	.inst	0x74735f61 ; undefined
    1b84:	73007461 	.inst	0x73007461 ; undefined
    1b88:	6d5f6576 	ldp	d22, d25, [x11, #496]
    1b8c:	765f7861 	.inst	0x765f7861 ; undefined
    1b90:	4c42006c 	.inst	0x4c42006c ; undefined
    1b94:	514d5f4b 	sub	w11, w26, #0x357, lsl #12
    1b98:	5550435f 	.inst	0x5550435f ; undefined
    1b9c:	524f575f 	.inst	0x524f575f ; undefined
    1ba0:	41425f4b 	.inst	0x41425f4b ; undefined
    1ba4:	00484354 	.inst	0x00484354 ; undefined
    1ba8:	43534750 	.inst	0x43534750 ; undefined
    1bac:	535f4e41 	.inst	0x535f4e41 ; undefined
    1bb0:	5f50494b 	.inst	0x5f50494b ; undefined
    1bb4:	33414d44 	.inst	0x33414d44 ; undefined
    1bb8:	4f570032 	.inst	0x4f570032 ; undefined
    1bbc:	4e494b52 	.inst	0x4e494b52 ; undefined
    1bc0:	54455347 	b.vc	8c628 <blk_mq_init_sched+0x8b6d0>
    1bc4:	4645525f 	.inst	0x4645525f ; undefined
    1bc8:	544c5541 	b.ne	9a670 <blk_mq_init_sched+0x99718>  // b.any
    1bcc:	4c49465f 	.inst	0x4c49465f ; undefined
    1bd0:	6f690045 	mla	v5.8h, v2.8h, v9.h[2]
    1bd4:	0071635f 	.inst	0x0071635f ; undefined
    1bd8:	79685f5f 	ldrh	wzr, [x26, #5166]
    1bdc:	73625f70 	.inst	0x73625f70 ; undefined
    1be0:	6e655f73 	uqrshl	v19.8h, v27.8h, v5.8h
    1be4:	5f5f0064 	.inst	0x5f5f0064 ; undefined
    1be8:	5f4b4c42 	.inst	0x5f4b4c42 ; undefined
    1bec:	525f4154 	.inst	0x525f4154 ; undefined
    1bf0:	45555145 	.inst	0x45555145 ; undefined
    1bf4:	6e004555 	.inst	0x6e004555 ; undefined
    1bf8:	73656d61 	.inst	0x73656d61 ; undefined
    1bfc:	6361635f 	.inst	0x6361635f ; undefined
    1c00:	00706568 	.inst	0x00706568 ; undefined
    1c04:	685f7461 	.inst	0x685f7461 ; undefined
    1c08:	00646165 	.inst	0x00646165 ; undefined
    1c0c:	5f504854 	.inst	0x5f504854 ; undefined
    1c10:	4c4c4f43 	.inst	0x4c4c4f43 ; undefined
    1c14:	45535041 	.inst	0x45535041 ; undefined
    1c18:	4c4c415f 	.inst	0x4c4c415f ; undefined
    1c1c:	6800434f 	.inst	0x6800434f ; undefined
    1c20:	735f7361 	.inst	0x735f7361 ; undefined
    1c24:	64656863 	.inst	0x64656863 ; undefined
    1c28:	6c5f5f00 	ldnp	d0, d23, [x24, #496]
    1c2c:	615f6573 	.inst	0x615f6573 ; undefined
    1c30:	696d6f74 	ldpsw	x20, x27, [x27, #-152]
    1c34:	5f343663 	.inst	0x5f343663 ; undefined
    1c38:	00646461 	.inst	0x00646461 ; undefined
    1c3c:	7267696d 	.inst	0x7267696d ; undefined
    1c40:	74657461 	.inst	0x74657461 ; undefined
    1c44:	5f657079 	sqdmlsl	s25, h3, v5.h[2]
    1c48:	656d616e 	fnmls	z14.h, p0/m, z11.h, z13.h
    1c4c:	554e0073 	.inst	0x554e0073 ; undefined
    1c50:	4c5f414d 	.inst	0x4c5f414d ; undefined
    1c54:	4c41434f 	.inst	0x4c41434f ; undefined
    1c58:	5f646900 	.inst	0x5f646900 ; undefined
    1c5c:	34366161 	cbz	w1, 6e888 <blk_mq_init_sched+0x6d930>
    1c60:	72666d6d 	.inst	0x72666d6d ; undefined
    1c64:	766f5f31 	.inst	0x766f5f31 ; undefined
    1c68:	69727265 	ldpsw	x5, x28, [x19, #-112]
    1c6c:	5f006564 	.inst	0x5f006564 ; undefined
    1c70:	7265705f 	.inst	0x7265705f ; undefined
    1c74:	7570635f 	.inst	0x7570635f ; undefined
    1c78:	6174735f 	.inst	0x6174735f ; undefined
    1c7c:	72007472 	ands	w18, w3, #0x3fffffff
    1c80:	6e5f7563 	.inst	0x6e5f7563 ; undefined
    1c84:	616d726f 	.inst	0x616d726f ; undefined
    1c88:	524c006c 	.inst	0x524c006c ; undefined
    1c8c:	4e495f55 	.inst	0x4e495f55 ; undefined
    1c90:	49544341 	.inst	0x49544341 ; undefined
    1c94:	465f4556 	.inst	0x465f4556 ; undefined
    1c98:	00454c49 	.inst	0x00454c49 ; undefined
    1c9c:	4c4c4142 	.inst	0x4c4c4142 ; undefined
    1ca0:	5f4e4f4f 	.inst	0x5f4e4f4f ; undefined
    1ca4:	5247494d 	.inst	0x5247494d ; undefined
    1ca8:	00455441 	.inst	0x00455441 ; undefined
    1cac:	63726f66 	.inst	0x63726f66 ; undefined
    1cb0:	72695f65 	.inst	0x72695f65 ; undefined
    1cb4:	72687471 	.inst	0x72687471 ; undefined
    1cb8:	73646165 	.inst	0x73646165 ; undefined
    1cbc:	79656b5f 	ldrh	wzr, [x26, #4788]
    1cc0:	635f5f00 	.inst	0x635f5f00 ; undefined
    1cc4:	69706d6f 	ldpsw	x15, x27, [x11, #-128]
    1cc8:	6974656c 	ldpsw	x12, x25, [x11, #-96]
    1ccc:	615f656d 	.inst	0x615f656d ; undefined
    1cd0:	72657373 	.inst	0x72657373 ; undefined
    1cd4:	31345f74 	adds	w20, w27, #0xd17
    1cd8:	63720034 	.inst	0x63720034 ; undefined
    1cdc:	6f6c5f75 	.inst	0x6f6c5f75 ; undefined
    1ce0:	6d5f6b63 	ldp	d3, d26, [x27, #496]
    1ce4:	5f007061 	.inst	0x5f007061 ; undefined
    1ce8:	6d64695f 	ldp	d31, d26, [x10, #-448]
    1cec:	745f7061 	.inst	0x745f7061 ; undefined
    1cf0:	5f747865 	sqdmlsl	s5, h3, v4.h[7]
    1cf4:	72617473 	.inst	0x72617473 ; undefined
    1cf8:	63730074 	.inst	0x63730074 ; undefined
    1cfc:	5f646568 	.inst	0x5f646568 ; undefined
    1d00:	635f7172 	.inst	0x635f7172 ; undefined
    1d04:	6a00706d 	ands	w13, w3, w0, lsl #28
    1d08:	69666669 	ldpsw	x9, x25, [x19, #-208]
    1d0c:	365f7365 	tbz	w5, #11, b78 <.debug_str+0xb78>
    1d10:	65640034 	fmla	z20.h, p0/m, z1.h, z4.h
    1d14:	74615f76 	.inst	0x74615f76 ; undefined
    1d18:	655f7274 	fcmne	p4.h, p4/z, z19.h, z31.h
    1d1c:	746e6576 	.inst	0x746e6576 ; undefined
    1d20:	4c420073 	.inst	0x4c420073 ; undefined
    1d24:	514d5f4b 	sub	w11, w26, #0x357, lsl #12
    1d28:	425f465f 	.inst	0x425f465f ; undefined
    1d2c:	4b434f4c 	sub	w12, w26, w3, lsr #19
    1d30:	00474e49 	.inst	0x00474e49 ; undefined
    1d34:	63737973 	.inst	0x63737973 ; undefined
    1d38:	705f6c74 	adr	x20, c0ac7 <blk_mq_init_sched+0xbfb6f>
    1d3c:	65746f72 	fnmls	z18.h, p3/m, z27.h, z20.h
    1d40:	64657463 	.inst	0x64657463 ; undefined
    1d44:	6669665f 	.inst	0x6669665f ; undefined
    1d48:	7000736f 	adr	x15, 2bb7 <.debug_str+0x2bb7>
    1d4c:	6d5f6469 	ldp	d9, d25, [x3, #496]
    1d50:	6d5f7861 	ldp	d1, d30, [x3, #496]
    1d54:	73006e69 	.inst	0x73006e69 ; undefined
    1d58:	6e6f6365 	rsubhn2	v5.8h, v27.4s, v15.4s
    1d5c:	79726164 	ldrh	w4, [x11, #6448]
    1d60:	7461645f 	.inst	0x7461645f ; undefined
    1d64:	6d6b0061 	ldp	d1, d0, [x3, #-336]
    1d68:	665f6773 	.inst	0x665f6773 ; undefined
    1d6c:	0073706f 	.inst	0x0073706f ; undefined
    1d70:	61726170 	.inst	0x61726170 ; undefined
    1d74:	706f5f6d 	adr	x13, e0963 <blk_mq_init_sched+0xdfa0b>
    1d78:	69755f73 	ldpsw	x19, x23, [x27, #-88]
    1d7c:	5f00746e 	.inst	0x5f00746e ; undefined
    1d80:	5f6c6c5f 	.inst	0x5f6c6c5f ; undefined
    1d84:	615f6373 	.inst	0x615f6373 ; undefined
    1d88:	696d6f74 	ldpsw	x20, x27, [x27, #-152]
    1d8c:	5f343663 	.inst	0x5f343663 ; undefined
    1d90:	6e646e61 	umin	v1.8h, v19.8h, v4.8h
    1d94:	6300746f 	.inst	0x6300746f ; undefined
    1d98:	70687570 	adr	x16, d2c47 <blk_mq_init_sched+0xd1cef>
    1d9c:	7361745f 	.inst	0x7361745f ; undefined
    1da0:	665f736b 	.inst	0x665f736b ; undefined
    1da4:	657a6f72 	fnmls	z18.h, p3/m, z27.h, z26.h
    1da8:	5f4e006e 	.inst	0x5f4e006e ; undefined
    1dac:	454e4547 	.inst	0x454e4547 ; undefined
    1db0:	5f434952 	.inst	0x5f434952 ; undefined
    1db4:	54494e49 	b.ls	9477c <blk_mq_init_sched+0x93824>  // b.plast
    1db8:	4f544149 	.inst	0x4f544149 ; undefined
    1dbc:	6e690052 	uaddl2	v18.4s, v2.8h, v9.8h
    1dc0:	705f7469 	adr	x9, c0c4f <blk_mq_init_sched+0xbfcf7>
    1dc4:	6e655f67 	uqrshl	v7.8h, v27.8h, v5.8h
    1dc8:	67700064 	.inst	0x67700064 ; undefined
    1dcc:	00745f64 	.inst	0x00745f64 ; undefined
    1dd0:	696e6170 	ldpsw	x16, x24, [x11, #-144]
    1dd4:	6e6f5f63 	uqrshl	v3.8h, v27.8h, v15.8h
    1dd8:	6961745f 	ldpsw	xzr, x29, [x2, #-248]
    1ddc:	6e5f746e 	.inst	0x6e5f746e ; undefined
    1de0:	6573756f 	fnmls	z15.h, p5/m, z11.h, z19.h
    1de4:	69617472 	ldpsw	x18, x29, [x3, #-248]
    1de8:	5f00746e 	.inst	0x5f00746e ; undefined
    1dec:	6f74735f 	.inst	0x6f74735f ; undefined
    1df0:	5f5f5f70 	.inst	0x5f5f5f70 ; undefined
    1df4:	61726170 	.inst	0x61726170 ; undefined
    1df8:	5f5f006d 	.inst	0x5f5f006d ; undefined
    1dfc:	61736f6e 	.inst	0x61736f6e ; undefined
    1e00:	625f6576 	.inst	0x625f6576 ; undefined
    1e04:	6e696765 	umax	v5.8h, v27.8h, v9.8h
    1e08:	685f5f00 	.inst	0x685f5f00 ; undefined
    1e0c:	725f7079 	.inst	0x725f7079 ; undefined
    1e10:	636f6c65 	.inst	0x636f6c65 ; undefined
    1e14:	646e655f 	.inst	0x646e655f ; undefined
    1e18:	6f727000 	.inst	0x6f727000 ; undefined
    1e1c:	6c5f6576 	ldnp	d22, d25, [x11, #496]
    1e20:	696b636f 	ldpsw	x15, x24, [x27, #-168]
    1e24:	4400676e 	.inst	0x4400676e ; undefined
    1e28:	5f545351 	.inst	0x5f545351 ; undefined
    1e2c:	54495257 	.inst	0x54495257 ; undefined
    1e30:	70005345 	adr	x5, 289b <.debug_str+0x289b>
    1e34:	63696e61 	.inst	0x63696e61 ; undefined
    1e38:	6972705f 	ldpsw	xzr, x28, [x2, #-112]
    1e3c:	6900746e 	.inst	0x6900746e ; undefined
    1e40:	5f74696e 	.inst	0x5f74696e ; undefined
    1e44:	72657375 	.inst	0x72657375 ; undefined
    1e48:	00736e5f 	.inst	0x00736e5f ; undefined
    1e4c:	6f6c7772 	uqshl	v18.2d, v27.2d, #44
    1e50:	745f6b63 	.inst	0x745f6b63 ; undefined
    1e54:	5f6d7600 	sqshl	d0, d16, #45
    1e58:	6e657665 	uabd	v5.8h, v19.8h, v5.8h
    1e5c:	74735f74 	.inst	0x74735f74 ; undefined
    1e60:	73657461 	.inst	0x73657461 ; undefined
    1e64:	4b4c4200 	sub	w0, w16, w12, lsr #16
    1e68:	5f514d5f 	.inst	0x5f514d5f ; undefined
    1e6c:	5f474154 	.inst	0x5f474154 ; undefined
    1e70:	004e494d 	.inst	0x004e494d ; undefined
    1e74:	44414552 	.inst	0x44414552 ; undefined
    1e78:	504d495f 	adr	xzr, 9c7a2 <blk_mq_init_sched+0x9b84a>
    1e7c:	5345494c 	.inst	0x5345494c ; undefined
    1e80:	4558455f 	.inst	0x4558455f ; undefined
    1e84:	57530043 	.inst	0x57530043 ; undefined
    1e88:	525f5041 	.inst	0x525f5041 ; undefined
    1e8c:	49485f41 	.inst	0x49485f41 ; undefined
    1e90:	6f770054 	mla	v20.8h, v2.8h, v7.h[3]
    1e94:	75716b72 	.inst	0x75716b72 ; undefined
    1e98:	5f657565 	sqshl	d5, d11, #37
    1e9c:	75727473 	.inst	0x75727473 ; undefined
    1ea0:	44007463 	.inst	0x44007463 ; undefined
    1ea4:	5f545351 	.inst	0x5f545351 ; undefined
    1ea8:	4f4c4c41 	.inst	0x4f4c4c41 ; undefined
    1eac:	51445f43 	sub	w3, w26, #0x117, lsl #12
    1eb0:	53544f55 	.inst	0x53544f55 ; undefined
    1eb4:	635f5f00 	.inst	0x635f5f00 ; undefined
    1eb8:	69706d6f 	ldpsw	x15, x27, [x11, #-128]
    1ebc:	6974656c 	ldpsw	x12, x25, [x11, #-96]
    1ec0:	615f656d 	.inst	0x615f656d ; undefined
    1ec4:	72657373 	.inst	0x72657373 ; undefined
    1ec8:	31315f74 	adds	w20, w27, #0xc57
    1ecc:	5f5f0032 	.inst	0x5f5f0032 ; undefined
    1ed0:	706d6f63 	adr	x3, dccbf <blk_mq_init_sched+0xdbd67>
    1ed4:	74656c69 	.inst	0x74656c69 ; undefined
    1ed8:	5f656d69 	.inst	0x5f656d69 ; undefined
    1edc:	65737361 	fnmls	z1.h, p4/m, z27.h, z19.h
    1ee0:	315f7472 	adds	w18, w3, #0x7dd, lsl #12
    1ee4:	5f003331 	.inst	0x5f003331 ; undefined
    1ee8:	6d6f635f 	ldp	d31, d24, [x26, #-272]
    1eec:	656c6970 	fnmls	z16.h, p2/m, z11.h, z12.h
    1ef0:	656d6974 	fnmls	z20.h, p2/m, z11.h, z13.h
    1ef4:	7373615f 	.inst	0x7373615f ; undefined
    1ef8:	5f747265 	sqdmlsl	s5, h19, v4.h[3]
    1efc:	00353131 	.inst	0x00353131 ; NYI
    1f00:	6f635f5f 	.inst	0x6f635f5f ; undefined
    1f04:	6c69706d 	ldnp	d13, d28, [x3, #-368]
    1f08:	6d697465 	ldp	d5, d29, [x3, #-368]
    1f0c:	73615f65 	.inst	0x73615f65 ; undefined
    1f10:	74726573 	.inst	0x74726573 ; undefined
    1f14:	3731315f 	tbnz	wzr, #6, 453c <.debug_str+0x453c>
    1f18:	41545300 	.inst	0x41545300 ; undefined
    1f1c:	4c465f54 	.inst	0x4c465f54 ; undefined
    1f20:	00485355 	.inst	0x00485355 ; undefined
    1f24:	7270736e 	.inst	0x7270736e ; undefined
    1f28:	0079786f 	.inst	0x0079786f ; undefined
    1f2c:	646e6172 	.inst	0x646e6172 ; undefined
    1f30:	745f6d6f 	.inst	0x745f6d6f ; undefined
    1f34:	656c6261 	fnmls	z1.h, p0/m, z19.h, z12.h
    1f38:	505f5f00 	adr	x0, c0b1a <blk_mq_init_sched+0xbfbc2>
    1f3c:	50435245 	adr	x5, 88986 <blk_mq_init_sched+0x87a2e>
    1f40:	45525f55 	.inst	0x45525f55 ; undefined
    1f44:	45445f46 	.inst	0x45445f46 ; undefined
    1f48:	4e004441 	.inst	0x4e004441 ; undefined
    1f4c:	5f414d55 	.inst	0x5f414d55 ; undefined
    1f50:	45544e49 	.inst	0x45544e49 ; undefined
    1f54:	41454c52 	.inst	0x41454c52 ; undefined
    1f58:	485f4556 	ldxrh	w22, [x10]
    1f5c:	68005449 	.inst	0x68005449 ; undefined
    1f60:	615f7865 	.inst	0x615f7865 ; undefined
    1f64:	5f006373 	.inst	0x5f006373 ; undefined
    1f68:	5f44535f 	.inst	0x5f44535f ; undefined
    1f6c:	52414853 	.inst	0x52414853 ; undefined
    1f70:	50435f45 	adr	x5, 88b5a <blk_mq_init_sched+0x87c02>
    1f74:	50414355 	adr	x21, 847de <blk_mq_init_sched+0x83886>
    1f78:	54494341 	b.ne	947e0 <blk_mq_init_sched+0x93888>  // b.any
    1f7c:	5f5f0059 	.inst	0x5f5f0059 ; undefined
    1f80:	5f514552 	.inst	0x5f514552 ; undefined
    1f84:	46455250 	.inst	0x46455250 ; undefined
    1f88:	4853554c 	ldxrh	w12, [x10]
    1f8c:	5f524e00 	.inst	0x5f524e00 ; undefined
    1f90:	42414c53 	.inst	0x42414c53 ; undefined
    1f94:	524e555f 	.inst	0x524e555f ; undefined
    1f98:	414c4345 	.inst	0x414c4345 ; undefined
    1f9c:	42414d49 	.inst	0x42414d49 ; undefined
    1fa0:	425f454c 	.inst	0x425f454c ; undefined
    1fa4:	636d7300 	.inst	0x636d7300 ; undefined
    1fa8:	685f6363 	.inst	0x685f6363 ; undefined
    1fac:	735f7361 	.inst	0x735f7361 ; undefined
    1fb0:	685f6576 	.inst	0x685f6576 ; undefined
    1fb4:	00746e69 	.inst	0x00746e69 ; undefined
    1fb8:	414d554e 	.inst	0x414d554e ; undefined
    1fbc:	5449485f 	.inst	0x5449485f ; undefined
    1fc0:	63697400 	.inst	0x63697400 ; undefined
    1fc4:	736e5f6b 	.inst	0x736e5f6b ; undefined
    1fc8:	70006365 	adr	x5, 2c37 <.debug_str+0x2c37>
    1fcc:	6d617261 	ldp	d1, d28, [x19, #-496]
    1fd0:	73706f5f 	.inst	0x73706f5f ; undefined
    1fd4:	6f6f625f 	umlsl2	v31.4s, v18.8h, v15.h[2]
    1fd8:	5f5f006c 	.inst	0x5f5f006c ; undefined
    1fdc:	5f646e65 	.inst	0x5f646e65 ; undefined
    1fe0:	65636e6f 	fnmls	z15.h, p3/m, z19.h, z3.h
    1fe4:	72617000 	.inst	0x72617000 ; undefined
    1fe8:	6f5f6d61 	.inst	0x6f5f6d61 ; undefined
    1fec:	755f7370 	.inst	0x755f7370 ; undefined
    1ff0:	676e6f6c 	.inst	0x676e6f6c ; undefined
    1ff4:	696e6900 	ldpsw	x0, x26, [x8, #-144]
    1ff8:	6e6f5f74 	uqrshl	v20.8h, v27.8h, v15.8h
    1ffc:	6c6c615f 	ldnp	d31, d24, [x10, #-320]
    2000:	5f00636f 	.inst	0x5f00636f ; undefined
    2004:	4b4c425f 	sub	wzr, w18, w12, lsr #16
    2008:	5f41545f 	shl	d31, d2, #1
    200c:	504d4f43 	adr	x3, 9c9f6 <blk_mq_init_sched+0x9ba9e>
    2010:	4554454c 	.inst	0x4554454c ; undefined
    2014:	635f5f00 	.inst	0x635f5f00 ; undefined
    2018:	69706d6f 	ldpsw	x15, x27, [x11, #-128]
    201c:	6974656c 	ldpsw	x12, x25, [x11, #-96]
    2020:	615f656d 	.inst	0x615f656d ; undefined
    2024:	72657373 	.inst	0x72657373 ; undefined
    2028:	33315f74 	.inst	0x33315f74 ; undefined
    202c:	5f5f0037 	.inst	0x5f5f0037 ; undefined
    2030:	706d6f63 	adr	x3, dce1f <blk_mq_init_sched+0xdbec7>
    2034:	74656c69 	.inst	0x74656c69 ; undefined
    2038:	5f656d69 	.inst	0x5f656d69 ; undefined
    203c:	65737361 	fnmls	z1.h, p4/m, z27.h, z19.h
    2040:	315f7472 	adds	w18, w3, #0x7dd, lsl #12
    2044:	53003833 	ubfx	w19, w1, #0, #15
    2048:	44454843 	.inst	0x44454843 ; undefined
    204c:	464f535f 	.inst	0x464f535f ; undefined
    2050:	51524954 	sub	w20, w10, #0x492, lsl #12
    2054:	735f5f00 	.inst	0x735f5f00 ; undefined
    2058:	74726174 	.inst	0x74726174 ; undefined
    205c:	705f5f5f 	adr	xzr, c0c47 <blk_mq_init_sched+0xbfcef>
    2060:	6d617261 	ldp	d1, d28, [x19, #-496]
    2064:	73616800 	.inst	0x73616800 ; undefined
    2068:	73696468 	.inst	0x73696468 ; undefined
    206c:	65700074 	fmla	z20.h, p0/m, z3.h, z16.h
    2070:	75706372 	.inst	0x75706372 ; undefined
    2074:	6665725f 	.inst	0x6665725f ; undefined
    2078:	7465675f 	.inst	0x7465675f ; undefined
    207c:	6e616d5f 	umin	v31.8h, v10.8h, v1.8h
    2080:	656d0079 	fmla	z25.h, p0/m, z3.h, z13.h
    2084:	65735f6d 	fnmla	z13.h, p7/m, z27.h, z19.h
    2088:	6f697463 	uqshl	v3.2d, v3.2d, #41
    208c:	6d76006e 	ldp	d14, d0, [x3, #-160]
    2090:	646f6e5f 	.inst	0x646f6e5f ; undefined
    2094:	74735f65 	.inst	0x74735f65 ; undefined
    2098:	5f007461 	.inst	0x5f007461 ; undefined
    209c:	4b4c425f 	sub	wzr, w18, w12, lsr #16
    20a0:	5f41545f 	shl	d31, d2, #1
    20a4:	524f4241 	.inst	0x524f4241 ; undefined
    20a8:	61740054 	.inst	0x61740054 ; undefined
    20ac:	696c6b73 	ldpsw	x19, x26, [x27, #-160]
    20b0:	6c5f7473 	ldnp	d19, d29, [x3, #496]
    20b4:	006b636f 	.inst	0x006b636f ; undefined
    20b8:	414d554e 	.inst	0x414d554e ; undefined
    20bc:	524f465f 	.inst	0x524f465f ; undefined
    20c0:	4e474945 	.inst	0x4e474945 ; undefined
    20c4:	6c696600 	ldnp	d0, d25, [x16, #-368]
    20c8:	706f5f65 	adr	x5, e0cb7 <blk_mq_init_sched+0xdfd5f>
    20cc:	74617265 	.inst	0x74617265 ; undefined
    20d0:	736e6f69 	.inst	0x736e6f69 ; undefined
    20d4:	65645f00 	fnmla	z0.h, p7/m, z24.h, z4.h
    20d8:	5f677562 	sqshl	d2, d11, #39
    20dc:	65676170 	fnmls	z16.h, p0/m, z11.h, z7.h
    20e0:	6f6c6c61 	.inst	0x6f6c6c61 ; undefined
    20e4:	6e655f63 	uqrshl	v3.8h, v27.8h, v5.8h
    20e8:	656c6261 	fnmls	z1.h, p0/m, z19.h, z12.h
    20ec:	6c620064 	ldnp	d4, d0, [x3, #-480]
    20f0:	716d5f6b 	subs	w11, w27, #0xb57, lsl #12
    20f4:	6978655f 	ldpsw	xzr, x25, [x10, #-64]
    20f8:	63735f74 	.inst	0x63735f74 ; undefined
    20fc:	00646568 	.inst	0x00646568 ; undefined
    2100:	6f635f5f 	.inst	0x6f635f5f ; undefined
    2104:	6c69706d 	ldnp	d13, d28, [x3, #-368]
    2108:	6d697465 	ldp	d5, d29, [x3, #-368]
    210c:	73615f65 	.inst	0x73615f65 ; undefined
    2110:	74726573 	.inst	0x74726573 ; undefined
    2114:	3134315f 	cmn	w10, #0xd0c
    2118:	635f5f00 	.inst	0x635f5f00 ; undefined
    211c:	69706d6f 	ldpsw	x15, x27, [x11, #-128]
    2120:	6974656c 	ldpsw	x12, x25, [x11, #-96]
    2124:	615f656d 	.inst	0x615f656d ; undefined
    2128:	72657373 	.inst	0x72657373 ; undefined
    212c:	34315f74 	cbz	w20, 64d18 <blk_mq_init_sched+0x63dc0>
    2130:	5f5f0032 	.inst	0x5f5f0032 ; undefined
    2134:	706d6f63 	adr	x3, dcf23 <blk_mq_init_sched+0xdbfcb>
    2138:	74656c69 	.inst	0x74656c69 ; undefined
    213c:	5f656d69 	.inst	0x5f656d69 ; undefined
    2140:	65737361 	fnmls	z1.h, p4/m, z27.h, z19.h
    2144:	315f7472 	adds	w18, w3, #0x7dd, lsl #12
    2148:	5f003334 	.inst	0x5f003334 ; undefined
    214c:	6f74635f 	umlsl2	v31.4s, v26.8h, v4.h[3]
    2150:	735f7372 	.inst	0x735f7372 ; undefined
    2154:	74726174 	.inst	0x74726174 ; undefined
    2158:	4c414200 	.inst	0x4c414200 ; undefined
    215c:	4e4f4f4c 	.inst	0x4e4f4f4c ; undefined
    2160:	4645445f 	.inst	0x4645445f ; undefined
    2164:	4554414c 	.inst	0x4554414c ; undefined
    2168:	535f5f00 	.inst	0x535f5f00 ; undefined
    216c:	4c465f44 	.inst	0x4c465f44 ; undefined
    2170:	435f4741 	.inst	0x435f4741 ; undefined
    2174:	6700544e 	.inst	0x6700544e ; undefined
    2178:	5f646975 	.inst	0x5f646975 ; undefined
    217c:	65646e69 	fnmls	z9.h, p3/m, z19.h, z4.h
    2180:	6c730078 	ldnp	d24, d0, [x3, #-208]
    2184:	5f687361 	sqdmlsl	s1, h27, v8.h[2]
    2188:	656d616e 	fnmls	z14.h, p0/m, z11.h, z13.h
    218c:	73756200 	.inst	0x73756200 ; undefined
    2190:	61700079 	.inst	0x61700079 ; undefined
    2194:	48006567 	stxrh	w0, w7, [x11]
    2198:	4d495452 	.inst	0x4d495452 ; undefined
    219c:	425f5245 	.inst	0x425f5245 ; undefined
    21a0:	5f455341 	.inst	0x5f455341 ; undefined
    21a4:	5f494154 	.inst	0x5f494154 ; undefined
    21a8:	54464f53 	.inst	0x54464f53 ; undefined
    21ac:	63726100 	.inst	0x63726100 ; undefined
    21b0:	69745f68 	ldpsw	x8, x23, [x27, #-96]
    21b4:	5f72656d 	.inst	0x5f72656d ; undefined
    21b8:	61727265 	.inst	0x61727265 ; undefined
    21bc:	5f6d7574 	sqshl	d20, d11, #45
    21c0:	6b726f77 	.inst	0x6b726f77 ; undefined
    21c4:	756f7261 	.inst	0x756f7261 ; undefined
    21c8:	7300646e 	.inst	0x7300646e ; undefined
    21cc:	61686769 	.inst	0x61686769 ; undefined
    21d0:	635f646e 	.inst	0x635f646e ; undefined
    21d4:	65686361 	fnmls	z1.h, p0/m, z27.h, z8.h
    21d8:	524e0070 	.inst	0x524e0070 ; undefined
    21dc:	4154535f 	.inst	0x4154535f ; undefined
    21e0:	52475f54 	.inst	0x52475f54 ; undefined
    21e4:	5350554f 	.inst	0x5350554f ; undefined
    21e8:	72657000 	.inst	0x72657000 ; undefined
    21ec:	74736973 	.inst	0x74736973 ; undefined
    21f0:	5f746e65 	.inst	0x5f746e65 ; undefined
    21f4:	636f6c63 	.inst	0x636f6c63 ; undefined
    21f8:	73695f6b 	.inst	0x73695f6b ; undefined
    21fc:	636f6c5f 	.inst	0x636f6c5f ; undefined
    2200:	4e006c61 	.inst	0x4e006c61 ; undefined
    2204:	4749485f 	.inst	0x4749485f ; undefined
    2208:	454d5f48 	.inst	0x454d5f48 ; undefined
    220c:	59524f4d 	.inst	0x59524f4d ; undefined
    2210:	72656b00 	.inst	0x72656b00 ; undefined
    2214:	5f6c656e 	.inst	0x5f6c656e ; undefined
    2218:	6a626f6b 	bics	w11, w27, w2, lsr #27
    221c:	57534b00 	.inst	0x57534b00 ; undefined
    2220:	5f445041 	.inst	0x5f445041 ; undefined
    2224:	5f574f4c 	.inst	0x5f574f4c ; undefined
    2228:	52414d57 	.inst	0x52414d57 ; undefined
    222c:	49485f4b 	.inst	0x49485f4b ; undefined
    2230:	55515f54 	.inst	0x55515f54 ; undefined
    2234:	4c4b4349 	.inst	0x4c4b4349 ; undefined
    2238:	636b0059 	.inst	0x636b0059 ; undefined
    223c:	5f6e6173 	.inst	0x5f6e6173 ; undefined
    2240:	63656863 	.inst	0x63656863 ; undefined
    2244:	63615f6b 	.inst	0x63615f6b ; undefined
    2248:	73736563 	.inst	0x73736563 ; undefined
    224c:	525f5f00 	.inst	0x525f5f00 ; undefined
    2250:	4e5f5145 	.inst	0x4e5f5145 ; undefined
    2254:	49425f52 	.inst	0x49425f52 ; undefined
    2258:	5f005354 	fmls	h20, h26, v0.h[0]
    225c:	74616465 	.inst	0x74616465 ; undefined
    2260:	6f630061 	mla	v1.8h, v3.8h, v3.h[2]
    2264:	756f706d 	.inst	0x756f706d ; undefined
    2268:	645f646e 	fcmla	z14.h, p1/m, z3.h, z31.h, #270
    226c:	5f726f74 	.inst	0x5f726f74 ; undefined
    2270:	73006469 	.inst	0x73006469 ; undefined
    2274:	74726f68 	.inst	0x74726f68 ; undefined
    2278:	736e7520 	.inst	0x736e7520 ; undefined
    227c:	656e6769 	fnmls	z9.h, p1/m, z27.h, z14.h
    2280:	6e692064 	usubl2	v4.4s, v3.8h, v9.8h
    2284:	69740074 	ldpsw	x20, x0, [x3, #-96]
    2288:	755f6b63 	.inst	0x755f6b63 ; undefined
    228c:	00636573 	.inst	0x00636573 ; undefined
    2290:	5f6e696d 	.inst	0x5f6e696d ; undefined
    2294:	5f776f6c 	.inst	0x5f776f6c ; undefined
    2298:	006e6670 	.inst	0x006e6670 ; undefined
    229c:	366d7261 	tbz	w1, #13, ffffffffffffd0e8 <blk_mq_init_sched+0xffffffffffffc190>
    22a0:	6f635f34 	.inst	0x6f635f34 ; undefined
    22a4:	5f74736e 	sqdmlsl	s14, h27, v4.h[3]
    22a8:	73706163 	.inst	0x73706163 ; undefined
    22ac:	6165725f 	.inst	0x6165725f ; undefined
    22b0:	70007964 	adr	x4, 31df <.debug_str+0x31df>
    22b4:	63696e61 	.inst	0x63696e61 ; undefined
    22b8:	5f6e6f5f 	.inst	0x5f6e6f5f ; undefined
    22bc:	65726e75 	fnmls	z21.h, p3/m, z19.h, z18.h
    22c0:	65766f63 	fnmls	z3.h, p3/m, z27.h, z22.h
    22c4:	5f646572 	.inst	0x5f646572 ; undefined
    22c8:	00696d6e 	.inst	0x00696d6e ; undefined
    22cc:	5f6b6c62 	.inst	0x5f6b6c62 ; undefined
    22d0:	675f716d 	.inst	0x675f716d ; undefined
    22d4:	645f7465 	fcmla	z5.h, p5/m, z3.h, z31.h, #270
    22d8:	61707369 	.inst	0x61707369 ; undefined
    22dc:	5f686374 	.inst	0x5f686374 ; undefined
    22e0:	67647562 	.inst	0x67647562 ; undefined
    22e4:	6d007465 	stp	d5, d29, [x3]
    22e8:	6c75646f 	ldnp	d15, d25, [x3, #-176]
    22ec:	746b5f65 	.inst	0x746b5f65 ; undefined
    22f0:	00657079 	.inst	0x00657079 ; undefined
    22f4:	706d6f63 	adr	x3, dd0e3 <blk_mq_init_sched+0xdc18b>
    22f8:	646e756f 	.inst	0x646e756f ; undefined
    22fc:	6761705f 	.inst	0x6761705f ; undefined
    2300:	74645f65 	.inst	0x74645f65 ; undefined
    2304:	6400726f 	.inst	0x6400726f ; undefined
    2308:	6f64746f 	uqshl	v15.2d, v3.2d, #36
    230c:	616e5f74 	.inst	0x616e5f74 ; undefined
    2310:	7000656d 	adr	x13, 2fbf <.debug_str+0x2fbf>
    2314:	6e5f6469 	.inst	0x6e5f6469 ; undefined
    2318:	73656d61 	.inst	0x73656d61 ; undefined
    231c:	65636170 	fnmls	z16.h, p0/m, z11.h, z3.h
    2320:	74617700 	.inst	0x74617700 ; undefined
    2324:	616d7265 	.inst	0x616d7265 ; undefined
    2328:	735f6b72 	.inst	0x735f6b72 ; undefined
    232c:	656c6163 	fnmls	z3.h, p0/m, z11.h, z12.h
    2330:	6361665f 	.inst	0x6361665f ; undefined
    2334:	00726f74 	.inst	0x00726f74 ; undefined
    2338:	4c425f5f 	.inst	0x4c425f5f ; undefined
    233c:	41545f4b 	.inst	0x41545f4b ; undefined
    2340:	554c505f 	.inst	0x554c505f ; undefined
    2344:	79730047 	ldrh	w7, [x2, #6528]
    2348:	7a745f73 	.inst	0x7a745f73 ; undefined
    234c:	74656700 	.inst	0x74656700 ; undefined
    2350:	7275635f 	.inst	0x7275635f ; undefined
    2354:	746e6572 	.inst	0x746e6572 ; undefined
    2358:	72657000 	.inst	0x72657000 ; undefined
    235c:	77685f66 	.inst	0x77685f66 ; undefined
    2360:	6e6f635f 	rsubhn2	v31.8h, v26.4s, v15.4s
    2364:	74786574 	.inst	0x74786574 ; undefined
    2368:	73797300 	.inst	0x73797300 ; undefined
    236c:	5f6d6574 	.inst	0x5f6d6574 ; undefined
    2370:	73657375 	.inst	0x73657375 ; undefined
    2374:	65736c5f 	fnmls	z31.h, p3/m, z2.h, z19.h
    2378:	6f74615f 	umlsl2	v31.4s, v10.8h, v4.h[3]
    237c:	7363696d 	.inst	0x7363696d ; undefined
    2380:	59445f00 	.inst	0x59445f00 ; undefined
    2384:	494d414e 	.inst	0x494d414e ; undefined
    2388:	4f570043 	.inst	0x4f570043 ; undefined
    238c:	4e494b52 	.inst	0x4e494b52 ; undefined
    2390:	54455347 	b.vc	8cdf8 <blk_mq_init_sched+0x8bea0>
    2394:	5443415f 	.inst	0x5443415f ; undefined
    2398:	54415649 	b.ls	84e60 <blk_mq_init_sched+0x83f08>  // b.plast
    239c:	4e415f45 	.inst	0x4e415f45 ; undefined
    23a0:	57004e4f 	.inst	0x57004e4f ; undefined
    23a4:	525f5442 	.inst	0x525f5442 ; undefined
    23a8:	445f5157 	.inst	0x445f5157 ; undefined
    23ac:	41435349 	.inst	0x41435349 ; undefined
    23b0:	73004452 	.inst	0x73004452 ; undefined
    23b4:	74637379 	.inst	0x74637379 ; undefined
    23b8:	72705f6c 	.inst	0x72705f6c ; undefined
    23bc:	6365746f 	.inst	0x6365746f ; undefined
    23c0:	5f646574 	.inst	0x5f646574 ; undefined
    23c4:	6c6d7973 	ldnp	d19, d30, [x11, #-304]
    23c8:	736b6e69 	.inst	0x736b6e69 ; undefined
    23cc:	5f6d7600 	sqshl	d0, d16, #45
    23d0:	656e6f7a 	fnmls	z26.h, p3/m, z27.h, z14.h
    23d4:	6174735f 	.inst	0x6174735f ; undefined
    23d8:	5f5f0074 	.inst	0x5f5f0074 ; undefined
    23dc:	65717269 	fnmls	z9.h, p4/m, z19.h, z17.h
    23e0:	7972746e 	ldrh	w14, [x3, #6458]
    23e4:	7865745f 	.inst	0x7865745f ; undefined
    23e8:	6e655f74 	uqrshl	v20.8h, v27.8h, v5.8h
    23ec:	524e0064 	.inst	0x524e0064 ; undefined
    23f0:	534d565f 	.inst	0x534d565f ; undefined
    23f4:	5f4e4143 	.inst	0x5f4e4143 ; undefined
    23f8:	54495257 	.inst	0x54495257 ; undefined
    23fc:	655f0045 	fadd	z5.h, z2.h, z31.h
    2400:	5400646e 	b.al	308c <.debug_str+0x308c>
    2404:	465f5048 	.inst	0x465f5048 ; undefined
    2408:	5f454c49 	.inst	0x5f454c49 ; undefined
    240c:	4c4c4146 	.inst	0x4c4c4146 ; undefined
    2410:	4b434142 	sub	w2, w10, w3, lsr #16
    2414:	4148435f 	.inst	0x4148435f ; undefined
    2418:	00454752 	.inst	0x00454752 ; undefined
    241c:	72745f5f 	.inst	0x72745f5f ; undefined
    2420:	70656361 	adr	x1, cd08f <blk_mq_init_sched+0xcc137>
    2424:	746e696f 	.inst	0x746e696f ; undefined
    2428:	6761705f 	.inst	0x6761705f ; undefined
    242c:	65725f65 	fnmla	z5.h, p7/m, z27.h, z18.h
    2430:	6f6d5f66 	.inst	0x6f6d5f66 ; undefined
    2434:	6e615f64 	uqrshl	v4.8h, v27.8h, v1.8h
    2438:	65725f64 	fnmla	z4.h, p7/m, z27.h, z18.h
    243c:	6e727574 	uabd	v20.8h, v11.8h, v18.8h
    2440:	524f5700 	.inst	0x524f5700 ; undefined
    2444:	474e494b 	.inst	0x474e494b ; undefined
    2448:	5f544553 	.inst	0x5f544553 ; undefined
    244c:	49544341 	.inst	0x49544341 ; undefined
    2450:	45544156 	.inst	0x45544156 ; undefined
    2454:	5341425f 	.inst	0x5341425f ; undefined
    2458:	64610045 	fmla	z5.h, z2.h, z1.h[4]
    245c:	54007264 	b.mi	32a8 <.debug_str+0x32a8>  // b.first
    2460:	535f5048 	.inst	0x535f5048 ; undefined
    2464:	554f5057 	.inst	0x554f5057 ; undefined
    2468:	696c0054 	ldpsw	x20, x0, [x2, #-160]
    246c:	655f7473 	fcmne	p3.h, p5/z, z3.h, z31.h
    2470:	7974706d 	ldrh	w13, [x3, #6712]
    2474:	7261635f 	.inst	0x7261635f ; undefined
    2478:	6c756665 	ldnp	d5, d25, [x19, #-176]
    247c:	6d766b00 	ldp	d0, d26, [x24, #-160]
    2480:	6f72705f 	.inst	0x6f72705f ; undefined
    2484:	74636574 	.inst	0x74636574 ; undefined
    2488:	6d5f6465 	ldp	d5, d25, [x3, #496]
    248c:	5f65646f 	.inst	0x5f65646f ; undefined
    2490:	74696e69 	.inst	0x74696e69 ; undefined
    2494:	696c6169 	ldpsw	x9, x24, [x11, #-160]
    2498:	0064657a 	.inst	0x0064657a ; undefined
    249c:	5f757063 	sqdmlsl	s3, h3, v5.h[3]
    24a0:	61637768 	.inst	0x61637768 ; undefined
    24a4:	70007370 	adr	x16, 3313 <.debug_str+0x3313>
    24a8:	5f656761 	.inst	0x5f656761 ; undefined
    24ac:	6c6d7973 	ldnp	d19, d30, [x11, #-304]
    24b0:	5f6b6e69 	.inst	0x5f6b6e69 ; undefined
    24b4:	646f6e69 	.inst	0x646f6e69 ; undefined
    24b8:	706f5f65 	adr	x5, e10a7 <blk_mq_init_sched+0xe014f>
    24bc:	74617265 	.inst	0x74617265 ; undefined
    24c0:	736e6f69 	.inst	0x736e6f69 ; undefined
    24c4:	6e757200 	uabdl2	v0.4s, v16.8h, v21.8h
    24c8:	6575715f 	fnmls	z31.h, p4/m, z10.h, z21.h
    24cc:	57006575 	.inst	0x57006575 ; undefined
    24d0:	494b524f 	.inst	0x494b524f ; undefined
    24d4:	4553474e 	.inst	0x4553474e ; undefined
    24d8:	4f4e5f54 	.inst	0x4f4e5f54 ; undefined
    24dc:	45524544 	.inst	0x45524544 ; undefined
    24e0:	49414c43 	.inst	0x49414c43 ; undefined
    24e4:	7263004d 	.inst	0x7263004d ; undefined
    24e8:	5f687361 	sqdmlsl	s1, h27, v8.h[2]
    24ec:	6578656b 	fnmls	z11.h, p1/m, z11.h, z24.h
    24f0:	6f705f63 	.inst	0x6f705f63 ; undefined
    24f4:	6e5f7473 	.inst	0x6e5f7473 ; undefined
    24f8:	6669746f 	.inst	0x6669746f ; undefined
    24fc:	73726569 	.inst	0x73726569 ; undefined
    2500:	69756700 	ldpsw	x0, x25, [x24, #-88]
    2504:	00745f64 	.inst	0x00745f64 ; undefined
    2508:	5f757063 	sqdmlsl	s3, h3, v5.h[3]
    250c:	5f6c6c61 	.inst	0x5f6c6c61 ; undefined
    2510:	73746962 	.inst	0x73746962 ; undefined
    2514:	50485400 	adr	x0, 92f96 <blk_mq_init_sched+0x9203e>
    2518:	5057535f 	adr	xzr, b0f82 <blk_mq_init_sched+0xb002a>
    251c:	5f54554f 	shl	d15, d10, #20
    2520:	4c4c4146 	.inst	0x4c4c4146 ; undefined
    2524:	4b434142 	sub	w2, w10, w3, lsr #16
    2528:	4d495400 	.inst	0x4d495400 ; undefined
    252c:	535f5245 	.inst	0x535f5245 ; undefined
    2530:	4954464f 	.inst	0x4954464f ; undefined
    2534:	73005152 	.inst	0x73005152 ; undefined
    2538:	69746174 	ldpsw	x20, x24, [x11, #-96]
    253c:	656b5f63 	fnmla	z3.h, p7/m, z27.h, z11.h
    2540:	6e695f79 	uqrshl	v25.8h, v27.8h, v9.8h
    2544:	61697469 	.inst	0x61697469 ; undefined
    2548:	657a696c 	fnmls	z12.h, p2/m, z11.h, z26.h
    254c:	63700064 	.inst	0x63700064 ; undefined
    2550:	665f7570 	.inst	0x665f7570 ; undefined
    2554:	696b0063 	ldpsw	x3, x0, [x3, #-168]
    2558:	6567616d 	fnmls	z13.h, p0/m, z11.h, z7.h
    255c:	666f765f 	.inst	0x666f765f ; undefined
    2560:	74657366 	.inst	0x74657366 ; undefined
    2564:	736e6900 	.inst	0x736e6900 ; undefined
    2568:	6d757274 	ldp	d20, d28, [x19, #-176]
    256c:	5f746e65 	.inst	0x5f746e65 ; undefined
    2570:	6d6f7461 	ldp	d1, d29, [x3, #-272]
    2574:	725f6369 	.inst	0x725f6369 ; undefined
    2578:	5f646165 	.inst	0x5f646165 ; undefined
    257c:	74697277 	.inst	0x74697277 ; undefined
    2580:	47500065 	.inst	0x47500065 ; undefined
    2584:	4f4c4c41 	.inst	0x4f4c4c41 ; undefined
    2588:	4f4e5f43 	.inst	0x4f4e5f43 ; undefined
    258c:	4c414d52 	.inst	0x4c414d52 ; undefined
    2590:	71657200 	subs	w0, w16, #0x95c, lsl #12
    2594:	74736575 	.inst	0x74736575 ; undefined
    2598:	6c677000 	ldnp	d0, d28, [x0, #-400]
    259c:	5f747369 	sqdmlsl	s9, h27, v4.h[3]
    25a0:	61746164 	.inst	0x61746164 ; undefined
    25a4:	73797300 	.inst	0x73797300 ; undefined
    25a8:	5f6c7463 	sqshl	d3, d3, #44
    25ac:	5f78616d 	.inst	0x5f78616d ; undefined
    25b0:	5f70616d 	.inst	0x5f70616d ; undefined
    25b4:	6e756f63 	umin	v3.8h, v27.8h, v21.8h
    25b8:	6f6c0074 	mla	v20.8h, v3.8h, v12.h[2]
    25bc:	65646b63 	fnmls	z3.h, p2/m, z27.h, z4.h
    25c0:	616d5f70 	.inst	0x616d5f70 ; undefined
    25c4:	67700070 	.inst	0x67700070 ; undefined
    25c8:	746f7270 	.inst	0x746f7270 ; undefined
    25cc:	7300745f 	.inst	0x7300745f ; undefined
    25d0:	64656863 	.inst	0x64656863 ; undefined
    25d4:	6d6f645f 	ldp	d31, d25, [x2, #-272]
    25d8:	736e6961 	.inst	0x736e6961 ; undefined
    25dc:	74756d5f 	.inst	0x74756d5f ; undefined
    25e0:	61007865 	.inst	0x61007865 ; undefined
    25e4:	34366d72 	cbz	w18, 6f390 <blk_mq_init_sched+0x6e438>
    25e8:	616d645f 	.inst	0x616d645f ; undefined
    25ec:	7968705f 	ldrh	wzr, [x2, #5176]
    25f0:	696c5f73 	ldpsw	x19, x23, [x27, #-160]
    25f4:	0074696d 	.inst	0x0074696d ; undefined
    25f8:	415f4d4d 	.inst	0x415f4d4d ; undefined
    25fc:	504e4f4e 	adr	x14, 9efe6 <blk_mq_init_sched+0x9e08e>
    2600:	53454741 	.inst	0x53454741 ; undefined
    2604:	54434800 	b.eq	88f04 <blk_mq_init_sched+0x87fac>  // b.none
    2608:	59545f58 	.inst	0x59545f58 ; undefined
    260c:	525f4550 	.inst	0x525f4550 ; undefined
    2610:	00444145 	.inst	0x00444145 ; undefined
    2614:	75706370 	.inst	0x75706370 ; undefined
    2618:	7361625f 	.inst	0x7361625f ; undefined
    261c:	64615f65 	.inst	0x64615f65 ; undefined
    2620:	5f007264 	.inst	0x5f007264 ; undefined
    2624:	7172695f 	cmp	w10, #0xc9a, lsl #12
    2628:	6765725f 	.inst	0x6765725f ; undefined
    262c:	5f5f0073 	.inst	0x5f5f0073 ; undefined
    2630:	74696e69 	.inst	0x74696e69 ; undefined
    2634:	61746164 	.inst	0x61746164 ; undefined
    2638:	6765625f 	.inst	0x6765625f ; undefined
    263c:	52006e69 	eor	w9, w19, #0xfffffff
    2640:	4f5f5145 	.inst	0x4f5f5145 ; undefined
    2644:	414c5f50 	.inst	0x414c5f50 ; undefined
    2648:	74005453 	.inst	0x74005453 ; undefined
    264c:	61657268 	.inst	0x61657268 ; undefined
    2650:	6e695f64 	uqrshl	v4.8h, v27.8h, v9.8h
    2654:	5f006f66 	.inst	0x5f006f66 ; undefined
    2658:	75626564 	.inst	0x75626564 ; undefined
    265c:	61705f67 	.inst	0x61705f67 ; undefined
    2660:	6c616567 	ldnp	d7, d25, [x11, #-496]
    2664:	5f636f6c 	.inst	0x5f636f6c ; undefined
    2668:	62616e65 	.inst	0x62616e65 ; undefined
    266c:	5f64656c 	.inst	0x5f64656c ; undefined
    2670:	6c726165 	ldnp	d5, d24, [x11, #-224]
    2674:	6f6e0079 	mla	v25.8h, v3.8h, v14.h[2]
    2678:	735f6564 	.inst	0x735f6564 ; undefined
    267c:	5f746174 	.inst	0x5f746174 ; undefined
    2680:	6d657469 	ldp	d9, d29, [x3, #-432]
    2684:	736e7500 	.inst	0x736e7500 ; undefined
    2688:	656e6769 	fnmls	z9.h, p1/m, z27.h, z14.h
    268c:	68632064 	.inst	0x68632064 ; undefined
    2690:	66007261 	.inst	0x66007261 ; undefined
    2694:	5f656c69 	.inst	0x5f656c69 ; undefined
    2698:	73706163 	.inst	0x73706163 ; undefined
    269c:	616e655f 	.inst	0x616e655f ; undefined
    26a0:	64656c62 	.inst	0x64656c62 ; undefined
    26a4:	61687300 	.inst	0x61687300 ; undefined
    26a8:	5f646572 	.inst	0x5f646572 ; undefined
    26ac:	6f666e69 	.inst	0x6f666e69 ; undefined
    26b0:	6b6c6200 	.inst	0x6b6c6200 ; undefined
    26b4:	5f716d5f 	.inst	0x5f716d5f ; undefined
    26b8:	78746368 	ldumaxlh	w20, w8, [x27]
    26bc:	6f74735f 	.inst	0x6f74735f ; undefined
    26c0:	64657070 	.inst	0x64657070 ; undefined
    26c4:	4e455800 	uzp2	v0.8h, v0.8h, v5.8h
    26c8:	54414e5f 	.inst	0x54414e5f ; undefined
    26cc:	00455649 	.inst	0x00455649 ; undefined
    26d0:	5f74656e 	.inst	0x5f74656e ; undefined
    26d4:	646e6172 	.inst	0x646e6172 ; undefined
    26d8:	696f6e5f 	ldpsw	xzr, x27, [x18, #-136]
    26dc:	5a006573 	.inst	0x5a006573 ; undefined
    26e0:	4c454e4f 	.inst	0x4c454e4f ; undefined
    26e4:	5f545349 	.inst	0x5f545349 ; undefined
    26e8:	41464f4e 	.inst	0x41464f4e ; undefined
    26ec:	41424c4c 	.inst	0x41424c4c ; undefined
    26f0:	63004b43 	.inst	0x63004b43 ; undefined
    26f4:	735f7570 	.inst	0x735f7570 ; undefined
    26f8:	656c6163 	fnmls	z3.h, p0/m, z11.h, z12.h
    26fc:	68767000 	.inst	0x68767000 ; undefined
    2700:	6174735f 	.inst	0x6174735f ; undefined
    2704:	695f7472 	ldpsw	x18, x29, [x3, #248]
    2708:	006f666e 	.inst	0x006f666e ; undefined
    270c:	756e5f5f 	.inst	0x756e5f5f ; undefined
    2710:	6e6f5f6d 	uqrshl	v13.8h, v27.8h, v15.8h
    2714:	656e696c 	fnmls	z12.h, p2/m, z11.h, z14.h
    2718:	7570635f 	.inst	0x7570635f ; undefined
    271c:	4e470073 	.inst	0x4e470073 ; undefined
    2720:	38432055 	ldurb	w21, [x2, #50]
    2724:	2e372039 	usubl	v25.8h, v1.8b, v23.8b
    2728:	20302e35 	.inst	0x20302e35 ; undefined
    272c:	696c6d2d 	ldpsw	x13, x27, [x9, #-160]
    2730:	656c7474 	fnmls	z20.h, p5/m, z3.h, z12.h
    2734:	646e652d 	.inst	0x646e652d ; undefined
    2738:	206e6169 	.inst	0x206e6169 ; undefined
    273c:	65676d2d 	fnmls	z13.h, p3/m, z9.h, z7.h
    2740:	6172656e 	.inst	0x6172656e ; undefined
    2744:	65722d6c 	fmls	z12.h, p3/m, z11.h, z18.h
    2748:	6f2d7367 	.inst	0x6f2d7367 ; undefined
    274c:	20796c6e 	.inst	0x20796c6e ; undefined
    2750:	62616d2d 	.inst	0x62616d2d ; undefined
    2754:	706c3d69 	adr	x9, daf03 <blk_mq_init_sched+0xd9fab>
    2758:	2d203436 	stp	s22, s13, [x1, #-256]
    275c:	6769736d 	.inst	0x6769736d ; undefined
    2760:	65722d6e 	fmls	z14.h, p3/m, z11.h, z18.h
    2764:	6e727574 	uabd	v20.8h, v11.8h, v18.8h
    2768:	6464612d 	.inst	0x6464612d ; undefined
    276c:	73736572 	.inst	0x73736572 ; undefined
    2770:	6c6c613d 	ldnp	d29, d24, [x9, #-320]
    2774:	616d2d20 	.inst	0x616d2d20 ; undefined
    2778:	3d686372 	ldr	b18, [x27, #2584]
    277c:	766d7261 	.inst	0x766d7261 ; undefined
    2780:	20612d38 	.inst	0x20612d38 ; undefined
    2784:	2d20672d 	stp	s13, s25, [x25, #-256]
    2788:	2d20324f 	stp	s15, s12, [x18, #-256]
    278c:	3d647473 	ldr	b19, [x3, #2333]
    2790:	39756e67 	ldrb	w7, [x19, #3419]
    2794:	662d2030 	.inst	0x662d2030 ; undefined
    2798:	732d6f6e 	.inst	0x732d6f6e ; undefined
    279c:	63697274 	.inst	0x63697274 ; undefined
    27a0:	6c612d74 	ldnp	d20, d11, [x11, #-496]
    27a4:	69736169 	ldpsw	x9, x24, [x11, #-104]
    27a8:	2d20676e 	stp	s14, s25, [x27, #-256]
    27ac:	2d6f6e66 	ldp	s6, s27, [x19, #-136]
    27b0:	6d6d6f63 	ldp	d3, d27, [x27, #-304]
    27b4:	2d206e6f 	stp	s15, s27, [x19, #-256]
    27b8:	6f687366 	fcmla	v6.8h, v27.8h, v8.h[1], #270
    27bc:	772d7472 	.inst	0x772d7472 ; undefined
    27c0:	72616863 	.inst	0x72616863 ; undefined
    27c4:	6e662d20 	uqsub	v0.8h, v9.8h, v6.8h
    27c8:	49502d6f 	.inst	0x49502d6f ; undefined
    27cc:	662d2045 	.inst	0x662d2045 ; undefined
    27d0:	612d6f6e 	.inst	0x612d6f6e ; undefined
    27d4:	636e7973 	.inst	0x636e7973 ; undefined
    27d8:	6e6f7268 	uabdl2	v8.4s, v19.8h, v15.8h
    27dc:	2d73756f 	ldp	s15, s29, [x11, #-104]
    27e0:	69776e75 	ldpsw	x21, x27, [x19, #-72]
    27e4:	742d646e 	.inst	0x742d646e ; undefined
    27e8:	656c6261 	fnmls	z1.h, p0/m, z19.h, z12.h
    27ec:	662d2073 	.inst	0x662d2073 ; undefined
    27f0:	752d6f6e 	.inst	0x752d6f6e ; undefined
    27f4:	6e69776e 	uabd	v14.8h, v27.8h, v9.8h
    27f8:	61742d64 	.inst	0x61742d64 ; undefined
    27fc:	73656c62 	.inst	0x73656c62 ; undefined
    2800:	6e662d20 	uqsub	v0.8h, v9.8h, v6.8h
    2804:	65642d6f 	fmls	z15.h, p3/m, z11.h, z4.h
    2808:	6574656c 	fnmls	z12.h, p1/m, z11.h, z20.h
    280c:	6c756e2d 	ldnp	d13, d27, [x17, #-176]
    2810:	6f702d6c 	.inst	0x6f702d6c ; undefined
    2814:	65746e69 	fnmls	z9.h, p3/m, z19.h, z20.h
    2818:	68632d72 	.inst	0x68632d72 ; undefined
    281c:	736b6365 	.inst	0x736b6365 ; undefined
    2820:	73662d20 	.inst	0x73662d20 ; undefined
    2824:	6b636174 	.inst	0x6b636174 ; undefined
    2828:	6f72702d 	.inst	0x6f72702d ; undefined
    282c:	74636574 	.inst	0x74636574 ; undefined
    2830:	732d726f 	.inst	0x732d726f ; undefined
    2834:	6e6f7274 	uabdl2	v20.4s, v19.8h, v15.8h
    2838:	662d2067 	.inst	0x662d2067 ; undefined
    283c:	6f2d6f6e 	.inst	0x6f2d6f6e ; undefined
    2840:	2d74696d 	ldp	s13, s26, [x11, #-96]
    2844:	6d617266 	ldp	d6, d28, [x19, #-496]
    2848:	6f702d65 	.inst	0x6f702d65 ; undefined
    284c:	65746e69 	fnmls	z9.h, p3/m, z19.h, z20.h
    2850:	662d2072 	.inst	0x662d2072 ; undefined
    2854:	6f2d6f6e 	.inst	0x6f2d6f6e ; undefined
    2858:	6d697470 	ldp	d16, d29, [x3, #-368]
    285c:	2d657a69 	ldp	s9, s30, [x19, #-216]
    2860:	6c626973 	ldnp	d19, d26, [x11, #-480]
    2864:	2d676e69 	ldp	s9, s27, [x19, #-200]
    2868:	6c6c6163 	ldnp	d3, d24, [x11, #-320]
    286c:	662d2073 	.inst	0x662d2073 ; undefined
    2870:	762d6f6e 	.inst	0x762d6f6e ; undefined
    2874:	742d7261 	.inst	0x742d7261 ; undefined
    2878:	6b636172 	.inst	0x6b636172 ; undefined
    287c:	20676e69 	.inst	0x20676e69 ; undefined
    2880:	6d65662d 	ldp	d13, d25, [x17, #-432]
    2884:	732d7469 	.inst	0x732d7469 ; undefined
    2888:	63757274 	.inst	0x63757274 ; undefined
    288c:	65642d74 	fmls	z20.h, p3/m, z11.h, z4.h
    2890:	2d677562 	ldp	s2, s29, [x11, #-200]
    2894:	65736162 	fnmls	z2.h, p0/m, z11.h, z19.h
    2898:	796c6e6f 	ldrh	w15, [x19, #5686]
    289c:	6e662d20 	uqsub	v0.8h, v9.8h, v6.8h
    28a0:	74732d6f 	.inst	0x74732d6f ; undefined
    28a4:	74636972 	.inst	0x74636972 ; undefined
    28a8:	65766f2d 	fnmls	z13.h, p3/m, z25.h, z22.h
    28ac:	6f6c6672 	sqshlu	v18.2d, v19.2d, #44
    28b0:	662d2077 	.inst	0x662d2077 ; undefined
    28b4:	63617473 	.inst	0x63617473 ; undefined
    28b8:	68632d6b 	.inst	0x68632d6b ; undefined
    28bc:	3d6b6365 	ldr	b5, [x27, #2776]
    28c0:	2d206f6e 	stp	s14, s27, [x27, #-256]
    28c4:	6e6f6366 	rsubhn2	v6.8h, v27.4s, v15.4s
    28c8:	76726573 	.inst	0x76726573 ; undefined
    28cc:	74732d65 	.inst	0x74732d65 ; undefined
    28d0:	206b6361 	.inst	0x206b6361 ; undefined
    28d4:	61702d2d 	.inst	0x61702d2d ; undefined
    28d8:	206d6172 	.inst	0x206d6172 ; undefined
    28dc:	6f6c6c61 	.inst	0x6f6c6c61 ; undefined
    28e0:	74732d77 	.inst	0x74732d77 ; undefined
    28e4:	2d65726f 	ldp	s15, s28, [x19, #-216]
    28e8:	61746164 	.inst	0x61746164 ; undefined
    28ec:	6361722d 	.inst	0x6361722d ; undefined
    28f0:	303d7365 	adr	x5, 7d75d <blk_mq_init_sched+0x7c805>
    28f4:	6b6c6200 	.inst	0x6b6c6200 ; undefined
    28f8:	5f716d5f 	.inst	0x5f716d5f ; undefined
    28fc:	65686373 	fnmls	z19.h, p0/m, z27.h, z8.h
    2900:	6e695f64 	uqrshl	v4.8h, v27.8h, v9.8h
    2904:	74726573 	.inst	0x74726573 ; undefined
    2908:	7165725f 	cmp	w18, #0x95c, lsl #12
    290c:	74736575 	.inst	0x74736575 ; undefined
    2910:	6b5f5f00 	subs	w0, w24, wzr, lsr #23
    2914:	5f6e7265 	sqdmlsl	s5, h19, v14.h[2]
    2918:	635f796d 	.inst	0x635f796d ; undefined
    291c:	6f5f7570 	uqshl	v16.2d, v11.2d, #31
    2920:	65736666 	fnmls	z6.h, p1/m, z19.h, z19.h
    2924:	79730074 	ldrh	w20, [x3, #6528]
    2928:	6c746373 	ldnp	d19, d24, [x27, #-192]
    292c:	6f72705f 	.inst	0x6f72705f ; undefined
    2930:	74636574 	.inst	0x74636574 ; undefined
    2934:	725f6465 	.inst	0x725f6465 ; undefined
    2938:	6c756765 	ldnp	d5, d25, [x27, #-176]
    293c:	63007261 	.inst	0x63007261 ; undefined
    2940:	7373616c 	.inst	0x7373616c ; undefined
    2944:	616e7500 	.inst	0x616e7500 ; undefined
    2948:	6e67696c 	.inst	0x6e67696c ; undefined
    294c:	655f6465 	fcmeq	p5.h, p1/z, z3.h, z31.h
    2950:	6c62616e 	ldnp	d14, d24, [x11, #-480]
    2954:	75006465 	.inst	0x75006465 ; undefined
    2958:	646e6172 	.inst	0x646e6172 ; undefined
    295c:	665f6d6f 	.inst	0x665f6d6f ; undefined
    2960:	0073706f 	.inst	0x0073706f ; undefined
    2964:	63737973 	.inst	0x63737973 ; undefined
    2968:	705f6c74 	adr	x20, c16f7 <blk_mq_init_sched+0xc079f>
    296c:	65746f72 	fnmls	z18.h, p3/m, z27.h, z20.h
    2970:	64657463 	.inst	0x64657463 ; undefined
    2974:	7261685f 	.inst	0x7261685f ; undefined
    2978:	6e696c64 	umin	v4.8h, v3.8h, v9.8h
    297c:	6500736b 	.inst	0x6500736b ; undefined
    2980:	7974706d 	ldrh	w13, [x3, #6712]
    2984:	706f615f 	adr	xzr, e15af <blk_mq_init_sched+0xe0657>
    2988:	53520073 	.inst	0x53520073 ; undefined
    298c:	435f5145 	.inst	0x435f5145 ; undefined
    2990:	4c465f53 	.inst	0x4c465f53 ; undefined
    2994:	4e5f4741 	.inst	0x4e5f4741 ; undefined
    2998:	45525f4f 	.inst	0x45525f4f ; undefined
    299c:	52415453 	.inst	0x52415453 ; undefined
    29a0:	4e4f5f54 	.inst	0x4e4f5f54 ; undefined
    29a4:	4552505f 	.inst	0x4552505f ; undefined
    29a8:	54504d45 	b.pl	a3350 <blk_mq_init_sched+0xa23f8>  // b.nfrst
    29ac:	5449425f 	.inst	0x5449425f ; undefined
    29b0:	5f524e00 	.inst	0x5f524e00 ; undefined
    29b4:	4c4c4f46 	.inst	0x4c4c4f46 ; undefined
    29b8:	4e49505f 	.inst	0x4e49505f ; undefined
    29bc:	4c45525f 	.inst	0x4c45525f ; undefined
    29c0:	45534145 	.inst	0x45534145 ; undefined
    29c4:	68700044 	.inst	0x68700044 ; undefined
    29c8:	615f7379 	.inst	0x615f7379 ; undefined
    29cc:	5f726464 	.inst	0x5f726464 ; undefined
    29d0:	79730074 	ldrh	w20, [x3, #6528]
    29d4:	6c746373 	ldnp	d19, d24, [x27, #-192]
    29d8:	706f6f5f 	adr	xzr, e17c3 <blk_mq_init_sched+0xe086b>
    29dc:	6c615f73 	ldnp	d19, d23, [x27, #-496]
    29e0:	70635f6c 	adr	x12, c95cf <blk_mq_init_sched+0xc8677>
    29e4:	61625f75 	.inst	0x61625f75 ; undefined
    29e8:	72746b63 	.inst	0x72746b63 ; undefined
    29ec:	00656361 	.inst	0x00656361 ; undefined
    29f0:	5f465144 	.inst	0x5f465144 ; undefined
    29f4:	56495250 	.inst	0x56495250 ; undefined
    29f8:	00455441 	.inst	0x00455441 ; undefined
    29fc:	54535144 	b.mi	a9424 <blk_mq_init_sched+0xa84cc>  // b.first
    2a00:	4f4f4c5f 	.inst	0x4f4f4c5f ; undefined
    2a04:	5350554b 	.inst	0x5350554b ; undefined
    2a08:	4b4c4200 	sub	w0, w16, w12, lsr #16
    2a0c:	5f514d5f 	.inst	0x5f514d5f ; undefined
    2a10:	4f4e5f46 	.inst	0x4f4e5f46 ; undefined
    2a14:	4843535f 	ldxrh	wzr, [x26]
    2a18:	50004445 	adr	x5, 32a2 <.debug_str+0x32a2>
    2a1c:	41454447 	.inst	0x41454447 ; undefined
    2a20:	56495443 	.inst	0x56495443 ; undefined
    2a24:	00455441 	.inst	0x00455441 ; undefined
    2a28:	79685f5f 	ldrh	wzr, [x26, #5166]
    2a2c:	64695f70 	.inst	0x64695f70 ; undefined
    2a30:	5f70616d 	.inst	0x5f70616d ; undefined
    2a34:	74786574 	.inst	0x74786574 ; undefined
    2a38:	6174735f 	.inst	0x6174735f ; undefined
    2a3c:	5f007472 	.inst	0x5f007472 ; undefined
    2a40:	494e555f 	.inst	0x494e555f ; undefined
    2a44:	5f455551 	shl	d17, d10, #5
    2a48:	5f5f4449 	.inst	0x5f5f4449 ; undefined
    2a4c:	3134785f 	cmn	w2, #0xd1e
    2a50:	6c620037 	ldnp	d23, d0, [x1, #-480]
    2a54:	716d5f6b 	subs	w11, w27, #0xb57, lsl #12
    2a58:	696e695f 	ldpsw	xzr, x26, [x10, #-144]
    2a5c:	63735f74 	.inst	0x63735f74 ; undefined
    2a60:	00646568 	.inst	0x00646568 ; undefined
    2a64:	49504446 	.inst	0x49504446 ; undefined
    2a68:	55465f43 	.inst	0x55465f43 ; undefined
    2a6c:	5450434e 	b.al	a32d4 <blk_mq_init_sched+0xa237c>
    2a70:	44005352 	.inst	0x44005352 ; undefined
    2a74:	5f504f52 	.inst	0x5f504f52 ; undefined
    2a78:	45474150 	.inst	0x45474150 ; undefined
    2a7c:	48434143 	ldxrh	w3, [x10]
    2a80:	45580045 	.inst	0x45580045 ; undefined
    2a84:	56505f4e 	.inst	0x56505f4e ; undefined
    2a88:	4d4f445f 	.inst	0x4d4f445f ; undefined
    2a8c:	004e4941 	.inst	0x004e4941 ; undefined
    2a90:	5247494d 	.inst	0x5247494d ; undefined
    2a94:	5f455441 	shl	d1, d2, #5
    2a98:	41564f4d 	.inst	0x41564f4d ; undefined
    2a9c:	00454c42 	.inst	0x00454c42 ; undefined
    2aa0:	4c425f5f 	.inst	0x4c425f5f ; undefined
    2aa4:	41545f4b 	.inst	0x41545f4b ; undefined
    2aa8:	4341425f 	.inst	0x4341425f ; undefined
    2aac:	52454d4b 	.inst	0x52454d4b ; undefined
    2ab0:	63004547 	.inst	0x63004547 ; undefined
    2ab4:	745f7570 	.inst	0x745f7570 ; undefined
    2ab8:	6c6f706f 	ldnp	d15, d28, [x3, #-272]
    2abc:	0079676f 	.inst	0x0079676f ; undefined
    2ac0:	6c6c5f5f 	ldnp	d31, d23, [x26, #-320]
    2ac4:	5f63735f 	sqdmlsl	s31, h26, v3.h[2]
    2ac8:	6d6f7461 	ldp	d1, d29, [x3, #-272]
    2acc:	34366369 	cbz	w9, 6f738 <blk_mq_init_sched+0x6e7e0>
    2ad0:	6275735f 	.inst	0x6275735f ; undefined
    2ad4:	7465725f 	.inst	0x7465725f ; undefined
    2ad8:	006e7275 	.inst	0x006e7275 ; undefined
    2adc:	68637261 	.inst	0x68637261 ; undefined
    2ae0:	6d69745f 	ldp	d31, d29, [x2, #-368]
    2ae4:	725f7265 	.inst	0x725f7265 ; undefined
    2ae8:	5f646165 	.inst	0x5f646165 ; undefined
    2aec:	6e756f63 	umin	v3.8h, v27.8h, v21.8h
    2af0:	00726574 	.inst	0x00726574 ; undefined
    2af4:	54535144 	b.mi	a951c <blk_mq_init_sched+0xa85c4>  // b.first
    2af8:	4145525f 	.inst	0x4145525f ; undefined
    2afc:	73005344 	.inst	0x73005344 ; undefined
    2b00:	74637379 	.inst	0x74637379 ; undefined
    2b04:	6f6c5f6c 	.inst	0x6f6c5f6c ; undefined
    2b08:	6d656d77 	ldp	d23, d27, [x11, #-432]
    2b0c:	7365725f 	.inst	0x7365725f ; undefined
    2b10:	65767265 	fnmls	z5.h, p4/m, z19.h, z22.h
    2b14:	7461725f 	.inst	0x7461725f ; undefined
    2b18:	52006f69 	eor	w9, w27, #0xfffffff
    2b1c:	4f5f5145 	.inst	0x4f5f5145 ; undefined
    2b20:	52575f50 	.inst	0x52575f50 ; undefined
    2b24:	00455449 	.inst	0x00455449 ; undefined
    2b28:	6173616b 	.inst	0x6173616b ; undefined
    2b2c:	68635f6e 	.inst	0x68635f6e ; undefined
    2b30:	5f6b6365 	.inst	0x5f6b6365 ; undefined
    2b34:	64616572 	.inst	0x64616572 ; undefined
    2b38:	70797400 	adr	x0, f59bb <blk_mq_init_sched+0xf4a63>
    2b3c:	616d0065 	.inst	0x616d0065 ; undefined
    2b40:	66705f78 	.inst	0x66705f78 ; undefined
    2b44:	7973006e 	ldrh	w14, [x3, #6528]
    2b48:	5f736673 	.inst	0x5f736673 ; undefined
    2b4c:	5f766564 	.inst	0x5f766564 ; undefined
    2b50:	72616863 	.inst	0x72616863 ; undefined
    2b54:	626f6b5f 	.inst	0x626f6b5f ; undefined
    2b58:	4f57006a 	.inst	0x4f57006a ; undefined
    2b5c:	4e494b52 	.inst	0x4e494b52 ; undefined
    2b60:	54455347 	b.vc	8d5c8 <blk_mq_init_sched+0x8c670>
    2b64:	4645525f 	.inst	0x4645525f ; undefined
    2b68:	544c5541 	b.ne	9b610 <blk_mq_init_sched+0x9a6b8>  // b.any
    2b6c:	4f4e415f 	.inst	0x4f4e415f ; undefined
    2b70:	6570004e 	fmla	z14.h, p0/m, z2.h, z16.h
    2b74:	75706372 	.inst	0x75706372 ; undefined
    2b78:	6665725f 	.inst	0x6665725f ; undefined
    2b7c:	7475705f 	.inst	0x7475705f ; undefined
    2b80:	6e616d5f 	umin	v31.8h, v10.8h, v1.8h
    2b84:	48540079 	ldxrh	w25, [x3]
    2b88:	455a5f50 	.inst	0x455a5f50 ; undefined
    2b8c:	505f4f52 	adr	x18, c1576 <blk_mq_init_sched+0xc061e>
    2b90:	5f454741 	.inst	0x5f454741 ; undefined
    2b94:	4f4c4c41 	.inst	0x4f4c4c41 ; undefined
    2b98:	4c410043 	.inst	0x4c410043 ; undefined
    2b9c:	53434f4c 	.inst	0x53434f4c ; undefined
    2ba0:	4c4c4154 	.inst	0x4c4c4154 ; undefined
    2ba4:	524f4e5f 	.inst	0x524f4e5f ; undefined
    2ba8:	004c414d 	.inst	0x004c414d ; undefined
    2bac:	6e695f5f 	uqrshl	v31.8h, v26.8h, v9.8h
    2bb0:	65747469 	fnmls	z9.h, p5/m, z3.h, z20.h
    2bb4:	655f7478 	fcmne	p8.h, p5/z, z3.h, z31.h
    2bb8:	5f00646e 	.inst	0x5f00646e ; undefined
    2bbc:	7079685f 	adr	xzr, f58c7 <blk_mq_init_sched+0xf496f>
    2bc0:	7373625f 	.inst	0x7373625f ; undefined
    2bc4:	6174735f 	.inst	0x6174735f ; undefined
    2bc8:	75007472 	.inst	0x75007472 ; undefined
    2bcc:	696c616e 	ldpsw	x14, x24, [x11, #-160]
    2bd0:	64656e67 	.inst	0x64656e67 ; undefined
    2bd4:	6d75645f 	ldp	d31, d25, [x2, #-176]
    2bd8:	74735f70 	.inst	0x74735f70 ; undefined
    2bdc:	006b6361 	.inst	0x006b6361 ; undefined
    2be0:	5f756372 	.inst	0x5f756372 ; undefined
    2be4:	64616572 	.inst	0x64616572 ; undefined
    2be8:	636f6c5f 	.inst	0x636f6c5f ; undefined
    2bec:	6962006b 	ldpsw	x11, x0, [x3, #-240]
    2bf0:	65735f6f 	fnmla	z15.h, p7/m, z27.h, z19.h
    2bf4:	74610074 	.inst	0x74610074 ; undefined
    2bf8:	63696d6f 	.inst	0x63696d6f ; undefined
    2bfc:	7300745f 	.inst	0x7300745f ; undefined
    2c00:	74637379 	.inst	0x74637379 ; undefined
    2c04:	73755f6c 	.inst	0x73755f6c ; undefined
    2c08:	725f7265 	.inst	0x725f7265 ; undefined
    2c0c:	72657365 	.inst	0x72657365 ; undefined
    2c10:	6b5f6576 	subs	w22, w11, wzr, lsr #25
    2c14:	65747962 	fnmls	z2.h, p6/m, z11.h, z20.h
    2c18:	5f5f0073 	.inst	0x5f5f0073 ; undefined
    2c1c:	5f4b4c42 	.inst	0x5f4b4c42 ; undefined
    2c20:	535f4154 	.inst	0x535f4154 ; undefined
    2c24:	54494c50 	.inst	0x54494c50 ; undefined
    2c28:	44444100 	.inst	0x44444100 ; undefined
    2c2c:	4f4e5f52 	.inst	0x4f4e5f52 ; undefined
    2c30:	4e41525f 	.inst	0x4e41525f ; undefined
    2c34:	494d4f44 	.inst	0x494d4f44 ; undefined
    2c38:	4c00455a 	st3	{v26.8h-v28.8h}, [x10]
    2c3c:	495f5552 	.inst	0x495f5552 ; undefined
    2c40:	5443414e 	b.al	89468 <blk_mq_init_sched+0x88510>
    2c44:	5f455649 	shl	d9, d18, #5
    2c48:	4e4f4e41 	.inst	0x4e4f4e41 ; undefined
    2c4c:	696e6900 	ldpsw	x0, x26, [x8, #-144]
    2c50:	736e5f74 	.inst	0x736e5f74 ; undefined
    2c54:	786f7270 	lduminlh	w15, w16, [x19]
    2c58:	75630079 	.inst	0x75630079 ; undefined
    2c5c:	6e657272 	uabdl2	v18.4s, v19.8h, v5.8h
    2c60:	74735f74 	.inst	0x74735f74 ; undefined
    2c64:	5f6b6361 	.inst	0x5f6b6361 ; undefined
    2c68:	6e696f70 	umin	v16.8h, v27.8h, v9.8h
    2c6c:	00726574 	.inst	0x00726574 ; undefined
    2c70:	465f4253 	.inst	0x465f4253 ; undefined
    2c74:	5a454552 	.inst	0x5a454552 ; undefined
    2c78:	53465f45 	.inst	0x53465f45 ; undefined
    2c7c:	49545300 	.inst	0x49545300 ; undefined
    2c80:	5f594b43 	.inst	0x5f594b43 ; undefined
    2c84:	454d4954 	.inst	0x454d4954 ; undefined
    2c88:	5354554f 	.inst	0x5354554f ; undefined
    2c8c:	73797300 	.inst	0x73797300 ; undefined
    2c90:	5f6c7463 	sqshl	d3, d3, #44
    2c94:	6e756f6d 	umin	v13.8h, v27.8h, v21.8h
    2c98:	616d5f74 	.inst	0x616d5f74 ; undefined
    2c9c:	48540078 	ldxrh	w24, [x3]
    2ca0:	455a5f50 	.inst	0x455a5f50 ; undefined
    2ca4:	505f4f52 	adr	x18, c168e <blk_mq_init_sched+0xc0736>
    2ca8:	5f454741 	.inst	0x5f454741 ; undefined
    2cac:	4f4c4c41 	.inst	0x4f4c4c41 ; undefined
    2cb0:	41465f43 	.inst	0x41465f43 ; undefined
    2cb4:	44454c49 	.inst	0x44454c49 ; undefined
    2cb8:	6b6c6200 	.inst	0x6b6c6200 ; undefined
    2cbc:	5f716d5f 	.inst	0x5f716d5f ; undefined
    2cc0:	5f676174 	.inst	0x5f676174 ; undefined
    2cc4:	00746573 	.inst	0x00746573 ; undefined
    2cc8:	706b5f5f 	adr	xzr, d98b3 <blk_mq_init_sched+0xd895b>
    2ccc:	65626f72 	fnmls	z18.h, p3/m, z27.h, z2.h
    2cd0:	65745f73 	fnmla	z19.h, p7/m, z27.h, z20.h
    2cd4:	655f7478 	fcmne	p8.h, p5/z, z3.h, z31.h
    2cd8:	5300646e 	ubfx	w14, w3, #0, #26
    2cdc:	52465f42 	.inst	0x52465f42 ; undefined
    2ce0:	455a4545 	.inst	0x455a4545 ; undefined
    2ce4:	4741505f 	.inst	0x4741505f ; undefined
    2ce8:	55414645 	.inst	0x55414645 ; undefined
    2cec:	7200544c 	ands	w12, w2, #0x3fffff
    2cf0:	66746f6f 	.inst	0x66746f6f ; undefined
    2cf4:	73665f73 	.inst	0x73665f73 ; undefined
    2cf8:	7079745f 	adr	xzr, f5b83 <blk_mq_init_sched+0xf4c2b>
    2cfc:	72610065 	.inst	0x72610065 ; undefined
    2d00:	615f6863 	.inst	0x615f6863 ; undefined
    2d04:	696d6f74 	ldpsw	x20, x27, [x27, #-152]
    2d08:	6f6c5f63 	.inst	0x6f6c5f63 ; undefined
    2d0c:	735f676e 	.inst	0x735f676e ; undefined
    2d10:	615f6275 	.inst	0x615f6275 ; undefined
    2d14:	745f646e 	.inst	0x745f646e ; undefined
    2d18:	00747365 	.inst	0x00747365 ; undefined
    2d1c:	56454e55 	.inst	0x56454e55 ; undefined
    2d20:	41544349 	.inst	0x41544349 ; undefined
    2d24:	5f454c42 	.inst	0x5f454c42 ; undefined
    2d28:	54534750 	.inst	0x54534750 ; undefined
    2d2c:	444e4152 	.inst	0x444e4152 ; undefined
    2d30:	62004445 	.inst	0x62004445 ; undefined
    2d34:	6d5f6b6c 	ldp	d12, d26, [x27, #496]
    2d38:	63735f71 	.inst	0x63735f71 ; undefined
    2d3c:	5f646568 	.inst	0x5f646568 ; undefined
    2d40:	65736e69 	fnmls	z9.h, p3/m, z19.h, z19.h
    2d44:	725f7472 	.inst	0x725f7472 ; undefined
    2d48:	65757165 	fnmls	z5.h, p4/m, z11.h, z21.h
    2d4c:	00737473 	.inst	0x00737473 ; undefined
    2d50:	5f6b6c62 	.inst	0x5f6b6c62 ; undefined
    2d54:	735f716d 	.inst	0x735f716d ; undefined
    2d58:	64656863 	.inst	0x64656863 ; undefined
    2d5c:	6c6c615f 	ldnp	d31, d24, [x10, #-320]
    2d60:	6d5f636f 	ldp	d15, d24, [x27, #496]
    2d64:	615f7061 	.inst	0x615f7061 ; undefined
    2d68:	725f646e 	.inst	0x725f646e ; undefined
    2d6c:	73007371 	.inst	0x73007371 ; undefined
    2d70:	5f6e6970 	.inst	0x5f6e6970 ; undefined
    2d74:	6b636f6c 	.inst	0x6b636f6c ; undefined
    2d78:	7172695f 	cmp	w10, #0xc9a, lsl #12
    2d7c:	5f524e00 	.inst	0x5f524e00 ; undefined
    2d80:	454c4946 	.inst	0x454c4946 ; undefined
    2d84:	50414d5f 	adr	xzr, 8572e <blk_mq_init_sched+0x847d6>
    2d88:	00444550 	.inst	0x00444550 ; undefined
    2d8c:	65766575 	fnmls	z21.h, p1/m, z11.h, z22.h
    2d90:	735f746e 	.inst	0x735f746e ; undefined
    2d94:	756e7165 	.inst	0x756e7165 ; undefined
    2d98:	494d006d 	.inst	0x494d006d ; undefined
    2d9c:	54415247 	b.vc	857e4 <blk_mq_init_sched+0x8488c>
    2da0:	4e555f45 	.inst	0x4e555f45 ; undefined
    2da4:	41564f4d 	.inst	0x41564f4d ; undefined
    2da8:	00454c42 	.inst	0x00454c42 ; undefined
    2dac:	54534750 	.inst	0x54534750 ; undefined
    2db0:	5f4c4145 	.inst	0x5f4c4145 ; undefined
    2db4:	4157534b 	.inst	0x4157534b ; undefined
    2db8:	62004450 	.inst	0x62004450 ; undefined
    2dbc:	6f5f6b6c 	umlsl2	v12.4s, v27.8h, v15.h[5]
    2dc0:	73695f70 	.inst	0x73695f70 ; undefined
    2dc4:	7361705f 	.inst	0x7361705f ; undefined
    2dc8:	72687473 	.inst	0x72687473 ; undefined
    2dcc:	6867756f 	.inst	0x6867756f ; undefined
    2dd0:	425f5f00 	.inst	0x425f5f00 ; undefined
    2dd4:	545f4b4c 	b.gt	c173c <blk_mq_init_sched+0xc07e4>
    2dd8:	47435f41 	.inst	0x47435f41 ; undefined
    2ddc:	50554f52 	adr	x18, ad7c6 <blk_mq_init_sched+0xac86e>
    2de0:	5f524e00 	.inst	0x5f524e00 ; undefined
    2de4:	454e4f5a 	.inst	0x454e4f5a ; undefined
    2de8:	55524c5f 	.inst	0x55524c5f ; undefined
    2dec:	5341425f 	.inst	0x5341425f ; undefined
    2df0:	59530045 	.inst	0x59530045 ; undefined
    2df4:	4d455453 	.inst	0x4d455453 ; undefined
    2df8:	5345525f 	.inst	0x5345525f ; undefined
    2dfc:	54524154 	.inst	0x54524154 ; undefined
    2e00:	6d687300 	ldp	d0, d28, [x24, #-384]
    2e04:	655f6d65 	fcmeq	p5.h, p3/z, z11.h, z31.h
    2e08:	6c62616e 	ldnp	d14, d24, [x11, #-480]
    2e0c:	615f6465 	.inst	0x615f6465 ; undefined
    2e10:	00727474 	.inst	0x00727474 ; undefined
    2e14:	4d414e55 	.inst	0x4d414e55 ; undefined
    2e18:	00363245 	.inst	0x00363245 ; NYI
    2e1c:	5f766564 	.inst	0x5f766564 ; undefined
    2e20:	72747461 	.inst	0x72747461 ; undefined
    2e24:	6576655f 	fnmls	z31.h, p1/m, z10.h, z22.h
    2e28:	5f73746e 	sqshl	d14, d3, #51
    2e2c:	6e797361 	uabdl2	v1.4s, v27.8h, v25.8h
    2e30:	524e0063 	.inst	0x524e0063 ; undefined
    2e34:	4e4f5a5f 	uzp2	v31.8h, v18.8h, v15.8h
    2e38:	4e495f45 	.inst	0x4e495f45 ; undefined
    2e3c:	49544341 	.inst	0x49544341 ; undefined
    2e40:	465f4556 	.inst	0x465f4556 ; undefined
    2e44:	00454c49 	.inst	0x00454c49 ; undefined
    2e48:	696c6d6d 	ldpsw	x13, x27, [x11, #-160]
    2e4c:	6c5f7473 	ldnp	d19, d29, [x3, #496]
    2e50:	006b636f 	.inst	0x006b636f ; undefined
    2e54:	415f524e 	.inst	0x415f524e ; undefined
    2e58:	56495443 	.inst	0x56495443 ; undefined
    2e5c:	49465f45 	.inst	0x49465f45 ; undefined
    2e60:	7300454c 	.inst	0x7300454c ; undefined
    2e64:	70706177 	adr	x23, e3a93 <blk_mq_init_sched+0xe2b3b>
    2e68:	705f7265 	adr	x5, c1cb7 <blk_mq_init_sched+0xc0d5f>
    2e6c:	69645f67 	ldpsw	x7, x23, [x27, #-224]
    2e70:	47500072 	.inst	0x47500072 ; undefined
    2e74:	4f4c4c41 	.inst	0x4f4c4c41 ; undefined
    2e78:	4d445f43 	.inst	0x4d445f43 ; undefined
    2e7c:	00323341 	.inst	0x00323341 ; NYI
    2e80:	735f726e 	.inst	0x735f726e ; undefined
    2e84:	00736765 	.inst	0x00736765 ; undefined
    2e88:	63726570 	.inst	0x63726570 ; undefined
    2e8c:	635f7570 	.inst	0x635f7570 ; undefined
    2e90:	746e756f 	.inst	0x746e756f ; undefined
    2e94:	6f6e0070 	mla	v16.8h, v3.8h, v14.h[2]
    2e98:	645f6564 	fcmla	z4.h, p1/m, z11.h, z31.h, #270
    2e9c:	63697665 	.inst	0x63697665 ; undefined
    2ea0:	42007365 	.inst	0x42007365 ; undefined
    2ea4:	4d5f4b4c 	.inst	0x4d5f4b4c ; undefined
    2ea8:	5f465f51 	.inst	0x5f465f51 ; undefined
    2eac:	535f4f4e 	.inst	0x535f4f4e ; undefined
    2eb0:	44454843 	.inst	0x44454843 ; undefined
    2eb4:	5f59425f 	.inst	0x5f59425f ; undefined
    2eb8:	41464544 	.inst	0x41464544 ; undefined
    2ebc:	00544c55 	.inst	0x00544c55 ; undefined
    2ec0:	65646f6e 	fnmls	z14.h, p3/m, z27.h, z4.h
    2ec4:	6174735f 	.inst	0x6174735f ; undefined
    2ec8:	00736574 	.inst	0x00736574 ; undefined
    2ecc:	47504750 	.inst	0x47504750 ; undefined
    2ed0:	0054554f 	.inst	0x0054554f ; undefined
    2ed4:	6e756f63 	umin	v3.8h, v27.8h, v21.8h
    2ed8:	6f700074 	mla	v20.8h, v3.8h, v0.h[3]
    2edc:	5f726577 	.inst	0x5f726577 ; undefined
    2ee0:	6a626f6b 	bics	w11, w27, w2, lsr #27
    2ee4:	73696c00 	.inst	0x73696c00 ; undefined
    2ee8:	65685f74 	fnmla	z20.h, p7/m, z27.h, z8.h
    2eec:	75006461 	.inst	0x75006461 ; undefined
    2ef0:	5f646975 	.inst	0x5f646975 ; undefined
    2ef4:	6c6c756e 	ldnp	d14, d29, [x11, #-320]
    2ef8:	4c475000 	.inst	0x4c475000 ; undefined
    2efc:	46595a41 	.inst	0x46595a41 ; undefined
    2f00:	44454552 	.inst	0x44454552 ; undefined
    2f04:	73696c00 	.inst	0x73696c00 ; undefined
    2f08:	64615f74 	.inst	0x64615f74 ; undefined
    2f0c:	5f6c0064 	.inst	0x5f6c0064 ; undefined
    2f10:	00736579 	.inst	0x00736579 ; undefined
    2f14:	5f6b6c62 	.inst	0x5f6b6c62 ; undefined
    2f18:	685f716d 	.inst	0x685f716d ; undefined
    2f1c:	74635f77 	.inst	0x74635f77 ; undefined
    2f20:	65720078 	fmla	z24.h, p0/m, z3.h, z18.h
    2f24:	6c665f71 	ldnp	d17, d23, [x27, #-416]
    2f28:	5f736761 	.inst	0x5f736761 ; undefined
    2f2c:	42530074 	.inst	0x42530074 ; undefined
    2f30:	4552465f 	.inst	0x4552465f ; undefined
    2f34:	5f455a45 	.inst	0x5f455a45 ; undefined
    2f38:	504d4f43 	adr	x3, 9d922 <blk_mq_init_sched+0x9c9ca>
    2f3c:	4554454c 	.inst	0x4554454c ; undefined
    2f40:	696e6900 	ldpsw	x0, x26, [x8, #-144]
    2f44:	68745f74 	.inst	0x68745f74 ; undefined
    2f48:	64616572 	.inst	0x64616572 ; undefined
    2f4c:	696e755f 	ldpsw	xzr, x29, [x10, #-144]
    2f50:	5f006e6f 	.inst	0x5f006e6f ; undefined
    2f54:	696e6965 	ldpsw	x5, x26, [x11, #-144]
    2f58:	78657474 	.inst	0x78657474 ; undefined
    2f5c:	45520074 	.inst	0x45520074 ; undefined
    2f60:	504f5f51 	adr	x17, a1b4a <blk_mq_init_sched+0xa0bf2>
    2f64:	4e4f5a5f 	uzp2	v31.8h, v18.8h, v15.8h
    2f68:	50415f45 	adr	x5, 85b52 <blk_mq_init_sched+0x84bfa>
    2f6c:	444e4550 	.inst	0x444e4550 ; undefined
    2f70:	76656400 	.inst	0x76656400 ; undefined
    2f74:	5f656369 	.inst	0x5f656369 ; undefined
    2f78:	65707974 	fnmls	z20.h, p6/m, z11.h, z16.h
    2f7c:	646f6d00 	.inst	0x646f6d00 ; undefined
    2f80:	5f656c75 	.inst	0x5f656c75 ; undefined
    2f84:	7465736b 	.inst	0x7465736b ; undefined
    2f88:	73797300 	.inst	0x73797300 ; undefined
    2f8c:	5f6d6574 	.inst	0x5f6d6574 ; undefined
    2f90:	65776f70 	fnmls	z16.h, p3/m, z27.h, z23.h
    2f94:	66655f72 	.inst	0x66655f72 ; undefined
    2f98:	69636966 	ldpsw	x6, x26, [x11, #-232]
    2f9c:	5f746e65 	.inst	0x5f746e65 ; undefined
    2fa0:	6e007177 	ext	v23.16b, v11.16b, v0.16b, #14
    2fa4:	72695f72 	.inst	0x72695f72 ; undefined
    2fa8:	53007371 	ubfx	w17, w27, #0, #29
    2fac:	4e555f42 	.inst	0x4e555f42 ; undefined
    2fb0:	5a4f5246 	.inst	0x5a4f5246 ; undefined
    2fb4:	73004e45 	.inst	0x73004e45 ; undefined
    2fb8:	74637379 	.inst	0x74637379 ; undefined
    2fbc:	72645f6c 	.inst	0x72645f6c ; undefined
    2fc0:	635f706f 	.inst	0x635f706f ; undefined
    2fc4:	65686361 	fnmls	z1.h, p0/m, z27.h, z8.h
    2fc8:	52480073 	.inst	0x52480073 ; undefined
    2fcc:	454d4954 	.inst	0x454d4954 ; undefined
    2fd0:	41425f52 	.inst	0x41425f52 ; undefined
    2fd4:	425f4553 	.inst	0x425f4553 ; undefined
    2fd8:	54544f4f 	b.nv	ab9c0 <blk_mq_init_sched+0xaaa68>
    2fdc:	00454d49 	.inst	0x00454d49 ; undefined
    2fe0:	61726170 	.inst	0x61726170 ; undefined
    2fe4:	706f5f6d 	adr	x13, e1bd3 <blk_mq_init_sched+0xe0c7b>
    2fe8:	6f6c5f73 	.inst	0x6f6c5f73 ; undefined
    2fec:	6400676e 	.inst	0x6400676e ; undefined
    2ff0:	72746e65 	.inst	0x72746e65 ; undefined
    2ff4:	72700079 	.inst	0x72700079 ; undefined
    2ff8:	5f746e69 	.inst	0x5f746e69 ; undefined
    2ffc:	61746166 	.inst	0x61746166 ; undefined
    3000:	69735f6c 	ldpsw	x12, x23, [x27, #-104]
    3004:	6c616e67 	ldnp	d7, d27, [x19, #-496]
    3008:	656d0073 	fmla	z19.h, p0/m, z3.h, z13.h
    300c:	6f6c626d 	umlsl2	v13.4s, v19.8h, v12.h[2]
    3010:	42006b63 	.inst	0x42006b63 ; undefined
    3014:	4d5f4b4c 	.inst	0x4d5f4b4c ; undefined
    3018:	414d5f51 	.inst	0x414d5f51 ; undefined
    301c:	45445f58 	.inst	0x45445f58 ; undefined
    3020:	00485450 	.inst	0x00485450 ; undefined
    3024:	6164735f 	.inst	0x6164735f ; undefined
    3028:	4e006174 	tbl	v20.16b, {v11.16b-v14.16b}, v0.16b
    302c:	48535f52 	ldxrh	w18, [x26]
    3030:	5f4d454d 	.inst	0x5f4d454d ; undefined
    3034:	53504854 	.inst	0x53504854 ; undefined
    3038:	41475000 	.inst	0x41475000 ; undefined
    303c:	434f4c4c 	.inst	0x434f4c4c ; undefined
    3040:	414d445f 	.inst	0x414d445f ; undefined
    3044:	5f4d4d00 	.inst	0x5f4d4d00 ; undefined
    3048:	454c4946 	.inst	0x454c4946 ; undefined
    304c:	45474150 	.inst	0x45474150 ; undefined
    3050:	524e0053 	.inst	0x524e0053 ; undefined
    3054:	5f4d565f 	shl	d31, d18, #13
    3058:	454e4f5a 	.inst	0x454e4f5a ; undefined
    305c:	4154535f 	.inst	0x4154535f ; undefined
    3060:	54495f54 	.inst	0x54495f54 ; undefined
    3064:	00534d45 	.inst	0x00534d45 ; undefined
    3068:	5247494d 	.inst	0x5247494d ; undefined
    306c:	5f455441 	shl	d1, d2, #5
    3070:	00414d43 	.inst	0x00414d43 ; undefined
    3074:	4c4c554e 	.inst	0x4c4c554e ; undefined
    3078:	4d4f435f 	.inst	0x4d4f435f ; undefined
    307c:	4e554f50 	.inst	0x4e554f50 ; undefined
    3080:	54445f44 	b.mi	8bc68 <blk_mq_init_sched+0x8ad10>  // b.first
    3084:	5700524f 	.inst	0x5700524f ; undefined
    3088:	4b52414d 	sub	w13, w10, w18, lsr #16
    308c:	574f4c5f 	.inst	0x574f4c5f ; undefined
    3090:	6d756e00 	ldp	d0, d27, [x16, #-176]
    3094:	74735f61 	.inst	0x74735f61 ; undefined
    3098:	695f7461 	ldpsw	x1, x29, [x3, #248]
    309c:	006d6574 	.inst	0x006d6574 ; undefined
    30a0:	4c5f524e 	.inst	0x4c5f524e ; undefined
    30a4:	425f5552 	.inst	0x425f5552 ; undefined
    30a8:	00455341 	.inst	0x00455341 ; undefined
    30ac:	6574616c 	fnmls	z12.h, p0/m, z11.h, z20.h
    30b0:	6d69745f 	ldp	d31, d29, [x2, #-368]
    30b4:	6e695f65 	uqrshl	v5.8h, v27.8h, v9.8h
    30b8:	5f007469 	.inst	0x5f007469 ; undefined
    30bc:	746e655f 	.inst	0x746e655f ; undefined
    30c0:	745f7972 	.inst	0x745f7972 ; undefined
    30c4:	706d6172 	adr	x18, ddcf3 <blk_mq_init_sched+0xdcd9b>
    30c8:	7865745f 	.inst	0x7865745f ; undefined
    30cc:	74735f74 	.inst	0x74735f74 ; undefined
    30d0:	00747261 	.inst	0x00747261 ; undefined
    30d4:	43534750 	.inst	0x43534750 ; undefined
    30d8:	535f4e41 	.inst	0x535f4e41 ; undefined
    30dc:	5f50494b 	.inst	0x5f50494b ; undefined
    30e0:	4d524f4e 	.inst	0x4d524f4e ; undefined
    30e4:	64004c41 	.inst	0x64004c41 ; undefined
    30e8:	6773656d 	.inst	0x6773656d ; undefined
    30ec:	7365725f 	.inst	0x7365725f ; undefined
    30f0:	63697274 	.inst	0x63697274 ; undefined
    30f4:	72640074 	.inst	0x72640074 ; undefined
    30f8:	72657669 	.inst	0x72657669 ; undefined
    30fc:	6665645f 	.inst	0x6665645f ; undefined
    3100:	65727265 	fnmls	z5.h, p4/m, z19.h, z18.h
    3104:	72705f64 	.inst	0x72705f64 ; undefined
    3108:	5f65626f 	.inst	0x5f65626f ; undefined
    310c:	656d6974 	fnmls	z20.h, p2/m, z11.h, z13.h
    3110:	0074756f 	.inst	0x0074756f ; undefined
    3114:	5f6b6c62 	.inst	0x5f6b6c62 ; undefined
    3118:	695f716d 	ldpsw	x13, x28, [x11, #248]
    311c:	5f74696e 	.inst	0x5f74696e ; undefined
    3120:	65686373 	fnmls	z19.h, p0/m, z27.h, z8.h
    3124:	68735f64 	.inst	0x68735f64 ; undefined
    3128:	64657261 	.inst	0x64657261 ; undefined
    312c:	6761745f 	.inst	0x6761745f ; undefined
    3130:	5f5f0073 	.inst	0x5f5f0073 ; undefined
    3134:	5f646e65 	.inst	0x5f646e65 ; undefined
    3138:	615f6f72 	.inst	0x615f6f72 ; undefined
    313c:	72657466 	.inst	0x72657466 ; undefined
    3140:	696e695f 	ldpsw	xzr, x26, [x10, #-144]
    3144:	656d0074 	fmla	z20.h, p0/m, z3.h, z13.h
    3148:	6174736d 	.inst	0x6174736d ; undefined
    314c:	615f7472 	.inst	0x615f7472 ; undefined
    3150:	00726464 	.inst	0x00726464 ; undefined
    3154:	49545248 	.inst	0x49545248 ; undefined
    3158:	5f52454d 	.inst	0x5f52454d ; undefined
    315c:	45534142 	.inst	0x45534142 ; undefined
    3160:	4145525f 	.inst	0x4145525f ; undefined
    3164:	4d49544c 	.inst	0x4d49544c ; undefined
    3168:	69640045 	ldpsw	x5, x0, [x2, #-224]
    316c:	74617073 	.inst	0x74617073 ; undefined
    3170:	4e006863 	trn2	v3.16b, v3.16b, v0.16b
    3174:	49465f52 	.inst	0x49465f52 ; undefined
    3178:	505f454c 	adr	x12, c1a22 <blk_mq_init_sched+0xc0aca>
    317c:	414d444d 	.inst	0x414d444d ; undefined
    3180:	44455050 	.inst	0x44455050 ; undefined
    3184:	655f5f00 	fcmge	p0.h, p7/z, z24.h, z31.h
    3188:	725f646e 	.inst	0x725f646e ; undefined
    318c:	7461646f 	.inst	0x7461646f ; undefined
    3190:	5f5f0061 	.inst	0x5f5f0061 ; undefined
    3194:	5f4b4c42 	.inst	0x5f4b4c42 ; undefined
    3198:	445f4154 	.inst	0x445f4154 ; undefined
    319c:	445f5652 	.inst	0x445f5652 ; undefined
    31a0:	00415441 	.inst	0x00415441 ; undefined
    31a4:	72657375 	.inst	0x72657375 ; undefined
    31a8:	7274735f 	.inst	0x7274735f ; undefined
    31ac:	00746375 	.inst	0x00746375 ; undefined
    31b0:	494d4750 	.inst	0x494d4750 ; undefined
    31b4:	54415247 	b.vc	85bfc <blk_mq_init_sched+0x84ca4>
    31b8:	41465f45 	.inst	0x41465f45 ; undefined
    31bc:	4b004c49 	sub	w9, w2, w0, lsl #19
    31c0:	504d4f43 	adr	x3, 9dbaa <blk_mq_init_sched+0x9cc52>
    31c4:	44544341 	.inst	0x44544341 ; undefined
    31c8:	4552465f 	.inst	0x4552465f ; undefined
    31cc:	43535f45 	.inst	0x43535f45 ; undefined
    31d0:	454e4e41 	.inst	0x454e4e41 ; undefined
    31d4:	43480044 	.inst	0x43480044 ; undefined
    31d8:	545f5854 	.inst	0x545f5854 ; undefined
    31dc:	5f455059 	.inst	0x5f455059 ; undefined
    31e0:	4c4c4f50 	.inst	0x4c4c4f50 ; undefined
    31e4:	72657000 	.inst	0x72657000 ; undefined
    31e8:	5f757063 	sqdmlsl	s3, h3, v5.h[3]
    31ec:	6e756f63 	umin	v3.8h, v27.8h, v21.8h
    31f0:	5f4e0074 	.inst	0x5f4e0074 ; undefined
    31f4:	53534f50 	.inst	0x53534f50 ; undefined
    31f8:	454c4249 	.inst	0x454c4249 ; undefined
    31fc:	6b6c6200 	.inst	0x6b6c6200 ; undefined
    3200:	5f716d5f 	.inst	0x5f716d5f ; undefined
    3204:	5f746573 	.inst	0x5f746573 ; undefined
    3208:	625f7172 	.inst	0x625f7172 ; undefined
    320c:	65676475 	fnmls	z21.h, p1/m, z3.h, z7.h
    3210:	6f745f74 	.inst	0x6f745f74 ; undefined
    3214:	006e656b 	.inst	0x006e656b ; undefined
    3218:	65726874 	fnmls	z20.h, p2/m, z3.h, z18.h
    321c:	755f6461 	.inst	0x755f6461 ; undefined
    3220:	6e6f696e 	.inst	0x6e6f696e ; undefined
    3224:	50435000 	adr	x0, 89c26 <blk_mq_init_sched+0x88cce>
    3228:	43465f55 	.inst	0x43465f55 ; undefined
    322c:	00524e5f 	.inst	0x00524e5f ; undefined
    3230:	706d756a 	adr	x10, de0df <blk_mq_init_sched+0xdd187>
    3234:	746e655f 	.inst	0x746e655f ; undefined
    3238:	63007972 	.inst	0x63007972 ; undefined
    323c:	745f6c74 	.inst	0x745f6c74 ; undefined
    3240:	656c6261 	fnmls	z1.h, p0/m, z19.h, z12.h
    3244:	5f524e00 	.inst	0x5f524e00 ; undefined
    3248:	54495257 	.inst	0x54495257 ; undefined
    324c:	004e4554 	.inst	0x004e4554 ; undefined
    3250:	4b524f57 	sub	w23, w26, w18, lsr #19
    3254:	53474e49 	.inst	0x53474e49 ; undefined
    3258:	525f5445 	.inst	0x525f5445 ; undefined
    325c:	4f545345 	.inst	0x4f545345 ; undefined
    3260:	465f4552 	.inst	0x465f4552 ; undefined
    3264:	00454c49 	.inst	0x00454c49 ; undefined
    3268:	73625f5f 	.inst	0x73625f5f ; undefined
    326c:	74735f73 	.inst	0x74735f73 ; undefined
    3270:	00747261 	.inst	0x00747261 ; undefined
    3274:	415f524e 	.inst	0x415f524e ; undefined
    3278:	5f4e4f4e 	.inst	0x5f4e4f4e ; undefined
    327c:	5050414d 	adr	x13, a3aa6 <blk_mq_init_sched+0xa2b4e>
    3280:	73004445 	.inst	0x73004445 ; undefined
    3284:	65747379 	fnmls	z25.h, p4/m, z27.h, z20.h
    3288:	74735f6d 	.inst	0x74735f6d ; undefined
    328c:	00657461 	.inst	0x00657461 ; undefined
    3290:	656b6f74 	fnmls	z20.h, p3/m, z27.h, z11.h
    3294:	7274006e 	.inst	0x7274006e ; undefined
    3298:	70656361 	adr	x1, cdf07 <blk_mq_init_sched+0xccfaf>
    329c:	746e696f 	.inst	0x746e696f ; undefined
    32a0:	6372735f 	.inst	0x6372735f ; undefined
    32a4:	5f5f0075 	.inst	0x5f5f0075 ; undefined
    32a8:	00727470 	.inst	0x00727470 ; undefined
    32ac:	43534750 	.inst	0x43534750 ; undefined
    32b0:	445f4e41 	.inst	0x445f4e41 ; undefined
    32b4:	43455249 	.inst	0x43455249 ; undefined
    32b8:	4f430054 	.inst	0x4f430054 ; undefined
    32bc:	554f504d 	.inst	0x554f504d ; undefined
    32c0:	505f444e 	adr	x14, c1b4a <blk_mq_init_sched+0xc0bf2>
    32c4:	5f454741 	.inst	0x5f454741 ; undefined
    32c8:	524f5444 	.inst	0x524f5444 ; undefined
    32cc:	4d4f4300 	.inst	0x4d4f4300 ; undefined
    32d0:	54434150 	.inst	0x54434150 ; undefined
    32d4:	43435553 	.inst	0x43435553 ; undefined
    32d8:	00535345 	.inst	0x00535345 ; undefined
    32dc:	45474150 	.inst	0x45474150 ; undefined
    32e0:	5254554f 	.inst	0x5254554f ; undefined
    32e4:	65004e55 	.inst	0x65004e55 ; undefined
    32e8:	796c7261 	ldrh	w1, [x19, #5688]
    32ec:	6f6f625f 	umlsl2	v31.4s, v18.8h, v15.h[2]
    32f0:	72695f74 	.inst	0x72695f74 ; undefined
    32f4:	645f7371 	fcmla	z17.h, p4/m, z27.h, z31.h, #270
    32f8:	62617369 	.inst	0x62617369 ; undefined
    32fc:	0064656c 	.inst	0x0064656c ; undefined
    3300:	5f465144 	.inst	0x5f465144 ; undefined
    3304:	5f535953 	.inst	0x5f535953 ; undefined
    3308:	454c4946 	.inst	0x454c4946 ; undefined
    330c:	5f00425f 	.inst	0x5f00425f ; undefined
    3310:	746e655f 	.inst	0x746e655f ; undefined
    3314:	745f7972 	.inst	0x745f7972 ; undefined
    3318:	5f747865 	sqdmlsl	s5, h3, v4.h[7]
    331c:	72617473 	.inst	0x72617473 ; undefined
    3320:	74730074 	.inst	0x74730074 ; undefined
    3324:	675f7461 	.inst	0x675f7461 ; undefined
    3328:	70756f72 	adr	x18, ee117 <blk_mq_init_sched+0xed1bf>
    332c:	63726100 	.inst	0x63726100 ; undefined
    3330:	6c635f68 	ldnp	d8, d23, [x27, #-464]
    3334:	5f726165 	.inst	0x5f726165 ; undefined
    3338:	00746962 	.inst	0x00746962 ; undefined
    333c:	65646f6e 	fnmls	z14.h, p3/m, z27.h, z4.h
    3340:	4b4c4200 	sub	w0, w16, w12, lsr #16
    3344:	5f514d5f 	.inst	0x5f514d5f ; undefined
    3348:	4c415f46 	.inst	0x4c415f46 ; undefined
    334c:	5f434f4c 	.inst	0x5f434f4c ; undefined
    3350:	494c4f50 	.inst	0x494c4f50 ; undefined
    3354:	535f5943 	.inst	0x535f5943 ; undefined
    3358:	54524154 	.inst	0x54524154 ; undefined
    335c:	5449425f 	.inst	0x5449425f ; undefined
    3360:	64616300 	.inst	0x64616300 ; undefined
    3364:	6469705f 	.inst	0x6469705f ; undefined
    3368:	75706300 	.inst	0x75706300 ; undefined
    336c:	6377685f 	.inst	0x6377685f ; undefined
    3370:	6b5f7061 	subs	w1, w3, wzr, lsr #28
    3374:	00737965 	.inst	0x00737965 ; undefined
    3378:	5f6b6c62 	.inst	0x5f6b6c62 ; undefined
    337c:	725f716d 	.inst	0x725f716d ; undefined
    3380:	665f7165 	.inst	0x665f7165 ; undefined
    3384:	7367616c 	.inst	0x7367616c ; undefined
    3388:	6400745f 	.inst	0x6400745f ; undefined
    338c:	725f6665 	.inst	0x725f6665 ; undefined
    3390:	5f746f6f 	.inst	0x5f746f6f ; undefined
    3394:	616d6f64 	.inst	0x616d6f64 ; undefined
    3398:	5f006e69 	.inst	0x5f006e69 ; undefined
    339c:	6f74635f 	umlsl2	v31.4s, v26.8h, v4.h[3]
    33a0:	655f7372 	fcmne	p2.h, p4/z, z27.h, z31.h
    33a4:	5000646e 	adr	x14, 4032 <.debug_str+0x4032>
    33a8:	59544449 	.inst	0x59544449 ; undefined
    33ac:	505f4550 	adr	x16, c1c56 <blk_mq_init_sched+0xc0cfe>
    33b0:	68004449 	.inst	0x68004449 ; undefined
    33b4:	72657079 	.inst	0x72657079 ; undefined
    33b8:	6f736976 	umlsl2	v22.4s, v11.8h, v3.h[7]
    33bc:	6f6b5f72 	.inst	0x6f6b5f72 ; undefined
    33c0:	50006a62 	adr	x2, 410e <.debug_str+0x410e>
    33c4:	4a414d47 	eor	w7, w10, w1, lsr #19
    33c8:	4c554146 	.inst	0x4c554146 ; undefined
    33cc:	65720054 	fmla	z20.h, p0/m, z2.h, z18.h
    33d0:	746f6f62 	.inst	0x746f6f62 ; undefined
    33d4:	746f6e5f 	.inst	0x746f6e5f ; undefined
    33d8:	65696669 	fnmls	z9.h, p1/m, z19.h, z9.h
    33dc:	696c5f72 	ldpsw	x18, x23, [x27, #-160]
    33e0:	73007473 	.inst	0x73007473 ; undefined
    33e4:	74637379 	.inst	0x74637379 ; undefined
    33e8:	766f5f6c 	.inst	0x766f5f6c ; undefined
    33ec:	6f637265 	fcmla	v5.8h, v19.8h, v3.h[1], #270
    33f0:	74696d6d 	.inst	0x74696d6d ; undefined
    33f4:	7461725f 	.inst	0x7461725f ; undefined
    33f8:	5f006f69 	.inst	0x5f006f69 ; undefined
    33fc:	5145525f 	sub	wsp, w18, #0x154, lsl #12
    3400:	544e495f 	.inst	0x544e495f ; undefined
    3404:	49524745 	.inst	0x49524745 ; undefined
    3408:	6c005954 	stnp	d20, d22, [x10]
    340c:	78756e69 	.inst	0x78756e69 ; undefined
    3410:	6e61625f 	rsubhn2	v31.8h, v18.4s, v1.4s
    3414:	0072656e 	.inst	0x0072656e ; undefined
    3418:	72746e65 	.inst	0x72746e65 ; undefined
    341c:	6f720079 	mla	v25.8h, v3.8h, v2.h[3]
    3420:	6d5f746f 	ldp	d15, d29, [x3, #496]
    3424:	746e756f 	.inst	0x746e756f ; undefined
    3428:	67616c66 	.inst	0x67616c66 ; undefined
    342c:	59480073 	.inst	0x59480073 ; undefined
    3430:	56524550 	.inst	0x56524550 ; undefined
    3434:	524f5349 	.inst	0x524f5349 ; undefined
    3438:	6168735f 	.inst	0x6168735f ; undefined
    343c:	5f646572 	.inst	0x5f646572 ; undefined
    3440:	6f666e69 	.inst	0x6f666e69 ; undefined
    3444:	6b5f5f00 	subs	w0, w24, wzr, lsr #23
    3448:	656e7265 	fnmls	z5.h, p4/m, z19.h, z14.h
    344c:	69735f6c 	ldpsw	x12, x23, [x27, #-104]
    3450:	745f657a 	.inst	0x745f657a ; undefined
    3454:	6b6c6200 	.inst	0x6b6c6200 ; undefined
    3458:	5f716d5f 	.inst	0x5f716d5f ; undefined
    345c:	65686373 	fnmls	z19.h, p0/m, z27.h, z8.h
    3460:	616d5f64 	.inst	0x616d5f64 ; undefined
    3464:	725f6b72 	.inst	0x725f6b72 ; undefined
    3468:	61747365 	.inst	0x61747365 ; undefined
    346c:	685f7472 	.inst	0x685f7472 ; undefined
    3470:	00787463 	.inst	0x00787463 ; undefined
    3474:	615f6469 	.inst	0x615f6469 ; undefined
    3478:	69343661 	.inst	0x69343661 ; undefined
    347c:	31726173 	adds	w19, w11, #0xc98, lsl #12
    3480:	65766f5f 	fnmls	z31.h, p3/m, z26.h, z22.h
    3484:	64697272 	.inst	0x64697272 ; undefined
    3488:	76680065 	.inst	0x76680065 ; undefined
    348c:	74735f6d 	.inst	0x74735f6d ; undefined
    3490:	5f747261 	sqdmlsl	s1, h19, v4.h[3]
    3494:	6f666e69 	.inst	0x6f666e69 ; undefined
    3498:	73616c00 	.inst	0x73616c00 ; undefined
    349c:	5f5f0074 	.inst	0x5f5f0074 ; undefined
    34a0:	5f6e6f63 	.inst	0x5f6e6f63 ; undefined
    34a4:	74696e69 	.inst	0x74696e69 ; undefined
    34a8:	6c6c6163 	ldnp	d3, d24, [x11, #-320]
    34ac:	646e655f 	.inst	0x646e655f ; undefined
    34b0:	6f687300 	fcmla	v0.8h, v24.8h, v8.h[1], #270
    34b4:	69207472 	.inst	0x69207472 ; undefined
    34b8:	5f00746e 	.inst	0x5f00746e ; undefined
    34bc:	7570635f 	.inst	0x7570635f ; undefined
    34c0:	6c6e6f5f 	ldnp	d31, d27, [x26, #-288]
    34c4:	5f656e69 	.inst	0x5f656e69 ; undefined
    34c8:	6b73616d 	.inst	0x6b73616d ; undefined
    34cc:	6b6c6200 	.inst	0x6b6c6200 ; undefined
    34d0:	7165725f 	cmp	w18, #0x95c, lsl #12
    34d4:	74736575 	.inst	0x74736575 ; undefined
    34d8:	61635f71 	.inst	0x61635f71 ; undefined
    34dc:	70656863 	adr	x3, ce1eb <blk_mq_init_sched+0xcd293>
    34e0:	535f5f00 	.inst	0x535f5f00 ; undefined
    34e4:	53415f44 	.inst	0x53415f44 ; undefined
    34e8:	505f4d59 	adr	x25, c1e92 <blk_mq_init_sched+0xc0f3a>
    34ec:	494b4341 	.inst	0x494b4341 ; undefined
    34f0:	7200474e 	ands	w14, w26, #0x3ffff
    34f4:	5f716573 	.inst	0x5f716573 ; undefined
    34f8:	665f7363 	.inst	0x665f7363 ; undefined
    34fc:	7367616c 	.inst	0x7367616c ; undefined
    3500:	7469625f 	.inst	0x7469625f ; undefined
    3504:	72696600 	.inst	0x72696600 ; undefined
    3508:	7261776d 	.inst	0x7261776d ; undefined
    350c:	6f6b5f65 	.inst	0x6f6b5f65 ; undefined
    3510:	6b006a62 	subs	w2, w19, w0, lsl #26
    3514:	5f6d656d 	.inst	0x5f6d656d ; undefined
    3518:	68636163 	.inst	0x68636163 ; undefined
    351c:	5f5f0065 	.inst	0x5f5f0065 ; undefined
    3520:	7274736b 	.inst	0x7274736b ; undefined
    3524:	5f626174 	.inst	0x5f626174 ; undefined
    3528:	5f6b6c62 	.inst	0x5f6b6c62 ; undefined
    352c:	735f716d 	.inst	0x735f716d ; undefined
    3530:	64656863 	.inst	0x64656863 ; undefined
    3534:	7972745f 	ldrh	wzr, [x2, #6458]
    3538:	736e695f 	.inst	0x736e695f ; undefined
    353c:	5f747265 	sqdmlsl	s5, h19, v4.h[3]
    3540:	6772656d 	.inst	0x6772656d ; undefined
    3544:	554e0065 	.inst	0x554e0065 ; undefined
    3548:	4d5f414d 	.inst	0x4d5f414d ; undefined
    354c:	00535349 	.inst	0x00535349 ; undefined
    3550:	67647562 	.inst	0x67647562 ; undefined
    3554:	745f7465 	.inst	0x745f7465 ; undefined
    3558:	6e656b6f 	.inst	0x6e656b6f ; undefined
    355c:	765f5f00 	.inst	0x765f5f00 ; undefined
    3560:	765f7070 	.inst	0x765f7070 ; undefined
    3564:	66697265 	.inst	0x66697265 ; undefined
    3568:	5f5f0079 	.inst	0x5f5f0079 ; undefined
    356c:	4e5f4453 	.inst	0x4e5f4453 ; undefined
    3570:	00414d55 	.inst	0x00414d55 ; undefined
    3574:	6d6f7461 	ldp	d1, d29, [x3, #-272]
    3578:	6c5f6369 	ldnp	d9, d24, [x27, #496]
    357c:	5f676e6f 	.inst	0x5f676e6f ; undefined
    3580:	00646461 	.inst	0x00646461 ; undefined
    3584:	636f6c62 	.inst	0x636f6c62 ; undefined
    3588:	6c635f6b 	ldnp	d11, d23, [x27, #-464]
    358c:	00737361 	.inst	0x00737361 ; undefined
    3590:	4b5f524e 	sub	w14, w18, wzr, lsr #20
    3594:	454e5245 	.inst	0x454e5245 ; undefined
    3598:	494d5f4c 	.inst	0x494d5f4c ; undefined
    359c:	525f4353 	.inst	0x525f4353 ; undefined
    35a0:	414c4345 	.inst	0x414c4345 ; undefined
    35a4:	42414d49 	.inst	0x42414d49 ; undefined
    35a8:	6100454c 	.inst	0x6100454c ; undefined
    35ac:	5f686372 	.inst	0x5f686372 ; undefined
    35b0:	74617473 	.inst	0x74617473 ; undefined
    35b4:	625f6369 	.inst	0x625f6369 ; undefined
    35b8:	636e6172 	.inst	0x636e6172 ; undefined
    35bc:	756a5f68 	.inst	0x756a5f68 ; undefined
    35c0:	6e00706d 	ext	v13.16b, v3.16b, v0.16b, #14
    35c4:	70635f72 	adr	x18, ca1b3 <blk_mq_init_sched+0xc925b>
    35c8:	64695f75 	.inst	0x64695f75 ; undefined
    35cc:	74610073 	.inst	0x74610073 ; undefined
    35d0:	63696d6f 	.inst	0x63696d6f ; undefined
    35d4:	6e6f6c5f 	umin	v31.8h, v2.8h, v15.8h
    35d8:	00745f67 	.inst	0x00745f67 ; undefined
    35dc:	66737973 	.inst	0x66737973 ; undefined
    35e0:	706f5f73 	adr	x19, e21cf <blk_mq_init_sched+0xe1277>
    35e4:	72700073 	.inst	0x72700073 ; undefined
    35e8:	74657365 	.inst	0x74657365 ; undefined
    35ec:	6a706c5f 	bics	wzr, w2, w16, lsr #27
    35f0:	745f5f00 	.inst	0x745f5f00 ; undefined
    35f4:	65636172 	fnmls	z18.h, p0/m, z11.h, z3.h
    35f8:	6e696f70 	umin	v16.8h, v27.8h, v9.8h
    35fc:	61705f74 	.inst	0x61705f74 ; undefined
    3600:	725f6567 	.inst	0x725f6567 ; undefined
    3604:	6d5f6665 	ldp	d5, d25, [x19, #496]
    3608:	615f646f 	.inst	0x615f646f ; undefined
    360c:	745f646e 	.inst	0x745f646e ; undefined
    3610:	00747365 	.inst	0x00747365 ; undefined
    3614:	635f6f69 	.inst	0x635f6f69 ; undefined
    3618:	65746e6f 	fnmls	z15.h, p3/m, z19.h, z20.h
    361c:	55007478 	.inst	0x55007478 ; undefined
    3620:	4956454e 	.inst	0x4956454e ; undefined
    3624:	42415443 	.inst	0x42415443 ; undefined
    3628:	505f454c 	adr	x12, c1ed2 <blk_mq_init_sched+0xc0f7a>
    362c:	4c554347 	.inst	0x4c554347 ; undefined
    3630:	0044454c 	.inst	0x0044454c ; undefined
    3634:	5f757063 	sqdmlsl	s3, h3, v5.h[3]
    3638:	626d756e 	.inst	0x626d756e ; undefined
    363c:	70007265 	adr	x5, 448b <.debug_str+0x448b>
    3640:	6d617261 	ldp	d1, d28, [x19, #-496]
    3644:	73706f5f 	.inst	0x73706f5f ; undefined
    3648:	6c6c755f 	ldnp	d31, d29, [x10, #-320]
    364c:	00676e6f 	.inst	0x00676e6f ; undefined
    3650:	6f5f7366 	.inst	0x6f5f7366 ; undefined
    3654:	66726576 	.inst	0x66726576 ; undefined
    3658:	75776f6c 	.inst	0x75776f6c ; undefined
    365c:	70006469 	adr	x9, 42eb <.debug_str+0x42eb>
    3660:	63696e61 	.inst	0x63696e61 ; undefined
    3664:	5f6e6f5f 	.inst	0x5f6e6f5f ; undefined
    3668:	6e696174 	rsubhn2	v20.8h, v11.4s, v9.4s
    366c:	63680074 	.inst	0x63680074 ; undefined
    3670:	6c5f7874 	ldnp	d20, d30, [x3, #496]
    3674:	00747369 	.inst	0x00747369 ; undefined
    3678:	6d5f7172 	ldp	d18, d28, [x11, #496]
    367c:	65677265 	fnmls	z5.h, p4/m, z19.h, z7.h
    3680:	656c6261 	fnmls	z1.h, p0/m, z19.h, z12.h
    3684:	625f5f00 	.inst	0x625f5f00 ; undefined
    3688:	6d5f6b6c 	ldp	d12, d26, [x27, #496]
    368c:	63735f71 	.inst	0x63735f71 ; undefined
    3690:	5f646568 	.inst	0x5f646568 ; undefined
    3694:	70736964 	adr	x4, ea3c3 <blk_mq_init_sched+0xe946b>
    3698:	68637461 	.inst	0x68637461 ; undefined
    369c:	7165725f 	cmp	w18, #0x95c, lsl #12
    36a0:	74736575 	.inst	0x74736575 ; undefined
    36a4:	45520073 	.inst	0x45520073 ; undefined
    36a8:	504f5f51 	adr	x17, a2292 <blk_mq_init_sched+0xa133a>
    36ac:	4e4f5a5f 	uzp2	v31.8h, v18.8h, v15.8h
    36b0:	45525f45 	.inst	0x45525f45 ; undefined
    36b4:	5f544553 	.inst	0x5f544553 ; undefined
    36b8:	004c4c41 	.inst	0x004c4c41 ; undefined
    36bc:	736c5f5f 	.inst	0x736c5f5f ; undefined
    36c0:	74615f65 	.inst	0x74615f65 ; undefined
    36c4:	63696d6f 	.inst	0x63696d6f ; undefined
    36c8:	615f3436 	.inst	0x615f3436 ; undefined
    36cc:	6f6e646e 	sqshlu	v14.2d, v3.2d, #46
    36d0:	6d6d0074 	ldp	d20, d0, [x3, #-304]
    36d4:	7274735f 	.inst	0x7274735f ; undefined
    36d8:	00746375 	.inst	0x00746375 ; undefined
    36dc:	74696e69 	.inst	0x74696e69 ; undefined
    36e0:	5f6e6f5f 	.inst	0x5f6e6f5f ; undefined
    36e4:	65657266 	fnmls	z6.h, p4/m, z19.h, z5.h
    36e8:	65736b00 	fnmls	z0.h, p2/m, z24.h, z19.h
    36ec:	5f5f0074 	.inst	0x5f5f0074 ; undefined
    36f0:	72617473 	.inst	0x72617473 ; undefined
    36f4:	5f5f5f74 	.inst	0x5f5f5f74 ; undefined
    36f8:	706d756a 	adr	x10, de5a7 <blk_mq_init_sched+0xdd64f>
    36fc:	6261745f 	.inst	0x6261745f ; undefined
    3700:	6700656c 	.inst	0x6700656c ; undefined
    3704:	615f7066 	.inst	0x615f7066 ; undefined
    3708:	776f6c6c 	.inst	0x776f6c6c ; undefined
    370c:	6d5f6465 	ldp	d5, d25, [x3, #496]
    3710:	006b7361 	.inst	0x006b7361 ; undefined
    3714:	5a5f524e 	.inst	0x5a5f524e ; undefined
    3718:	5f454e4f 	.inst	0x5f454e4f ; undefined
    371c:	54495257 	.inst	0x54495257 ; undefined
    3720:	45505f45 	.inst	0x45505f45 ; undefined
    3724:	4e49444e 	.inst	0x4e49444e ; undefined
    3728:	524e0047 	.inst	0x524e0047 ; undefined
    372c:	534d565f 	.inst	0x534d565f ; undefined
    3730:	5f4e4143 	.inst	0x5f4e4143 ; undefined
    3734:	454d4d49 	.inst	0x454d4d49 ; undefined
    3738:	54414944 	b.mi	86060 <blk_mq_init_sched+0x85108>  // b.first
    373c:	6f6c0045 	mla	v5.8h, v2.8h, v12.h[2]
    3740:	6920676e 	.inst	0x6920676e ; undefined
    3744:	6200746e 	.inst	0x6200746e ; undefined
    3748:	6d5f6b6c 	ldp	d12, d26, [x27, #496]
    374c:	74635f71 	.inst	0x74635f71 ; undefined
    3750:	52480078 	.inst	0x52480078 ; undefined
    3754:	454d4954 	.inst	0x454d4954 ; undefined
    3758:	4f535f52 	.inst	0x4f535f52 ; undefined
    375c:	52495446 	.inst	0x52495446 ; undefined
    3760:	5f5f0051 	.inst	0x5f5f0051 ; undefined
    3764:	6c726165 	ldnp	d5, d24, [x11, #-224]
    3768:	70635f79 	adr	x25, ca357 <blk_mq_init_sched+0xc93ff>
    376c:	6f625f75 	.inst	0x6f625f75 ; undefined
    3770:	735f746f 	.inst	0x735f746f ; undefined
    3774:	75746174 	.inst	0x75746174 ; undefined
    3778:	4e490073 	.inst	0x4e490073 ; undefined
    377c:	4c5f5449 	.inst	0x4c5f5449 ; undefined
    3780:	5f545349 	.inst	0x5f545349 ; undefined
    3784:	44414548 	.inst	0x44414548 ; undefined
    3788:	616d6d00 	.inst	0x616d6d00 ; undefined
    378c:	61705f70 	.inst	0x61705f70 ; undefined
    3790:	5f736567 	.inst	0x5f736567 ; undefined
    3794:	6f6c6c61 	.inst	0x6f6c6c61 ; undefined
    3798:	65746163 	fnmls	z3.h, p0/m, z11.h, z20.h
    379c:	5f5f0064 	.inst	0x5f5f0064 ; undefined
    37a0:	72617473 	.inst	0x72617473 ; undefined
    37a4:	6e6f5f74 	uqrshl	v20.8h, v27.8h, v15.8h
    37a8:	62006563 	.inst	0x62006563 ; undefined
    37ac:	635f6b6c 	.inst	0x635f6b6c ; undefined
    37b0:	74707972 	.inst	0x74707972 ; undefined
    37b4:	6f6d5f6f 	.inst	0x6f6d5f6f ; undefined
    37b8:	00736564 	.inst	0x00736564 ; undefined
    37bc:	6f635f5f 	.inst	0x6f635f5f ; undefined
    37c0:	6c69706d 	ldnp	d13, d28, [x3, #-368]
    37c4:	6d697465 	ldp	d5, d29, [x3, #-368]
    37c8:	73615f65 	.inst	0x73615f65 ; undefined
    37cc:	74726573 	.inst	0x74726573 ; undefined
    37d0:	3231345f 	orr	wsp, w2, #0x1fff8000
    37d4:	5f524e00 	.inst	0x5f524e00 ; undefined
    37d8:	45444f4e 	.inst	0x45444f4e ; undefined
    37dc:	4154535f 	.inst	0x4154535f ; undefined
    37e0:	00534554 	.inst	0x00534554 ; undefined
    37e4:	616d6469 	.inst	0x616d6469 ; undefined
    37e8:	67705f70 	.inst	0x67705f70 ; undefined
    37ec:	7269645f 	.inst	0x7269645f ; undefined
    37f0:	4b4c4200 	sub	w0, w16, w12, lsr #16
    37f4:	5f514d5f 	.inst	0x5f514d5f ; undefined
    37f8:	545f4f4e 	b.al	c21e0 <blk_mq_init_sched+0xc1288>
    37fc:	4e004741 	.inst	0x4e004741 ; undefined
    3800:	52465f52 	.inst	0x52465f52 ; undefined
    3804:	435f4545 	.inst	0x435f4545 ; undefined
    3808:	505f414d 	adr	x13, c2032 <blk_mq_init_sched+0xc10da>
    380c:	53454741 	.inst	0x53454741 ; undefined
    3810:	69707300 	ldpsw	x0, x28, [x24, #-128]
    3814:	6f6c5f6e 	.inst	0x6f6c5f6e ; undefined
    3818:	77006b63 	.inst	0x77006b63 ; undefined
    381c:	72657461 	.inst	0x72657461 ; undefined
    3820:	6b72616d 	.inst	0x6b72616d ; undefined
    3824:	6f6f625f 	umlsl2	v31.4s, v18.8h, v15.h[2]
    3828:	665f7473 	.inst	0x665f7473 ; undefined
    382c:	6f746361 	umlsl2	v1.4s, v27.8h, v4.h[3]
    3830:	43480072 	.inst	0x43480072 ; undefined
    3834:	545f5854 	.inst	0x545f5854 ; undefined
    3838:	5f455059 	.inst	0x5f455059 ; undefined
    383c:	41464544 	.inst	0x41464544 ; undefined
    3840:	00544c55 	.inst	0x00544c55 ; undefined
    3844:	5f514552 	.inst	0x5f514552 ; undefined
    3848:	5a5f504f 	.inst	0x5a5f504f ; undefined
    384c:	5f454e4f 	.inst	0x5f454e4f ; undefined
    3850:	4e45504f 	.inst	0x4e45504f ; undefined
    3854:	6f727000 	.inst	0x6f727000 ; undefined
    3858:	74636574 	.inst	0x74636574 ; undefined
    385c:	5f6e6f69 	.inst	0x5f6e6f69 ; undefined
    3860:	0070616d 	.inst	0x0070616d ; undefined
    3864:	615f6469 	.inst	0x615f6469 ; undefined
    3868:	70343661 	adr	x1, 6bf37 <blk_mq_init_sched+0x6afdf>
    386c:	5f317266 	.inst	0x5f317266 ; undefined
    3870:	7265766f 	.inst	0x7265766f ; undefined
    3874:	65646972 	fnmls	z18.h, p2/m, z11.h, z4.h
    3878:	666f7300 	.inst	0x666f7300 ; undefined
    387c:	71726974 	subs	w20, w11, #0xc9a, lsl #12
    3880:	5f6f745f 	sqshl	d31, d2, #47
    3884:	656d616e 	fnmls	z14.h, p0/m, z11.h, z13.h
    3888:	50485400 	adr	x0, 9430a <blk_mq_init_sched+0x933b2>
    388c:	5541465f 	.inst	0x5541465f ; undefined
    3890:	465f544c 	.inst	0x465f544c ; undefined
    3894:	424c4c41 	.inst	0x424c4c41 ; undefined
    3898:	5f4b4341 	.inst	0x5f4b4341 ; undefined
    389c:	52414843 	.inst	0x52414843 ; undefined
    38a0:	5f004547 	.inst	0x5f004547 ; undefined
    38a4:	6174735f 	.inst	0x6174735f ; undefined
    38a8:	725f7472 	.inst	0x725f7472 ; undefined
    38ac:	7461646f 	.inst	0x7461646f ; undefined
    38b0:	47500061 	.inst	0x47500061 ; undefined
    38b4:	53554552 	.inst	0x53554552 ; undefined
    38b8:	79730045 	ldrh	w5, [x2, #6528]
    38bc:	5f736673 	.inst	0x5f736673 ; undefined
    38c0:	5f766564 	.inst	0x5f766564 ; undefined
    38c4:	636f6c62 	.inst	0x636f6c62 ; undefined
    38c8:	6f6b5f6b 	.inst	0x6f6b5f6b ; undefined
    38cc:	6e006a62 	ext	v2.16b, v19.16b, v0.16b, #13
    38d0:	5f616d75 	.inst	0x5f616d75 ; undefined
    38d4:	65646f6e 	fnmls	z14.h, p3/m, z27.h, z4.h
    38d8:	61705f73 	.inst	0x61705f73 ; undefined
    38dc:	64657372 	.inst	0x64657372 ; undefined
    38e0:	5f524e00 	.inst	0x5f524e00 ; undefined
    38e4:	56454e55 	.inst	0x56454e55 ; undefined
    38e8:	41544349 	.inst	0x41544349 ; undefined
    38ec:	00454c42 	.inst	0x00454c42 ; undefined
    38f0:	5f666564 	.inst	0x5f666564 ; undefined
    38f4:	5f6b6c62 	.inst	0x5f6b6c62 ; undefined
    38f8:	73706f66 	.inst	0x73706f66 ; undefined
    38fc:	6d656d00 	ldp	d0, d27, [x8, #-432]
    3900:	70616d5f 	adr	xzr, c66ab <blk_mq_init_sched+0xc5753>
    3904:	65766f00 	fnmls	z0.h, p3/m, z24.h, z22.h
    3908:	6f6c6672 	sqshlu	v18.2d, v19.2d, #44
    390c:	64697577 	.inst	0x64697577 ; undefined
    3910:	6e657800 	.inst	0x6e657800 ; undefined
    3914:	6d6f645f 	ldp	d31, d25, [x2, #-272]
    3918:	5f6e6961 	.inst	0x5f6e6961 ; undefined
    391c:	65707974 	fnmls	z20.h, p6/m, z11.h, z16.h
    3920:	414d4d00 	.inst	0x414d4d00 ; undefined
    3924:	41505f50 	.inst	0x41505f50 ; undefined
    3928:	5a5f4547 	.inst	0x5a5f4547 ; undefined
    392c:	004f5245 	.inst	0x004f5245 ; undefined
    3930:	4c414d4b 	.inst	0x4c414d4b ; undefined
    3934:	5f434f4c 	.inst	0x5f434f4c ; undefined
    3938:	4d524f4e 	.inst	0x4d524f4e ; undefined
    393c:	5f004c41 	.inst	0x5f004c41 ; undefined
    3940:	4b4c425f 	sub	wzr, w18, w12, lsr #16
    3944:	5f41545f 	shl	d31, d2, #1
    3948:	45534e49 	.inst	0x45534e49 ; undefined
    394c:	6c005452 	stnp	d18, d21, [x2]
    3950:	5f747369 	sqdmlsl	s9, h27, v4.h[3]
    3954:	74706d65 	.inst	0x74706d65 ; undefined
    3958:	4c420079 	.inst	0x4c420079 ; undefined
    395c:	514d5f4b 	sub	w11, w26, #0x357, lsl #12
    3960:	415f465f 	.inst	0x415f465f ; undefined
    3964:	434f4c4c 	.inst	0x434f4c4c ; undefined
    3968:	4c4f505f 	.inst	0x4c4f505f ; undefined
    396c:	5f594349 	.inst	0x5f594349 ; undefined
    3970:	53544942 	.inst	0x53544942 ; undefined
    3974:	72657000 	.inst	0x72657000 ; undefined
    3978:	726e5f66 	.inst	0x726e5f66 ; undefined
    397c:	7361745f 	.inst	0x7361745f ; undefined
    3980:	6f635f6b 	.inst	0x6f635f6b ; undefined
    3984:	7865746e 	.inst	0x7865746e ; undefined
    3988:	5f007374 	.inst	0x5f007374 ; undefined
    398c:	746c615f 	.inst	0x746c615f ; undefined
    3990:	736e695f 	.inst	0x736e695f ; undefined
    3994:	63757274 	.inst	0x63757274 ; undefined
    3998:	6e6f6974 	.inst	0x6e6f6974 ; undefined
    399c:	4f430073 	.inst	0x4f430073 ; undefined
    39a0:	4341504d 	.inst	0x4341504d ; undefined
    39a4:	47494d54 	.inst	0x47494d54 ; undefined
    39a8:	45544152 	.inst	0x45544152 ; undefined
    39ac:	4143535f 	.inst	0x4143535f ; undefined
    39b0:	44454e4e 	.inst	0x44454e4e ; undefined
    39b4:	646f6e00 	.inst	0x646f6e00 ; undefined
    39b8:	61645f65 	.inst	0x61645f65 ; undefined
    39bc:	74006174 	.inst	0x74006174 ; undefined
    39c0:	00657572 	.inst	0x00657572 ; undefined
    39c4:	68637261 	.inst	0x68637261 ; undefined
    39c8:	6f74615f 	umlsl2	v31.4s, v10.8h, v4.h[3]
    39cc:	5f63696d 	.inst	0x5f63696d ; undefined
    39d0:	676e6f6c 	.inst	0x676e6f6c ; undefined
    39d4:	646e615f 	.inst	0x646e615f ; undefined
    39d8:	00746f6e 	.inst	0x00746f6e ; undefined
    39dc:	76657270 	.inst	0x76657270 ; undefined
    39e0:	72696600 	.inst	0x72696600 ; undefined
    39e4:	7261776d 	.inst	0x7261776d ; undefined
    39e8:	6f635f65 	.inst	0x6f635f65 ; undefined
    39ec:	6769666e 	.inst	0x6769666e ; undefined
    39f0:	6261745f 	.inst	0x6261745f ; undefined
    39f4:	5f00656c 	.inst	0x5f00656c ; undefined
    39f8:	5145525f 	sub	wsp, w18, #0x154, lsl #12
    39fc:	54454d5f 	.inst	0x54454d5f ; undefined
    3a00:	524e0041 	.inst	0x524e0041 ; undefined
    3a04:	4e4f5a5f 	uzp2	v31.8h, v18.8h, v15.8h
    3a08:	4e495f45 	.inst	0x4e495f45 ; undefined
    3a0c:	49544341 	.inst	0x49544341 ; undefined
    3a10:	415f4556 	.inst	0x415f4556 ; undefined
    3a14:	004e4f4e 	.inst	0x004e4f4e ; undefined
    3a18:	535f524e 	.inst	0x535f524e ; undefined
    3a1c:	4954464f 	.inst	0x4954464f ; undefined
    3a20:	00535152 	.inst	0x00535152 ; undefined
    3a24:	6d6f7461 	ldp	d1, d29, [x3, #-272]
    3a28:	6c5f6369 	ldnp	d9, d24, [x27, #496]
    3a2c:	5f676e6f 	.inst	0x5f676e6f ; undefined
    3a30:	5f627573 	sqshl	d19, d11, #34
    3a34:	5f646e61 	.inst	0x5f646e61 ; undefined
    3a38:	74736574 	.inst	0x74736574 ; undefined
    3a3c:	5f524e00 	.inst	0x5f524e00 ; undefined
    3a40:	45455246 	.inst	0x45455246 ; undefined
    3a44:	4741505f 	.inst	0x4741505f ; undefined
    3a48:	4e005345 	tbx	v5.16b, {v26.16b-v28.16b}, v0.16b
    3a4c:	43415f52 	.inst	0x43415f52 ; undefined
    3a50:	45564954 	.inst	0x45564954 ; undefined
    3a54:	4f4e415f 	.inst	0x4f4e415f ; undefined
    3a58:	7973004e 	ldrh	w14, [x2, #6528]
    3a5c:	6c746373 	ldnp	d19, d24, [x27, #-192]
    3a60:	6e61705f 	uabdl2	v31.4s, v2.8h, v1.8h
    3a64:	6f5f6369 	umlsl2	v9.4s, v27.8h, v15.h[1]
    3a68:	74735f6e 	.inst	0x74735f6e ; undefined
    3a6c:	6f6b6361 	umlsl2	v1.4s, v27.8h, v11.h[2]
    3a70:	66726576 	.inst	0x66726576 ; undefined
    3a74:	00776f6c 	.inst	0x00776f6c ; undefined
    3a78:	366d7261 	tbz	w1, #13, ffffffffffffe8c4 <blk_mq_init_sched+0xffffffffffffd96c>
    3a7c:	73755f34 	.inst	0x73755f34 ; undefined
    3a80:	676e5f65 	.inst	0x676e5f65 ; undefined
    3a84:	70616d5f 	adr	xzr, c682f <blk_mq_init_sched+0xc58d7>
    3a88:	676e6970 	.inst	0x676e6970 ; undefined
    3a8c:	524e0073 	.inst	0x524e0073 ; undefined
    3a90:	414d4b5f 	.inst	0x414d4b5f ; undefined
    3a94:	434f4c4c 	.inst	0x434f4c4c ; undefined
    3a98:	5059545f 	adr	xzr, b6522 <blk_mq_init_sched+0xb55ca>
    3a9c:	70005345 	adr	x5, 4507 <.debug_str+0x4507>
    3aa0:	746e6972 	.inst	0x746e6972 ; undefined
    3aa4:	61725f6b 	.inst	0x61725f6b ; undefined
    3aa8:	696c6574 	ldpsw	x20, x25, [x11, #-160]
    3aac:	5f74696d 	.inst	0x5f74696d ; undefined
    3ab0:	74617473 	.inst	0x74617473 ; undefined
    3ab4:	6f6f0065 	mla	v5.8h, v3.8h, v15.h[2]
    3ab8:	695f7370 	ldpsw	x16, x28, [x27, #248]
    3abc:	72705f6e 	.inst	0x72705f6e ; undefined
    3ac0:	6572676f 	fnmls	z15.h, p1/m, z27.h, z18.h
    3ac4:	42007373 	.inst	0x42007373 ; undefined
    3ac8:	4d5f4b4c 	.inst	0x4d5f4b4c ; undefined
    3acc:	5f535f51 	.inst	0x5f535f51 ; undefined
    3ad0:	504f5453 	adr	x19, a255a <blk_mq_init_sched+0xa1602>
    3ad4:	00444550 	.inst	0x00444550 ; undefined
    3ad8:	4f4c4c41 	.inst	0x4f4c4c41 ; undefined
    3adc:	41545343 	.inst	0x41545343 ; undefined
    3ae0:	445f4c4c 	.inst	0x445f4c4c ; undefined
    3ae4:	3233414d 	orr	w13, w10, #0x3fffe000
    3ae8:	616c7000 	.inst	0x616c7000 ; undefined
    3aec:	726f6674 	.inst	0x726f6674 ; undefined
    3af0:	6f6e5f6d 	.inst	0x6f6e5f6d ; undefined
    3af4:	79666974 	ldrh	w20, [x11, #4916]
    3af8:	4f524400 	.inst	0x4f524400 ; undefined
    3afc:	4c535f50 	.inst	0x4c535f50 ; undefined
    3b00:	72004241 	ands	w1, w18, #0x1ffff
    3b04:	655f7563 	fcmeq	p3.h, p5/z, z11.h, z31.h
    3b08:	64657078 	.inst	0x64657078 ; undefined
    3b0c:	64657469 	.inst	0x64657469 ; undefined
    3b10:	695f5f00 	ldpsw	x0, x23, [x24, #248]
    3b14:	68636163 	.inst	0x68636163 ; undefined
    3b18:	6c665f65 	ldnp	d5, d23, [x27, #-416]
    3b1c:	00736761 	.inst	0x00736761 ; undefined
    3b20:	54535953 	.inst	0x54535953 ; undefined
    3b24:	535f4d45 	.inst	0x535f4d45 ; undefined
    3b28:	45505355 	.inst	0x45505355 ; undefined
    3b2c:	5f00444e 	.inst	0x5f00444e ; undefined
    3b30:	7570635f 	.inst	0x7570635f ; undefined
    3b34:	7463615f 	.inst	0x7463615f ; undefined
    3b38:	5f657669 	sqshl	d9, d19, #37
    3b3c:	6b73616d 	.inst	0x6b73616d ; undefined
    3b40:	696e6900 	ldpsw	x0, x26, [x8, #-144]
    3b44:	6c616374 	ldnp	d20, d24, [x27, #-496]
    3b48:	65645f6c 	fnmla	z12.h, p7/m, z27.h, z4.h
    3b4c:	00677562 	.inst	0x00677562 ; undefined
    3b50:	63737973 	.inst	0x63737973 ; undefined
    3b54:	615f6c74 	.inst	0x615f6c74 ; undefined
    3b58:	6e696d64 	umin	v4.8h, v11.8h, v9.8h
    3b5c:	7365725f 	.inst	0x7365725f ; undefined
    3b60:	65767265 	fnmls	z5.h, p4/m, z19.h, z22.h
    3b64:	79626b5f 	ldrh	wzr, [x26, #4404]
    3b68:	00736574 	.inst	0x00736574 ; undefined
    3b6c:	656d6974 	fnmls	z20.h, p2/m, z11.h, z13.h
    3b70:	656e6f7a 	fnmls	z26.h, p3/m, z27.h, z14.h
    3b74:	5f6f6e00 	.inst	0x5f6f6e00 ; undefined
    3b78:	5f717269 	sqdmlsl	s9, h19, v1.h[3]
    3b7c:	69666661 	ldpsw	x1, x25, [x19, #-208]
    3b80:	7974696e 	ldrh	w14, [x11, #6708]
    3b84:	525f5f00 	.inst	0x525f5f00 ; undefined
    3b88:	535f5145 	.inst	0x535f5145 ; undefined
    3b8c:	00504157 	.inst	0x00504157 ; undefined
    3b90:	7473696c 	.inst	0x7473696c ; undefined
    3b94:	6464615f 	.inst	0x6464615f ; undefined
    3b98:	6961745f 	ldpsw	xzr, x29, [x2, #-248]
    3b9c:	6564006c 	fmla	z12.h, p0/m, z3.h, z4.h
    3ba0:	736d6b76 	.inst	0x736d6b76 ; undefined
    3ba4:	6f6c5f67 	.inst	0x6f6c5f67 ; undefined
    3ba8:	74735f67 	.inst	0x74735f67 ; undefined
    3bac:	70730072 	adr	x18, e9bbb <blk_mq_init_sched+0xe8c63>
    3bb0:	755f6e69 	.inst	0x755f6e69 ; undefined
    3bb4:	636f6c6e 	.inst	0x636f6c6e ; undefined
    3bb8:	6d76006b 	ldp	d11, d0, [x3, #-160]
    3bbc:	615f7061 	.inst	0x615f7061 ; undefined
    3bc0:	5f616572 	.inst	0x5f616572 ; undefined
    3bc4:	7473696c 	.inst	0x7473696c ; undefined
    3bc8:	685f5f00 	.inst	0x685f5f00 ; undefined
    3bcc:	745f7079 	.inst	0x745f7079 ; undefined
    3bd0:	5f747865 	sqdmlsl	s5, h3, v4.h[7]
    3bd4:	00646e65 	.inst	0x00646e65 ; undefined
    3bd8:	6e655f5f 	uqrshl	v31.8h, v26.8h, v5.8h
    3bdc:	706f5f64 	adr	x4, e27cb <blk_mq_init_sched+0xe1873>
    3be0:	5f5f0064 	.inst	0x5f5f0064 ; undefined
    3be4:	7274736b 	.inst	0x7274736b ; undefined
    3be8:	6e626174 	rsubhn2	v20.8h, v11.4s, v2.4s
    3bec:	6c625f73 	ldnp	d19, d23, [x27, #-480]
    3bf0:	716d5f6b 	subs	w11, w27, #0xb57, lsl #12
    3bf4:	6863735f 	.inst	0x6863735f ; undefined
    3bf8:	6d5f6465 	ldp	d5, d25, [x3, #496]
    3bfc:	5f6b7261 	sqdmlsl	s1, h19, v11.h[2]
    3c00:	74736572 	.inst	0x74736572 ; undefined
    3c04:	5f747261 	sqdmlsl	s1, h19, v4.h[3]
    3c08:	78746368 	ldumaxlh	w20, w8, [x27]
    3c0c:	616c7000 	.inst	0x616c7000 ; undefined
    3c10:	726f6674 	.inst	0x726f6674 ; undefined
    3c14:	6f6e5f6d 	.inst	0x6f6e5f6d ; undefined
    3c18:	79666974 	ldrh	w20, [x11, #4916]
    3c1c:	6d65725f 	ldp	d31, d28, [x18, #-432]
    3c20:	0065766f 	.inst	0x0065766f ; undefined
    3c24:	54415453 	.inst	0x54415453 ; undefined
    3c28:	4952575f 	.inst	0x4952575f ; undefined
    3c2c:	61004554 	.inst	0x61004554 ; undefined
    3c30:	696d6f74 	ldpsw	x20, x27, [x27, #-152]
    3c34:	5f343663 	.inst	0x5f343663 ; undefined
    3c38:	72700074 	.inst	0x72700074 ; undefined
    3c3c:	65007669 	.inst	0x65007669 ; undefined
    3c40:	665f7272 	.inst	0x665f7272 ; undefined
    3c44:	5f656572 	.inst	0x5f656572 ; undefined
    3c48:	5f70616d 	.inst	0x5f70616d ; undefined
    3c4c:	5f646e61 	.inst	0x5f646e61 ; undefined
    3c50:	00737172 	.inst	0x00737172 ; undefined
    3c54:	5f78616d 	.inst	0x5f78616d ; undefined
    3c58:	6b636f6c 	.inst	0x6b636f6c ; undefined
    3c5c:	7065645f 	adr	xzr, ce8e7 <blk_mq_init_sched+0xcd98f>
    3c60:	4b006874 	sub	w20, w3, w0, lsl #26
    3c64:	50415753 	adr	x19, 8674e <blk_mq_init_sched+0x857f6>
    3c68:	4e495f44 	.inst	0x4e495f44 ; undefined
    3c6c:	5345444f 	.inst	0x5345444f ; undefined
    3c70:	4c414554 	.inst	0x4c414554 ; undefined
    3c74:	51445f00 	sub	w0, w24, #0x117, lsl #12
    3c78:	445f5453 	.inst	0x445f5453 ; undefined
    3c7c:	41545351 	.inst	0x41545351 ; undefined
    3c80:	414c5f54 	.inst	0x414c5f54 ; undefined
    3c84:	5f005453 	.inst	0x5f005453 ; undefined
    3c88:	6172745f 	.inst	0x6172745f ; undefined
    3c8c:	6f706563 	sqshlu	v3.2d, v11.2d, #48
    3c90:	5f746e69 	.inst	0x5f746e69 ; undefined
    3c94:	70616d6d 	adr	x13, c6a43 <blk_mq_init_sched+0xc5aeb>
    3c98:	636f6c5f 	.inst	0x636f6c5f ; undefined
    3c9c:	65725f6b 	fnmla	z11.h, p7/m, z27.h, z18.h
    3ca0:	7361656c 	.inst	0x7361656c ; undefined
    3ca4:	5f006465 	.inst	0x5f006465 ; undefined
    3ca8:	5f44535f 	.inst	0x5f44535f ; undefined
    3cac:	46455250 	.inst	0x46455250 ; undefined
    3cb0:	535f5245 	.inst	0x535f5245 ; undefined
    3cb4:	494c4249 	.inst	0x494c4249 ; undefined
    3cb8:	6c00474e 	stnp	d14, d17, [x26]
    3cbc:	5f747369 	sqdmlsl	s9, h27, v4.h[3]
    3cc0:	5f747563 	sqshl	d3, d11, #52
    3cc4:	6f666562 	sqshlu	v2.2d, v11.2d, #38
    3cc8:	73006572 	.inst	0x73006572 ; undefined
    3ccc:	64657661 	.inst	0x64657661 ; undefined
    3cd0:	6d6f635f 	ldp	d31, d24, [x26, #-272]
    3cd4:	646e616d 	.inst	0x646e616d ; undefined
    3cd8:	6e696c5f 	umin	v31.8h, v2.8h, v9.8h
    3cdc:	6e690065 	uaddl2	v5.4s, v3.8h, v9.8h
    3ce0:	6d5f7469 	ldp	d9, d29, [x3, #496]
    3ce4:	6974006d 	ldpsw	x13, x0, [x3, #-96]
    3ce8:	656b656d 	fnmls	z13.h, p1/m, z11.h, z11.h
    3cec:	6e697065 	uabdl2	v5.4s, v3.8h, v9.8h
    3cf0:	75735f67 	.inst	0x75735f67 ; undefined
    3cf4:	6e657073 	uabdl2	v19.4s, v3.8h, v5.8h
    3cf8:	00646564 	.inst	0x00646564 ; undefined
    3cfc:	75716572 	.inst	0x75716572 ; undefined
    3d00:	5f747365 	sqdmlsl	s5, h27, v4.h[3]
    3d04:	75657571 	.inst	0x75657571 ; undefined
    3d08:	79730065 	ldrh	w5, [x3, #6528]
    3d0c:	6d657473 	ldp	d19, d29, [x3, #-432]
    3d10:	6e6f6c5f 	umin	v31.8h, v2.8h, v15.8h
    3d14:	71775f67 	subs	w7, w27, #0xdd7, lsl #12
    3d18:	73797300 	.inst	0x73797300 ; undefined
    3d1c:	5f6c7463 	sqshl	d3, d3, #44
    3d20:	7265766f 	.inst	0x7265766f ; undefined
    3d24:	6d6d6f63 	ldp	d3, d27, [x27, #-304]
    3d28:	6d5f7469 	ldp	d9, d29, [x3, #496]
    3d2c:	726f6d65 	.inst	0x726f6d65 ; undefined
    3d30:	65640079 	fmla	z25.h, p0/m, z3.h, z4.h
    3d34:	7972746e 	ldrh	w14, [x3, #6458]
    3d38:	6174735f 	.inst	0x6174735f ; undefined
    3d3c:	72610074 	.inst	0x72610074 ; undefined
    3d40:	615f6863 	.inst	0x615f6863 ; undefined
    3d44:	696d6f74 	ldpsw	x20, x27, [x27, #-152]
    3d48:	5f343663 	.inst	0x5f343663 ; undefined
    3d4c:	00646461 	.inst	0x00646461 ; undefined
    3d50:	6f735f5f 	.inst	0x6f735f5f ; undefined
    3d54:	72697466 	.inst	0x72697466 ; undefined
    3d58:	746e6571 	.inst	0x746e6571 ; undefined
    3d5c:	745f7972 	.inst	0x745f7972 ; undefined
    3d60:	5f747865 	sqdmlsl	s5, h3, v4.h[7]
    3d64:	00646e65 	.inst	0x00646e65 ; undefined
    3d68:	63726161 	.inst	0x63726161 ; undefined
    3d6c:	5f323368 	.inst	0x5f323368 ; undefined
    3d70:	6f63706f 	fcmla	v15.8h, v3.8h, v3.h[1], #270
    3d74:	635f6564 	.inst	0x635f6564 ; undefined
    3d78:	5f646e6f 	.inst	0x5f646e6f ; undefined
    3d7c:	63656863 	.inst	0x63656863 ; undefined
    3d80:	7800736b 	sturh	w11, [x27, #7]
    3d84:	735f6e65 	.inst	0x735f6e65 ; undefined
    3d88:	74726174 	.inst	0x74726174 ; undefined
    3d8c:	666e695f 	.inst	0x666e695f ; undefined
    3d90:	4e55006f 	.inst	0x4e55006f ; undefined
    3d94:	43495645 	.inst	0x43495645 ; undefined
    3d98:	4c424154 	.inst	0x4c424154 ; undefined
    3d9c:	47505f45 	.inst	0x47505f45 ; undefined
    3da0:	4e414353 	.inst	0x4e414353 ; undefined
    3da4:	0044454e 	.inst	0x0044454e ; undefined
    3da8:	705f6d70 	adr	x16, c2b57 <blk_mq_init_sched+0xc1bff>
    3dac:	7265776f 	.inst	0x7265776f ; undefined
    3db0:	66666f5f 	.inst	0x66666f5f ; undefined
    3db4:	454e5500 	.inst	0x454e5500 ; undefined
    3db8:	54434956 	.inst	0x54434956 ; undefined
    3dbc:	454c4241 	.inst	0x454c4241 ; undefined
    3dc0:	5247505f 	.inst	0x5247505f ; undefined
    3dc4:	55435345 	.inst	0x55435345 ; undefined
    3dc8:	4d004445 	.inst	0x4d004445 ; undefined
    3dcc:	48535f4d 	ldxrh	w13, [x26]
    3dd0:	504d454d 	adr	x13, 9e67a <blk_mq_init_sched+0x9d722>
    3dd4:	53454741 	.inst	0x53454741 ; undefined
    3dd8:	4d554e00 	.inst	0x4d554e00 ; undefined
    3ddc:	49485f41 	.inst	0x49485f41 ; undefined
    3de0:	465f544e 	.inst	0x465f544e ; undefined
    3de4:	544c5541 	b.ne	9c88c <blk_mq_init_sched+0x9b934>  // b.any
    3de8:	6c620053 	ldnp	d19, d0, [x2, #-480]
    3dec:	716d5f6b 	subs	w11, w27, #0xb57, lsl #12
    3df0:	7475705f 	.inst	0x7475705f ; undefined
    3df4:	7369645f 	.inst	0x7369645f ; undefined
    3df8:	63746170 	.inst	0x63746170 ; undefined
    3dfc:	75625f68 	.inst	0x75625f68 ; undefined
    3e00:	74656764 	.inst	0x74656764 ; undefined
    3e04:	68637300 	.inst	0x68637300 ; undefined
    3e08:	645f6465 	fcmla	z5.h, p1/m, z3.h, z31.h, #270
    3e0c:	69616d6f 	ldpsw	x15, x27, [x11, #-248]
    3e10:	656c5f6e 	fnmla	z14.h, p7/m, z27.h, z12.h
    3e14:	5f6c6576 	.inst	0x5f6c6576 ; undefined
    3e18:	0078616d 	.inst	0x0078616d ; undefined
    3e1c:	54535953 	.inst	0x54535953 ; undefined
    3e20:	425f4d45 	.inst	0x425f4d45 ; undefined
    3e24:	49544f4f 	.inst	0x49544f4f ; undefined
    3e28:	5f00474e 	.inst	0x5f00474e ; undefined
    3e2c:	5f44535f 	.inst	0x5f44535f ; undefined
    3e30:	454b4157 	.inst	0x454b4157 ; undefined
    3e34:	4646415f 	.inst	0x4646415f ; undefined
    3e38:	00454e49 	.inst	0x00454e49 ; undefined
    3e3c:	6e676973 	.inst	0x6e676973 ; undefined
    3e40:	63206465 	.inst	0x63206465 ; undefined
    3e44:	00726168 	.inst	0x00726168 ; undefined
    3e48:	4c414d4b 	.inst	0x4c414d4b ; undefined
    3e4c:	5f434f4c 	.inst	0x5f434f4c ; undefined
    3e50:	00414d44 	.inst	0x00414d44 ; undefined
    3e54:	6d6f682f 	ldp	d15, d26, [x1, #-272]
    3e58:	6f6a2f65 	.inst	0x6f6a2f65 ; undefined
    3e5c:	6b2f6e68 	subs	w8, w19, w15, uxtx #3
    3e60:	656e7265 	fnmls	z5.h, p4/m, z19.h, z14.h
    3e64:	65642d6c 	fmls	z12.h, p3/m, z11.h, z4.h
    3e68:	4f570076 	.inst	0x4f570076 ; undefined
    3e6c:	4e494b52 	.inst	0x4e494b52 ; undefined
    3e70:	54455347 	b.vc	8e8d8 <blk_mq_init_sched+0x8d980>
    3e74:	5345525f 	.inst	0x5345525f ; undefined
    3e78:	45524f54 	.inst	0x45524f54 ; undefined
    3e7c:	5341425f 	.inst	0x5341425f ; undefined
    3e80:	61740045 	.inst	0x61740045 ; undefined
    3e84:	5f746e69 	.inst	0x5f746e69 ; undefined
    3e88:	67616c66 	.inst	0x67616c66 ; undefined
    3e8c:	6b6c6200 	.inst	0x6b6c6200 ; undefined
    3e90:	5f716d5f 	.inst	0x5f716d5f ; undefined
    3e94:	645f6f64 	fcmla	z4.h, p3/m, z27.h, z31.h, #270
    3e98:	61707369 	.inst	0x61707369 ; undefined
    3e9c:	5f686374 	.inst	0x5f686374 ; undefined
    3ea0:	00787463 	.inst	0x00787463 ; undefined
    3ea4:	495f524e 	.inst	0x495f524e ; undefined
    3ea8:	5443414e 	b.al	8a6d0 <blk_mq_init_sched+0x89778>
    3eac:	5f455649 	shl	d9, d18, #5
    3eb0:	4e4f4e41 	.inst	0x4e4f4e41 ; undefined
    3eb4:	535f5f00 	.inst	0x535f5f00 ; undefined
    3eb8:	45535f44 	.inst	0x45535f44 ; undefined
    3ebc:	4c414952 	.inst	0x4c414952 ; undefined
    3ec0:	00455a49 	.inst	0x00455a49 ; undefined
    3ec4:	72745f5f 	.inst	0x72745f5f ; undefined
    3ec8:	70656361 	adr	x1, ceb37 <blk_mq_init_sched+0xcdbdf>
    3ecc:	746e696f 	.inst	0x746e696f ; undefined
    3ed0:	616d6d5f 	.inst	0x616d6d5f ; undefined
    3ed4:	6f6c5f70 	.inst	0x6f6c5f70 ; undefined
    3ed8:	735f6b63 	.inst	0x735f6b63 ; undefined
    3edc:	74726174 	.inst	0x74726174 ; undefined
    3ee0:	636f6c5f 	.inst	0x636f6c5f ; undefined
    3ee4:	676e696b 	.inst	0x676e696b ; undefined
    3ee8:	6d726100 	ldp	d0, d24, [x8, #-224]
    3eec:	665f3436 	.inst	0x665f3436 ; undefined
    3ef0:	725f7274 	.inst	0x725f7274 ; undefined
    3ef4:	635f6765 	.inst	0x635f6765 ; undefined
    3ef8:	6c657274 	ldnp	d20, d28, [x19, #-432]
    3efc:	6d6d0030 	ldp	d16, d0, [x1, #-304]
    3f00:	725f7061 	.inst	0x725f7061 ; undefined
    3f04:	635f646e 	.inst	0x635f646e ; undefined
    3f08:	61706d6f 	.inst	0x61706d6f ; undefined
    3f0c:	69625f74 	ldpsw	x20, x23, [x27, #-240]
    3f10:	48007374 	stxrh	w0, w20, [x27]
    3f14:	5f424c54 	.inst	0x5f424c54 ; undefined
    3f18:	44445542 	.inst	0x44445542 ; undefined
    3f1c:	47505f59 	.inst	0x47505f59 ; undefined
    3f20:	4f4c4c41 	.inst	0x4f4c4c41 ; undefined
    3f24:	524e0043 	.inst	0x524e0043 ; undefined
    3f28:	5249445f 	.inst	0x5249445f ; undefined
    3f2c:	44454954 	.inst	0x44454954 ; undefined
    3f30:	696e6900 	ldpsw	x0, x26, [x8, #-144]
    3f34:	67705f74 	.inst	0x67705f74 ; undefined
    3f38:	7269645f 	.inst	0x7269645f ; undefined
    3f3c:	656c6500 	fnmls	z0.h, p1/m, z8.h, z12.h
    3f40:	6f746176 	umlsl2	v22.4s, v11.8h, v4.h[3]
    3f44:	75715f72 	.inst	0x75715f72 ; undefined
    3f48:	00657565 	.inst	0x00657565 ; undefined
    3f4c:	68637261 	.inst	0x68637261 ; undefined
    3f50:	6f74615f 	umlsl2	v31.4s, v10.8h, v4.h[3]
    3f54:	5f63696d 	.inst	0x5f63696d ; undefined
    3f58:	676e6f6c 	.inst	0x676e6f6c ; undefined
    3f5c:	00726f5f 	.inst	0x00726f5f ; undefined
    3f60:	74726170 	.inst	0x74726170 ; undefined
    3f64:	7079745f 	adr	xzr, f6def <blk_mq_init_sched+0xf5e97>
    3f68:	6e690065 	uaddl2	v5.4s, v3.8h, v9.8h
    3f6c:	75727473 	.inst	0x75727473 ; undefined
    3f70:	746e656d 	.inst	0x746e656d ; undefined
    3f74:	6f74615f 	umlsl2	v31.4s, v10.8h, v4.h[3]
    3f78:	5f63696d 	.inst	0x5f63696d ; undefined
    3f7c:	74697277 	.inst	0x74697277 ; undefined
    3f80:	524e0065 	.inst	0x524e0065 ; undefined
    3f84:	4952575f 	.inst	0x4952575f ; undefined
    3f88:	41424554 	.inst	0x41424554 ; undefined
    3f8c:	72004b43 	ands	w3, w26, #0x7ffff
    3f90:	79616c65 	ldrh	w5, [x3, #4278]
    3f94:	6c69665f 	ldnp	d31, d25, [x18, #-368]
    3f98:	706f5f65 	adr	x5, e2b87 <blk_mq_init_sched+0xe1c2f>
    3f9c:	74617265 	.inst	0x74617265 ; undefined
    3fa0:	736e6f69 	.inst	0x736e6f69 ; undefined
    3fa4:	74756d00 	.inst	0x74756d00 ; undefined
    3fa8:	72007865 	ands	w5, w3, #0x7fffffff
    3fac:	735f7563 	.inst	0x735f7563 ; undefined
    3fb0:	64656863 	.inst	0x64656863 ; undefined
    3fb4:	636f6c5f 	.inst	0x636f6c5f ; undefined
    3fb8:	616d5f6b 	.inst	0x616d5f6b ; undefined
    3fbc:	65640070 	fmla	z16.h, p0/m, z3.h, z4.h
    3fc0:	74615f76 	.inst	0x74615f76 ; undefined
    3fc4:	655f7274 	fcmne	p4.h, p4/z, z19.h, z31.h
    3fc8:	746e6576 	.inst	0x746e6576 ; undefined
    3fcc:	6f705f73 	.inst	0x6f705f73 ; undefined
    3fd0:	6d5f6c6c 	ldp	d12, d27, [x3, #496]
    3fd4:	73636573 	.inst	0x73636573 ; undefined
    3fd8:	4c4c4100 	.inst	0x4c4c4100 ; undefined
    3fdc:	5453434f 	b.nv	aa844 <blk_mq_init_sched+0xa98ec>
    3fe0:	5f4c4c41 	.inst	0x5f4c4c41 ; undefined
    3fe4:	00414d44 	.inst	0x00414d44 ; undefined
    3fe8:	4c4c4142 	.inst	0x4c4c4142 ; undefined
    3fec:	5f4e4f4f 	.inst	0x5f4e4f4f ; undefined
    3ff0:	4c464e49 	.inst	0x4c464e49 ; undefined
    3ff4:	00455441 	.inst	0x00455441 ; undefined
    3ff8:	5f757063 	sqdmlsl	s3, h3, v5.h[3]
    3ffc:	73627573 	.inst	0x73627573 ; undefined
    4000:	68007379 	.inst	0x68007379 ; undefined
    4004:	5f656775 	.inst	0x5f656775 ; undefined
    4008:	6f72657a 	sqshlu	v26.2d, v11.2d, #50
    400c:	6761705f 	.inst	0x6761705f ; undefined
    4010:	65720065 	fmla	z5.h, p0/m, z3.h, z18.h
    4014:	5f746573 	.inst	0x5f746573 ; undefined
    4018:	69766564 	ldpsw	x4, x25, [x11, #-80]
    401c:	00736563 	.inst	0x00736563 ; undefined
    4020:	45525f5f 	.inst	0x45525f5f ; undefined
    4024:	41425f51 	.inst	0x41425f51 ; undefined
    4028:	52474b43 	.inst	0x52474b43 ; undefined
    402c:	444e554f 	.inst	0x444e554f ; undefined
    4030:	6e5f5f00 	.inst	0x6e5f5f00 ; undefined
    4034:	7661736f 	.inst	0x7661736f ; undefined
    4038:	6e655f65 	uqrshl	v5.8h, v27.8h, v5.8h
    403c:	5f5f0064 	.inst	0x5f5f0064 ; undefined
    4040:	5f707968 	sqdmlsl	s8, h11, v0.h[7]
    4044:	616d6469 	.inst	0x616d6469 ; undefined
    4048:	65745f70 	fnmla	z16.h, p7/m, z27.h, z20.h
    404c:	655f7478 	fcmne	p8.h, p5/z, z3.h, z31.h
    4050:	4400646e 	.inst	0x4400646e ; undefined
    4054:	525f4651 	.inst	0x525f4651 ; undefined
    4058:	5f544f4f 	.inst	0x5f544f4f ; undefined
    405c:	41555153 	.inst	0x41555153 ; undefined
    4060:	425f4853 	.inst	0x425f4853 ; undefined
    4064:	696e6900 	ldpsw	x0, x26, [x8, #-144]
    4068:	74735f74 	.inst	0x74735f74 ; undefined
    406c:	74637572 	.inst	0x74637572 ; undefined
    4070:	6469705f 	.inst	0x6469705f ; undefined
    4074:	61656800 	.inst	0x61656800 ; undefined
    4078:	6c620064 	ldnp	d4, d0, [x3, #-480]
    407c:	716d5f6b 	subs	w11, w27, #0xb57, lsl #12
    4080:	6978655f 	ldpsw	xzr, x25, [x10, #-64]
    4084:	63735f74 	.inst	0x63735f74 ; undefined
    4088:	5f646568 	.inst	0x5f646568 ; undefined
    408c:	72616873 	.inst	0x72616873 ; undefined
    4090:	745f6465 	.inst	0x745f6465 ; undefined
    4094:	00736761 	.inst	0x00736761 ; undefined
    4098:	54535953 	.inst	0x54535953 ; undefined
    409c:	525f4d45 	.inst	0x525f4d45 ; undefined
    40a0:	494e4e55 	.inst	0x494e4e55 ; undefined
    40a4:	6400474e 	.inst	0x6400474e ; undefined
    40a8:	61747371 	.inst	0x61747371 ; undefined
    40ac:	5f007374 	.inst	0x5f007374 ; undefined
    40b0:	5f44535f 	.inst	0x5f44535f ; undefined
    40b4:	414c4142 	.inst	0x414c4142 ; undefined
    40b8:	5f45434e 	.inst	0x5f45434e ; undefined
    40bc:	4b524f46 	sub	w6, w26, w18, lsr #19
    40c0:	6b6c6200 	.inst	0x6b6c6200 ; undefined
    40c4:	7972635f 	ldrh	wzr, [x26, #6448]
    40c8:	5f6f7470 	sqshl	d16, d3, #47
    40cc:	65646f6d 	fnmls	z13.h, p3/m, z27.h, z4.h
    40d0:	6e6f6c00 	umin	v0.8h, v0.8h, v15.8h
    40d4:	6f6c2067 	umlal2	v7.4s, v3.8h, v12.h[2]
    40d8:	7520676e 	.inst	0x7520676e ; undefined
    40dc:	6769736e 	.inst	0x6769736e ; undefined
    40e0:	2064656e 	.inst	0x2064656e ; undefined
    40e4:	00746e69 	.inst	0x00746e69 ; undefined
    40e8:	4e494750 	.inst	0x4e494750 ; undefined
    40ec:	5345444f 	.inst	0x5345444f ; undefined
    40f0:	4c414554 	.inst	0x4c414554 ; undefined
    40f4:	73797300 	.inst	0x73797300 ; undefined
    40f8:	5f6c7463 	sqshl	d3, d3, #44
    40fc:	6f5f726e 	.inst	0x6f5f726e ; undefined
    4100:	006e6570 	.inst	0x006e6570 ; undefined
    4104:	44535f5f 	.inst	0x44535f5f ; undefined
    4108:	4c41425f 	.inst	0x4c41425f ; undefined
    410c:	45434e41 	.inst	0x45434e41 ; undefined
    4110:	57454e5f 	.inst	0x57454e5f ; undefined
    4114:	454c4449 	.inst	0x454c4449 ; undefined
    4118:	6d756e00 	ldp	d0, d27, [x16, #-176]
    411c:	6f7a5f61 	.inst	0x6f7a5f61 ; undefined
    4120:	696c656e 	ldpsw	x14, x25, [x11, #-160]
    4124:	6f5f7473 	uqshl	v19.2d, v3.2d, #31
    4128:	72656472 	.inst	0x72656472 ; undefined
    412c:	44444100 	.inst	0x44444100 ; undefined
    4130:	494c5f52 	.inst	0x494c5f52 ; undefined
    4134:	5f54494d 	.inst	0x5f54494d ; undefined
    4138:	00424733 	.inst	0x00424733 ; undefined
    413c:	4f524750 	.inst	0x4f524750 ; undefined
    4140:	45544154 	.inst	0x45544154 ; undefined
    4144:	45520044 	.inst	0x45520044 ; undefined
    4148:	504f5f51 	adr	x17, a2d32 <blk_mq_init_sched+0xa1dda>
    414c:	4952575f 	.inst	0x4952575f ; undefined
    4150:	5a5f4554 	.inst	0x5a5f4554 ; undefined
    4154:	454f5245 	.inst	0x454f5245 ; undefined
    4158:	63720053 	.inst	0x63720053 ; undefined
    415c:	65725f75 	fnmla	z21.h, p7/m, z27.h, z18.h
    4160:	755f6461 	.inst	0x755f6461 ; undefined
    4164:	636f6c6e 	.inst	0x636f6c6e ; undefined
    4168:	5f5f006b 	.inst	0x5f5f006b ; undefined
    416c:	72617473 	.inst	0x72617473 ; undefined
    4170:	6f725f74 	.inst	0x6f725f74 ; undefined
    4174:	7466615f 	.inst	0x7466615f ; undefined
    4178:	695f7265 	ldpsw	x5, x28, [x19, #248]
    417c:	0074696e 	.inst	0x0074696e ; undefined
    4180:	75626564 	.inst	0x75626564 ; undefined
    4184:	6f6c5f67 	.inst	0x6f6c5f67 ; undefined
    4188:	00736b63 	.inst	0x00736b63 ; undefined
    418c:	6f6e5f5f 	.inst	0x6f6e5f5f ; undefined
    4190:	74736e69 	.inst	0x74736e69 ; undefined
    4194:	65745f72 	fnmla	z18.h, p7/m, z27.h, z20.h
    4198:	735f7478 	.inst	0x735f7478 ; undefined
    419c:	74726174 	.inst	0x74726174 ; undefined
    41a0:	73797300 	.inst	0x73797300 ; undefined
    41a4:	5f6c7463 	sqshl	d3, d3, #44
    41a8:	5f78616d 	.inst	0x5f78616d ; undefined
    41ac:	5f756372 	.inst	0x5f756372 ; undefined
    41b0:	6c617473 	ldnp	d19, d29, [x3, #-496]
    41b4:	6f745f6c 	.inst	0x6f745f6c ; undefined
    41b8:	6e61705f 	uabdl2	v31.4s, v2.8h, v1.8h
    41bc:	50006369 	adr	x9, 4e2a <blk_mq_init_sched+0x3ed2>
    41c0:	5f555043 	.inst	0x5f555043 ; undefined
    41c4:	455f4346 	.inst	0x455f4346 ; undefined
    41c8:	4445424d 	.inst	0x4445424d ; undefined
    41cc:	61656c00 	.inst	0x61656c00 ; undefined
    41d0:	5f736573 	.inst	0x5f736573 ; undefined
    41d4:	62616e65 	.inst	0x62616e65 ; undefined
    41d8:	5300656c 	ubfx	w12, w11, #0, #26
    41dc:	5342414c 	.inst	0x5342414c ; undefined
    41e0:	4143535f 	.inst	0x4143535f ; undefined
    41e4:	44454e4e 	.inst	0x44454e4e ; undefined
    41e8:	69757500 	ldpsw	x0, x29, [x8, #-88]
    41ec:	00745f64 	.inst	0x00745f64 ; undefined
    41f0:	4c425f5f 	.inst	0x4c425f5f ; undefined
    41f4:	41545f4b 	.inst	0x41545f4b ; undefined
    41f8:	504e555f 	adr	xzr, a0ca2 <blk_mq_init_sched+0x9fd4a>
    41fc:	5f47554c 	shl	d12, d10, #7
    4200:	52004f49 	eor	w9, w26, #0xfffff
    4204:	4f5f5145 	.inst	0x4f5f5145 ; undefined
    4208:	45525f50 	.inst	0x45525f50 ; undefined
    420c:	6d004441 	stp	d1, d17, [x2]
    4210:	6c75646f 	ldnp	d15, d25, [x3, #-176]
    4214:	645f7365 	fcmla	z5.h, p4/m, z27.h, z31.h, #270
    4218:	62617369 	.inst	0x62617369 ; undefined
    421c:	0064656c 	.inst	0x0064656c ; undefined
    4220:	4e555f5f 	.inst	0x4e555f5f ; undefined
    4224:	45555149 	.inst	0x45555149 ; undefined
    4228:	5f44495f 	.inst	0x5f44495f ; undefined
    422c:	64615f5f 	.inst	0x64615f5f ; undefined
    4230:	73657264 	.inst	0x73657264 ; undefined
    4234:	6c626173 	ldnp	d19, d24, [x11, #-480]
    4238:	6c625f65 	ldnp	d5, d23, [x27, #-480]
    423c:	716d5f6b 	subs	w11, w27, #0xb57, lsl #12
    4240:	6863735f 	.inst	0x6863735f ; undefined
    4244:	6d5f6465 	ldp	d5, d25, [x3, #496]
    4248:	5f6b7261 	sqdmlsl	s1, h19, v11.h[2]
    424c:	74736572 	.inst	0x74736572 ; undefined
    4250:	5f747261 	sqdmlsl	s1, h19, v4.h[3]
    4254:	78746368 	ldumaxlh	w20, w8, [x27]
    4258:	00383034 	.inst	0x00383034 ; NYI
    425c:	5f6b6c62 	.inst	0x5f6b6c62 ; undefined
    4260:	645f716d 	fcmla	z13.h, p4/m, z11.h, z31.h, #270
    4264:	69645f6f 	ldpsw	x15, x23, [x27, #-224]
    4268:	74617073 	.inst	0x74617073 ; undefined
    426c:	735f6863 	.inst	0x735f6863 ; undefined
    4270:	64656863 	.inst	0x64656863 ; undefined
    4274:	51455200 	sub	w0, w16, #0x154, lsl #12
    4278:	5f504f5f 	.inst	0x5f504f5f ; undefined
    427c:	55434553 	.inst	0x55434553 ; undefined
    4280:	455f4552 	.inst	0x455f4552 ; undefined
    4284:	45534152 	.inst	0x45534152 ; undefined
    4288:	5f524e00 	.inst	0x5f524e00 ; undefined
    428c:	5f55524c 	.inst	0x5f55524c ; undefined
    4290:	5453494c 	b.gt	aabb8 <blk_mq_init_sched+0xa9c60>
    4294:	5f5f0053 	.inst	0x5f5f0053 ; undefined
    4298:	63617274 	.inst	0x63617274 ; undefined
    429c:	696f7065 	ldpsw	x5, x28, [x3, #-136]
    42a0:	705f746e 	adr	x14, c312f <blk_mq_init_sched+0xc21d7>
    42a4:	5f656761 	.inst	0x5f656761 ; undefined
    42a8:	5f666572 	.inst	0x5f666572 ; undefined
    42ac:	65657266 	fnmls	z6.h, p4/m, z19.h, z5.h
    42b0:	5400657a 	.inst	0x5400657a ; undefined
    42b4:	445f5048 	.inst	0x445f5048 ; undefined
    42b8:	52454645 	.inst	0x52454645 ; undefined
    42bc:	5f444552 	.inst	0x5f444552 ; undefined
    42c0:	494c5053 	.inst	0x494c5053 ; undefined
    42c4:	41505f54 	.inst	0x41505f54 ; undefined
    42c8:	76004547 	.inst	0x76004547 ; undefined
    42cc:	76655f6d 	.inst	0x76655f6d ; undefined
    42d0:	5f746e65 	.inst	0x5f746e65 ; undefined
    42d4:	74617473 	.inst	0x74617473 ; undefined
    42d8:	6f690065 	mla	v5.8h, v3.8h, v9.h[2]
    42dc:	74726f70 	.inst	0x74726f70 ; undefined
    42e0:	7365725f 	.inst	0x7365725f ; undefined
    42e4:	6372756f 	.inst	0x6372756f ; undefined
    42e8:	656b0065 	fmla	z5.h, p0/m, z3.h, z11.h
    42ec:	6c656e72 	ldnp	d18, d27, [x19, #-432]
    42f0:	7061635f 	adr	xzr, c6f5b <blk_mq_init_sched+0xc6003>
    42f4:	6400745f 	.inst	0x6400745f ; undefined
    42f8:	5f6b7369 	sqdmlsl	s9, h27, v11.h[2]
    42fc:	65707974 	fnmls	z20.h, p6/m, z11.h, z16.h
    4300:	65737200 	fnmls	z0.h, p4/m, z16.h, z19.h
    4304:	76655f71 	.inst	0x76655f71 ; undefined
    4308:	5f746e65 	.inst	0x5f746e65 ; undefined
    430c:	6b73616d 	.inst	0x6b73616d ; undefined
    4310:	7469625f 	.inst	0x7469625f ; undefined
    4314:	6c620073 	ldnp	d19, d0, [x3, #-480]
    4318:	716d5f6b 	subs	w11, w27, #0xb57, lsl #12
    431c:	6863735f 	.inst	0x6863735f ; undefined
    4320:	665f6465 	.inst	0x665f6465 ; undefined
    4324:	5f656572 	.inst	0x5f656572 ; undefined
    4328:	00737172 	.inst	0x00737172 ; undefined
    432c:	6e697073 	uabdl2	v19.4s, v3.8h, v9.8h
    4330:	6b636f6c 	.inst	0x6b636f6c ; undefined
    4334:	4c00745f 	st1	{v31.8h}, [x2]
    4338:	415f5552 	.inst	0x415f5552 ; undefined
    433c:	56495443 	.inst	0x56495443 ; undefined
    4340:	49465f45 	.inst	0x49465f45 ; undefined
    4344:	6800454c 	.inst	0x6800454c ; undefined
    4348:	5f686769 	.inst	0x5f686769 ; undefined
    434c:	6f6d656d 	sqshlu	v13.2d, v11.2d, #45
    4350:	50007972 	adr	x18, 527e <blk_mq_init_sched+0x4326>
    4354:	41435347 	.inst	0x41435347 ; undefined
    4358:	534b5f4e 	.inst	0x534b5f4e ; undefined
    435c:	44504157 	.inst	0x44504157 ; undefined
    4360:	525f5f00 	.inst	0x525f5f00 ; undefined
    4364:	445f5145 	.inst	0x445f5145 ; undefined
    4368:	6b005652 	subs	w18, w18, w0, lsl #21
    436c:	656a626f 	fnmls	z15.h, p0/m, z19.h, z10.h
    4370:	5f007463 	.inst	0x5f007463 ; undefined
    4374:	6572705f 	fnmls	z31.h, p4/m, z2.h, z18.h
    4378:	74706d65 	.inst	0x74706d65 ; undefined
    437c:	756f635f 	.inst	0x756f635f ; undefined
    4380:	615f746e 	.inst	0x615f746e ; undefined
    4384:	52006464 	eor	w4, w3, #0x3ffffff
    4388:	4f5f5145 	.inst	0x4f5f5145 ; undefined
    438c:	4f5a5f50 	.inst	0x4f5a5f50 ; undefined
    4390:	525f454e 	.inst	0x525f454e ; undefined
    4394:	54455345 	b.pl	8edfc <blk_mq_init_sched+0x8dea4>  // b.nfrst
    4398:	70666700 	adr	x0, d107b <blk_mq_init_sched+0xd0123>
    439c:	6b00745f 	cmp	w2, w0, lsl #29
    43a0:	5f6a626f 	.inst	0x5f6a626f ; undefined
    43a4:	65707974 	fnmls	z20.h, p6/m, z11.h, z16.h
    43a8:	51455200 	sub	w0, w16, #0x154, lsl #12
    43ac:	5f504f5f 	.inst	0x5f504f5f ; undefined
    43b0:	454e4f5a 	.inst	0x454e4f5a ; undefined
    43b4:	4e49465f 	.inst	0x4e49465f ; undefined
    43b8:	00485349 	.inst	0x00485349 ; undefined
    43bc:	67616c66 	.inst	0x67616c66 ; undefined
    43c0:	4f570073 	.inst	0x4f570073 ; undefined
    43c4:	4e494b52 	.inst	0x4e494b52 ; undefined
    43c8:	54455347 	b.vc	8ee30 <blk_mq_init_sched+0x8ded8>
    43cc:	444f4e5f 	.inst	0x444f4e5f ; undefined
    43d0:	73005345 	.inst	0x73005345 ; undefined
    43d4:	5f6e6970 	.inst	0x5f6e6970 ; undefined
    43d8:	6f6c6e75 	.inst	0x6f6c6e75 ; undefined
    43dc:	695f6b63 	ldpsw	x3, x26, [x27, #248]
    43e0:	50007172 	adr	x18, 520e <blk_mq_init_sched+0x42b6>
    43e4:	4f505753 	shl	v19.2d, v26.2d, #16
    43e8:	4e005455 	.inst	0x4e005455 ; undefined
    43ec:	4d4d5f52 	.inst	0x4d4d5f52 ; undefined
    43f0:	554f435f 	.inst	0x554f435f ; undefined
    43f4:	5245544e 	.inst	0x5245544e ; undefined
    43f8:	745f0053 	.inst	0x745f0053 ; undefined
    43fc:	00747865 	.inst	0x00747865 ; undefined
    4400:	45525f5f 	.inst	0x45525f5f ; undefined
    4404:	41465f51 	.inst	0x41465f51 ; undefined
    4408:	41464c49 	.inst	0x41464c49 ; undefined
    440c:	445f5453 	.inst	0x445f5453 ; undefined
    4410:	73005645 	.inst	0x73005645 ; undefined
    4414:	6c6e6970 	ldnp	d16, d26, [x11, #-288]
    4418:	006b636f 	.inst	0x006b636f ; undefined
    441c:	74706d65 	.inst	0x74706d65 ; undefined
    4420:	657a5f79 	fnmla	z25.h, p7/m, z27.h, z26.h
    4424:	705f6f72 	adr	x18, c3213 <blk_mq_init_sched+0xc22bb>
    4428:	00656761 	.inst	0x00656761 ; undefined
    442c:	6d757063 	ldp	d3, d28, [x3, #-176]
    4430:	006b7361 	.inst	0x006b7361 ; undefined
    4434:	58544348 	ldr	x8, acc9c <blk_mq_init_sched+0xabd44>
    4438:	58414d5f 	ldr	xzr, 86de0 <blk_mq_init_sched+0x85e88>
    443c:	5059545f 	adr	xzr, b6ec6 <blk_mq_init_sched+0xb5f6e>
    4440:	5f005345 	fmls	h5, h26, v0.h[0]
    4444:	5245505f 	.inst	0x5245505f ; undefined
    4448:	5f555043 	.inst	0x5f555043 ; undefined
    444c:	5f464552 	.inst	0x5f464552 ; undefined
    4450:	47414c46 	.inst	0x47414c46 ; undefined
    4454:	5449425f 	.inst	0x5449425f ; undefined
    4458:	75670053 	.inst	0x75670053 ; undefined
    445c:	6e5f6469 	.inst	0x6e5f6469 ; undefined
    4460:	006c6c75 	.inst	0x006c6c75 ; undefined
    4464:	5f6b6c62 	.inst	0x5f6b6c62 ; undefined
    4468:	735f716d 	.inst	0x735f716d ; undefined
    446c:	64656863 	.inst	0x64656863 ; undefined
    4470:	7972745f 	ldrh	wzr, [x2, #6458]
    4474:	736e695f 	.inst	0x736e695f ; undefined
    4478:	5f747265 	sqdmlsl	s5, h19, v4.h[3]
    447c:	6772656d 	.inst	0x6772656d ; undefined
    4480:	68630065 	.inst	0x68630065 ; undefined
    4484:	70007261 	adr	x1, 52d3 <blk_mq_init_sched+0x437b>
    4488:	6d617261 	ldp	d1, d28, [x19, #-496]
    448c:	73706f5f 	.inst	0x73706f5f ; undefined
    4490:	6f6f625f 	umlsl2	v31.4s, v18.8h, v15.h[2]
    4494:	6e655f6c 	uqrshl	v12.8h, v27.8h, v5.8h
    4498:	656c6261 	fnmls	z1.h, p0/m, z19.h, z12.h
    449c:	6c6e6f5f 	ldnp	d31, d27, [x26, #-288]
    44a0:	72690079 	.inst	0x72690079 ; undefined
    44a4:	68635f71 	.inst	0x68635f71 ; undefined
    44a8:	63007069 	.inst	0x63007069 ; undefined
    44ac:	625f7570 	.inst	0x625f7570 ; undefined
    44b0:	625f7469 	.inst	0x625f7469 ; undefined
    44b4:	616d7469 	.inst	0x616d7469 ; undefined
    44b8:	61700070 	.inst	0x61700070 ; undefined
    44bc:	5f6d6172 	.inst	0x5f6d6172 ; undefined
    44c0:	5f73706f 	sqdmlsl	s15, h3, v3.h[3]
    44c4:	69786568 	ldpsw	x8, x25, [x11, #-64]
    44c8:	6b00746e 	subs	w14, w3, w0, lsl #29
    44cc:	67616d69 	.inst	0x67616d69 ; undefined
    44d0:	61765f65 	.inst	0x61765f65 ; undefined
    44d4:	00726464 	.inst	0x00726464 ; undefined
    44d8:	5f666564 	.inst	0x5f666564 ; undefined
    44dc:	5f6b6c62 	.inst	0x5f6b6c62 ; undefined
    44e0:	73706f61 	.inst	0x73706f61 ; undefined
    44e4:	50485400 	adr	x0, 94f66 <blk_mq_init_sched+0x9400e>
    44e8:	5541465f 	.inst	0x5541465f ; undefined
    44ec:	465f544c 	.inst	0x465f544c ; undefined
    44f0:	424c4c41 	.inst	0x424c4c41 ; undefined
    44f4:	004b4341 	.inst	0x004b4341 ; undefined
    44f8:	685f7062 	.inst	0x685f7062 ; undefined
    44fc:	65647261 	fnmls	z1.h, p4/m, z19.h, z4.h
    4500:	676e696e 	.inst	0x676e696e ; undefined
    4504:	7461645f 	.inst	0x7461645f ; undefined
    4508:	6c630061 	ldnp	d1, d0, [x3, #-464]
    450c:	5f726165 	.inst	0x5f726165 ; undefined
    4510:	00746962 	.inst	0x00746962 ; undefined
    4514:	78746368 	ldumaxlh	w20, w8, [x27]
    4518:	64676b00 	.inst	0x64676b00 ; undefined
    451c:	61665f62 	.inst	0x61665f62 ; undefined
    4520:	5f746c75 	.inst	0x5f746c75 ; undefined
    4524:	65707865 	fnmls	z5.h, p6/m, z3.h, z16.h
    4528:	64657463 	.inst	0x64657463 ; undefined
    452c:	636d7300 	.inst	0x636d7300 ; undefined
    4530:	745f6363 	.inst	0x745f6363 ; undefined
    4534:	5f676e72 	.inst	0x5f676e72 ; undefined
    4538:	69617661 	ldpsw	x1, x29, [x19, #-248]
    453c:	6c62616c 	ldnp	d12, d24, [x11, #-480]
    4540:	4c420065 	.inst	0x4c420065 ; undefined
    4544:	514d5f4b 	sub	w11, w26, #0x357, lsl #12
    4548:	535f535f 	.inst	0x535f535f ; undefined
    454c:	44454843 	.inst	0x44454843 ; undefined
    4550:	5345525f 	.inst	0x5345525f ; undefined
    4554:	54524154 	.inst	0x54524154 ; undefined
    4558:	44444100 	.inst	0x44444100 ; undefined
    455c:	494c5f52 	.inst	0x494c5f52 ; undefined
    4560:	5f54494d 	.inst	0x5f54494d ; undefined
    4564:	49423233 	.inst	0x49423233 ; undefined
    4568:	74660054 	.inst	0x74660054 ; undefined
    456c:	65636172 	fnmls	z18.h, p0/m, z11.h, z3.h
    4570:	6172675f 	.inst	0x6172675f ; undefined
    4574:	635f6870 	.inst	0x635f6870 ; undefined
    4578:	006c6c61 	.inst	0x006c6c61 ; undefined
    457c:	5f717269 	sqdmlsl	s9, h19, v1.h[3]
    4580:	74617473 	.inst	0x74617473 ; undefined
    4584:	67696d00 	.inst	0x67696d00 ; undefined
    4588:	65746172 	fnmls	z18.h, p0/m, z11.h, z20.h
    458c:	65707974 	fnmls	z20.h, p6/m, z11.h, z16.h
    4590:	725f5f00 	.inst	0x725f5f00 ; undefined
    4594:	695f6665 	ldpsw	x5, x25, [x19, #248]
    4598:	65705f73 	fnmla	z19.h, p7/m, z27.h, z16.h
    459c:	75706372 	.inst	0x75706372 ; undefined
    45a0:	525f5f00 	.inst	0x525f5f00 ; undefined
    45a4:	435f5145 	.inst	0x435f5145 ; undefined
    45a8:	554f5247 	.inst	0x554f5247 ; undefined
    45ac:	55505f50 	.inst	0x55505f50 ; undefined
    45b0:	7400544e 	.inst	0x7400544e ; undefined
    45b4:	5f6b7361 	sqdmlsl	s1, h27, v11.h[2]
    45b8:	75727473 	.inst	0x75727473 ; undefined
    45bc:	6e007463 	.inst	0x6e007463 ; undefined
    45c0:	6e755f6f 	uqrshl	v15.8h, v27.8h, v21.8h
    45c4:	67696c61 	.inst	0x67696c61 ; undefined
    45c8:	5f64656e 	.inst	0x5f64656e ; undefined
    45cc:	6e726177 	rsubhn2	v23.8h, v11.4s, v18.4s
    45d0:	00676e69 	.inst	0x00676e69 ; undefined
    45d4:	706b5f5f 	adr	xzr, db1bf <blk_mq_init_sched+0xda267>
    45d8:	65626f72 	fnmls	z18.h, p3/m, z27.h, z2.h
    45dc:	65745f73 	fnmla	z19.h, p7/m, z27.h, z20.h
    45e0:	735f7478 	.inst	0x735f7478 ; undefined
    45e4:	74726174 	.inst	0x74726174 ; undefined
    45e8:	616d6d00 	.inst	0x616d6d00 ; undefined
    45ec:	6e725f70 	uqrshl	v16.8h, v27.8h, v18.8h
    45f0:	69625f64 	ldpsw	x4, x23, [x27, #-240]
    45f4:	6d5f7374 	ldp	d20, d28, [x27, #496]
    45f8:	5f007861 	.inst	0x5f007861 ; undefined
    45fc:	7570635f 	.inst	0x7570635f ; undefined
    4600:	736f705f 	.inst	0x736f705f ; undefined
    4604:	6c626973 	ldnp	d19, d26, [x11, #-480]
    4608:	616d5f65 	.inst	0x616d5f65 ; undefined
    460c:	5f006b73 	.inst	0x5f006b73 ; undefined
    4610:	3436735f 	cbz	wzr, 71478 <blk_mq_init_sched+0x70520>
    4614:	50435000 	adr	x0, 8b016 <blk_mq_init_sched+0x8a0be>
    4618:	43465f55 	.inst	0x43465f55 ; undefined
    461c:	4741505f 	.inst	0x4741505f ; undefined
    4620:	79730045 	ldrh	w5, [x2, #6528]
    4624:	6c746373 	ldnp	d19, d24, [x27, #-192]
    4628:	756f6d5f 	.inst	0x756f6d5f ; undefined
    462c:	705f746e 	adr	x14, c34bb <blk_mq_init_sched+0xc2563>
    4630:	746e696f 	.inst	0x746e696f ; undefined
    4634:	535f5f00 	.inst	0x535f5f00 ; undefined
    4638:	53415f44 	.inst	0x53415f44 ; undefined
    463c:	435f4d59 	.inst	0x435f4d59 ; undefined
    4640:	41435550 	.inst	0x41435550 ; undefined
    4644:	49434150 	.inst	0x49434150 ; undefined
    4648:	465f5954 	.inst	0x465f5954 ; undefined
    464c:	004c4c55 	.inst	0x004c4c55 ; undefined
    4650:	65646f6e 	fnmls	z14.h, p3/m, z27.h, z4.h
    4654:	6365725f 	.inst	0x6365725f ; undefined
    4658:	6d69616c 	ldp	d12, d24, [x11, #-368]
    465c:	7369645f 	.inst	0x7369645f ; undefined
    4660:	636e6174 	.inst	0x636e6174 ; undefined
    4664:	434b0065 	.inst	0x434b0065 ; undefined
    4668:	41504d4f 	.inst	0x41504d4f ; undefined
    466c:	5f445443 	shl	d3, d2, #4
    4670:	5247494d 	.inst	0x5247494d ; undefined
    4674:	5f455441 	shl	d1, d2, #5
    4678:	4e414353 	.inst	0x4e414353 ; undefined
    467c:	0044454e 	.inst	0x0044454e ; undefined
    4680:	49545248 	.inst	0x49545248 ; undefined
    4684:	5f52454d 	.inst	0x5f52454d ; undefined
    4688:	45534142 	.inst	0x45534142 ; undefined
    468c:	4941545f 	.inst	0x4941545f ; undefined
    4690:	45535200 	.inst	0x45535200 ; undefined
    4694:	56455f51 	.inst	0x56455f51 ; undefined
    4698:	5f544e45 	.inst	0x5f544e45 ; undefined
    469c:	5247494d 	.inst	0x5247494d ; undefined
    46a0:	5f455441 	shl	d1, d2, #5
    46a4:	00544942 	.inst	0x00544942 ; undefined
    46a8:	5f504854 	.inst	0x5f504854 ; undefined
    46ac:	5247494d 	.inst	0x5247494d ; undefined
    46b0:	4f495441 	shl	v1.2d, v2.2d, #9
    46b4:	50535f4e 	adr	x14, ab29e <blk_mq_init_sched+0xaa346>
    46b8:	0054494c 	.inst	0x0054494c ; undefined
    46bc:	655f7073 	fcmne	p3.h, p4/z, z3.h, z31.h
    46c0:	7200306c 	ands	w12, w3, #0x1fff
    46c4:	78696461 	.inst	0x78696461 ; undefined
    46c8:	6572745f 	fnmls	z31.h, p5/m, z2.h, z18.h
    46cc:	72705f65 	.inst	0x72705f65 ; undefined
    46d0:	616f6c65 	.inst	0x616f6c65 ; undefined
    46d4:	72007364 	ands	w4, w27, #0x1fffffff
    46d8:	635f7563 	.inst	0x635f7563 ; undefined
    46dc:	626c6c61 	.inst	0x626c6c61 ; undefined
    46e0:	5f6b6361 	.inst	0x5f6b6361 ; undefined
    46e4:	0070616d 	.inst	0x0070616d ; undefined
    46e8:	4c414750 	.inst	0x4c414750 ; undefined
    46ec:	5f434f4c 	.inst	0x5f434f4c ; undefined
    46f0:	41564f4d 	.inst	0x41564f4d ; undefined
    46f4:	00454c42 	.inst	0x00454c42 ; undefined
    46f8:	5f6b6c62 	.inst	0x5f6b6c62 ; undefined
    46fc:	695f716d 	ldpsw	x13, x28, [x11, #248]
    4700:	68735f73 	.inst	0x68735f73 ; undefined
    4704:	64657261 	.inst	0x64657261 ; undefined
    4708:	6761745f 	.inst	0x6761745f ; undefined
    470c:	5f5f0073 	.inst	0x5f5f0073 ; undefined
    4710:	6e72656b 	umax	v11.8h, v11.8h, v18.8h
    4714:	755f6c65 	.inst	0x755f6c65 ; undefined
    4718:	676e6f6c 	.inst	0x676e6f6c ; undefined
    471c:	7600745f 	.inst	0x7600745f ; undefined
    4720:	6174736d 	.inst	0x6174736d ; undefined
    4724:	65745f74 	fnmla	z20.h, p7/m, z27.h, z20.h
    4728:	72007478 	ands	w24, w3, #0x3fffffff
    472c:	735f7563 	.inst	0x735f7563 ; undefined
    4730:	64656863 	.inst	0x64656863 ; undefined
    4734:	72656c75 	.inst	0x72656c75 ; undefined
    4738:	7463615f 	.inst	0x7463615f ; undefined
    473c:	00657669 	.inst	0x00657669 ; undefined
    4740:	63726570 	.inst	0x63726570 ; undefined
    4744:	725f7570 	.inst	0x725f7570 ; undefined
    4748:	675f6665 	.inst	0x675f6665 ; undefined
    474c:	4e007465 	.inst	0x4e007465 ; undefined
    4750:	525f5445 	.inst	0x525f5445 ; undefined
    4754:	4f535f58 	.inst	0x4f535f58 ; undefined
    4758:	52495446 	.inst	0x52495446 ; undefined
    475c:	69740051 	ldpsw	x17, x0, [x2, #-96]
    4760:	5f72656d 	.inst	0x5f72656d ; undefined
    4764:	74736e75 	.inst	0x74736e75 ; undefined
    4768:	656c6261 	fnmls	z1.h, p0/m, z19.h, z12.h
    476c:	756f635f 	.inst	0x756f635f ; undefined
    4770:	7265746e 	.inst	0x7265746e ; undefined
    4774:	726f775f 	.inst	0x726f775f ; undefined
    4778:	6f72616b 	umlsl2	v11.4s, v11.8h, v2.h[3]
    477c:	00646e75 	.inst	0x00646e75 ; undefined
    4780:	54534750 	.inst	0x54534750 ; undefined
    4784:	5f4c4145 	.inst	0x5f4c4145 ; undefined
    4788:	454c4946 	.inst	0x454c4946 ; undefined
    478c:	57535000 	.inst	0x57535000 ; undefined
    4790:	004e4950 	.inst	0x004e4950 ; undefined
    4794:	61726170 	.inst	0x61726170 ; undefined
    4798:	706f5f6d 	adr	x13, e3387 <blk_mq_init_sched+0xe242f>
    479c:	73755f73 	.inst	0x73755f73 ; undefined
    47a0:	74726f68 	.inst	0x74726f68 ; undefined
    47a4:	616d6b00 	.inst	0x616d6b00 ; undefined
    47a8:	636f6c6c 	.inst	0x636f6c6c ; undefined
    47ac:	6361635f 	.inst	0x6361635f ; undefined
    47b0:	00736568 	.inst	0x00736568 ; undefined
    47b4:	6c616d6b 	ldnp	d11, d27, [x11, #-496]
    47b8:	5f636f6c 	.inst	0x5f636f6c ; undefined
    47bc:	68636163 	.inst	0x68636163 ; undefined
    47c0:	79745f65 	ldrh	w5, [x27, #6702]
    47c4:	61006570 	.inst	0x61006570 ; undefined
    47c8:	5f686372 	.inst	0x5f686372 ; undefined
    47cc:	74736574 	.inst	0x74736574 ; undefined
    47d0:	7469625f 	.inst	0x7469625f ; undefined
    47d4:	636f6c00 	.inst	0x636f6c00 ; undefined
    47d8:	74735f6b 	.inst	0x74735f6b ; undefined
    47dc:	6d007461 	stp	d1, d29, [x3]
    47e0:	645f7861 	fcmla	z1.h, p6/m, z3.h, z31.h, #270
    47e4:	61707369 	.inst	0x61707369 ; undefined
    47e8:	00686374 	.inst	0x00686374 ; undefined
    47ec:	56454e55 	.inst	0x56454e55 ; undefined
    47f0:	41544349 	.inst	0x41544349 ; undefined
    47f4:	5f454c42 	.inst	0x5f454c42 ; undefined
    47f8:	554d4750 	.inst	0x554d4750 ; undefined
    47fc:	434f4c4e 	.inst	0x434f4c4e ; undefined
    4800:	0044454b 	.inst	0x0044454b ; undefined
    4804:	45444750 	.inst	0x45444750 ; undefined
    4808:	45544f4d 	.inst	0x45544f4d ; undefined
    480c:	5249445f 	.inst	0x5249445f ; undefined
    4810:	00544345 	.inst	0x00544345 ; undefined
    4814:	4157534b 	.inst	0x4157534b ; undefined
    4818:	485f4450 	ldxrh	w16, [x2]
    481c:	5f484749 	.inst	0x5f484749 ; undefined
    4820:	52414d57 	.inst	0x52414d57 ; undefined
    4824:	49485f4b 	.inst	0x49485f4b ; undefined
    4828:	55515f54 	.inst	0x55515f54 ; undefined
    482c:	4c4b4349 	.inst	0x4c4b4349 ; undefined
    4830:	70630059 	adr	x25, ca83b <blk_mq_init_sched+0xc98e3>
    4834:	625f7375 	.inst	0x625f7375 ; undefined
    4838:	65746f6f 	fnmls	z15.h, p3/m, z27.h, z20.h
    483c:	6e6f5f64 	uqrshl	v4.8h, v27.8h, v15.8h
    4840:	6d5f6563 	ldp	d3, d25, [x11, #496]
    4844:	006b7361 	.inst	0x006b7361 ; undefined
    4848:	49545248 	.inst	0x49545248 ; undefined
    484c:	5f52454d 	.inst	0x5f52454d ; undefined
    4850:	45534142 	.inst	0x45534142 ; undefined
    4854:	4f4f425f 	.inst	0x4f4f425f ; undefined
    4858:	4d495454 	.inst	0x4d495454 ; undefined
    485c:	4f535f45 	.inst	0x4f535f45 ; undefined
    4860:	62005446 	.inst	0x62005446 ; undefined
    4864:	6d5f6b6c 	ldp	d12, d26, [x27, #496]
    4868:	63735f71 	.inst	0x63735f71 ; undefined
    486c:	5f646568 	.inst	0x5f646568 ; undefined
    4870:	73676174 	.inst	0x73676174 ; undefined
    4874:	6165745f 	.inst	0x6165745f ; undefined
    4878:	776f6472 	.inst	0x776f6472 ; undefined
    487c:	7562006e 	.inst	0x7562006e ; undefined
    4880:	79745f73 	ldrh	w19, [x27, #6702]
    4884:	6c006570 	stnp	d16, d25, [x11]
    4888:	5f747369 	sqdmlsl	s9, h27, v4.h[3]
    488c:	696c7073 	ldpsw	x19, x28, [x3, #-160]
    4890:	745f6563 	.inst	0x745f6563 ; undefined
    4894:	5f6c6961 	.inst	0x5f6c6961 ; undefined
    4898:	74696e69 	.inst	0x74696e69 ; undefined
    489c:	6e617000 	uabdl2	v0.4s, v0.8h, v1.8h
    48a0:	625f6369 	.inst	0x625f6369 ; undefined
    48a4:	6b6e696c 	.inst	0x6b6e696c ; undefined
    48a8:	50485400 	adr	x0, 9532a <blk_mq_init_sched+0x943d2>
    48ac:	4c4f435f 	.inst	0x4c4f435f ; undefined
    48b0:	5350414c 	.inst	0x5350414c ; undefined
    48b4:	4c415f45 	.inst	0x4c415f45 ; undefined
    48b8:	5f434f4c 	.inst	0x5f434f4c ; undefined
    48bc:	4c494146 	.inst	0x4c494146 ; undefined
    48c0:	5f004445 	.inst	0x5f004445 ; undefined
    48c4:	4b4c425f 	sub	wzr, w18, w12, lsr #16
    48c8:	5f41545f 	shl	d31, d2, #1
    48cc:	4c504e55 	.inst	0x4c504e55 ; undefined
    48d0:	545f4755 	.inst	0x545f4755 ; undefined
    48d4:	52454d49 	.inst	0x52454d49 ; undefined
    48d8:	54425700 	b.eq	893b8 <blk_mq_init_sched+0x88460>  // b.none
    48dc:	5157525f 	sub	wsp, w18, #0x5d4, lsl #12
    48e0:	57534b5f 	.inst	0x57534b5f ; undefined
    48e4:	00445041 	.inst	0x00445041 ; undefined
    48e8:	5f514552 	.inst	0x5f514552 ; undefined
    48ec:	465f504f 	.inst	0x465f504f ; undefined
    48f0:	4853554c 	ldxrh	w12, [x10]
    48f4:	63726100 	.inst	0x63726100 ; undefined
    48f8:	74615f68 	.inst	0x74615f68 ; undefined
    48fc:	63696d6f 	.inst	0x63696d6f ; undefined
    4900:	6e6f6c5f 	umin	v31.8h, v2.8h, v15.8h
    4904:	64615f67 	.inst	0x64615f67 ; undefined
    4908:	5f5f0064 	.inst	0x5f5f0064 ; undefined
    490c:	5f514552 	.inst	0x5f514552 ; undefined
    4910:	4f495250 	.inst	0x4f495250 ; undefined
    4914:	5f524e00 	.inst	0x5f524e00 ; undefined
    4918:	4e4f4e41 	.inst	0x4e4f4e41 ; undefined
    491c:	5048545f 	adr	xzr, 953a6 <blk_mq_init_sched+0x9444e>
    4920:	616b0053 	.inst	0x616b0053 ; undefined
    4924:	5f6e6173 	.inst	0x5f6e6173 ; undefined
    4928:	63656863 	.inst	0x63656863 ; undefined
    492c:	72775f6b 	.inst	0x72775f6b ; undefined
    4930:	00657469 	.inst	0x00657469 ; undefined
    4934:	44535f5f 	.inst	0x44535f5f ; undefined
    4938:	4c41425f 	.inst	0x4c41425f ; undefined
    493c:	45434e41 	.inst	0x45434e41 ; undefined
    4940:	4558455f 	.inst	0x4558455f ; undefined
    4944:	5f5f0043 	.inst	0x5f5f0043 ; undefined
    4948:	5f757063 	sqdmlsl	s3, h3, v5.h[3]
    494c:	73657270 	.inst	0x73657270 ; undefined
    4950:	5f746e65 	.inst	0x5f746e65 ; undefined
    4954:	6b73616d 	.inst	0x6b73616d ; undefined
    4958:	72617000 	.inst	0x72617000 ; undefined
    495c:	6f5f6d61 	.inst	0x6f5f6d61 ; undefined
    4960:	625f7370 	.inst	0x625f7370 ; undefined
    4964:	00657479 	.inst	0x00657479 ; undefined
    4968:	73727770 	.inst	0x73727770 ; undefined
    496c:	6e655f77 	uqrshl	v23.8h, v27.8h, v5.8h
    4970:	656c6261 	fnmls	z1.h, p0/m, z19.h, z12.h
    4974:	4d570064 	.inst	0x4d570064 ; undefined
    4978:	5f4b5241 	.inst	0x5f4b5241 ; undefined
    497c:	48474948 	ldxrh	w8, [x10]
    4980:	51455200 	sub	w0, w16, #0x154, lsl #12
    4984:	5f504f5f 	.inst	0x5f504f5f ; undefined
    4988:	5f565244 	.inst	0x5f565244 ; undefined
    498c:	50004e49 	adr	x9, 5356 <blk_mq_init_sched+0x43fe>
    4990:	46455247 	.inst	0x46455247 ; undefined
    4994:	004c4c49 	.inst	0x004c4c49 ; undefined
    4998:	4c425f5f 	.inst	0x4c425f5f ; undefined
    499c:	41545f4b 	.inst	0x41545f4b ; undefined
    49a0:	554f425f 	.inst	0x554f425f ; undefined
    49a4:	0045434e 	.inst	0x0045434e ; undefined
    49a8:	5f504854 	.inst	0x5f504854 ; undefined
    49ac:	5247494d 	.inst	0x5247494d ; undefined
    49b0:	4f495441 	shl	v1.2d, v2.2d, #9
    49b4:	41465f4e 	.inst	0x41465f4e ; undefined
    49b8:	52004c49 	eor	w9, w2, #0xfffff
    49bc:	5f514553 	.inst	0x5f514553 ; undefined
    49c0:	4e455645 	.inst	0x4e455645 ; undefined
    49c4:	49535f54 	.inst	0x49535f54 ; undefined
    49c8:	4c414e47 	.inst	0x4c414e47 ; undefined
    49cc:	5449425f 	.inst	0x5449425f ; undefined
    49d0:	44495000 	.inst	0x44495000 ; undefined
    49d4:	45505954 	.inst	0x45505954 ; undefined
    49d8:	58414d5f 	ldr	xzr, 87380 <blk_mq_init_sched+0x86428>
    49dc:	46475000 	.inst	0x46475000 ; undefined
    49e0:	544c5541 	b.ne	9d488 <blk_mq_init_sched+0x9c530>  // b.any
    49e4:	6c5f5f00 	ldnp	d0, d23, [x24, #496]
    49e8:	615f6573 	.inst	0x615f6573 ; undefined
    49ec:	696d6f74 	ldpsw	x20, x27, [x27, #-152]
    49f0:	5f343663 	.inst	0x5f343663 ; undefined
    49f4:	6300726f 	.inst	0x6300726f ; undefined
    49f8:	61706d6f 	.inst	0x61706d6f ; undefined
    49fc:	6c655f74 	ldnp	d20, d23, [x27, #-432]
    4a00:	77685f66 	.inst	0x77685f66 ; undefined
    4a04:	32706163 	.inst	0x32706163 ; undefined
    4a08:	635f5f00 	.inst	0x635f5f00 ; undefined
    4a0c:	695f7061 	ldpsw	x1, x28, [x3, #248]
    4a10:	5f74696e 	.inst	0x5f74696e ; undefined
    4a14:	5f666665 	.inst	0x5f666665 ; undefined
    4a18:	00746573 	.inst	0x00746573 ; undefined
    4a1c:	54535144 	b.mi	ab444 <blk_mq_init_sched+0xaa4ec>  // b.first
    4a20:	4341435f 	.inst	0x4341435f ; undefined
    4a24:	485f4548 	ldxrh	w8, [x10]
    4a28:	00535449 	.inst	0x00535449 ; undefined
    4a2c:	5f6b6c62 	.inst	0x5f6b6c62 ; undefined
    4a30:	75657571 	.inst	0x75657571 ; undefined
    4a34:	64695f65 	.inst	0x64695f65 ; undefined
    4a38:	79730061 	ldrh	w1, [x3, #6528]
    4a3c:	6c746373 	ldnp	d19, d24, [x27, #-192]
    4a40:	65766f5f 	fnmls	z31.h, p3/m, z26.h, z22.h
    4a44:	6d6f6372 	ldp	d18, d24, [x27, #-272]
    4a48:	5f74696d 	.inst	0x5f74696d ; undefined
    4a4c:	7479626b 	.inst	0x7479626b ; undefined
    4a50:	61007365 	.inst	0x61007365 ; undefined
    4a54:	34366d72 	cbz	w18, 71800 <blk_mq_init_sched+0x708a8>
    4a58:	7274665f 	.inst	0x7274665f ; undefined
    4a5c:	6765725f 	.inst	0x6765725f ; undefined
    4a60:	646f6d00 	.inst	0x646f6d00 ; undefined
    4a64:	5f656c75 	.inst	0x5f656c75 ; undefined
    4a68:	6f6c6c61 	.inst	0x6f6c6c61 ; undefined
    4a6c:	61625f63 	.inst	0x61625f63 ; undefined
    4a70:	50006573 	adr	x19, 571e <blk_mq_init_sched+0x47c6>
    4a74:	41435347 	.inst	0x41435347 ; undefined
    4a78:	4b535f4e 	sub	w14, w26, w19, lsr #23
    4a7c:	4d5f5049 	.inst	0x4d5f5049 ; undefined
    4a80:	4241564f 	.inst	0x4241564f ; undefined
    4a84:	5f00454c 	.inst	0x5f00454c ; undefined
    4a88:	766e695f 	.inst	0x766e695f ; undefined
    4a8c:	64696c61 	.inst	0x64696c61 ; undefined
    4a90:	7a69735f 	.inst	0x7a69735f ; undefined
    4a94:	72615f65 	.inst	0x72615f65 ; undefined
    4a98:	656d7567 	fnmls	z7.h, p5/m, z11.h, z13.h
    4a9c:	665f746e 	.inst	0x665f746e ; undefined
    4aa0:	495f726f 	.inst	0x495f726f ; undefined
    4aa4:	5f00434f 	.inst	0x5f00434f ; undefined
    4aa8:	3631755f 	tbz	wzr, #6, 7950 <blk_mq_init_sched+0x69f8>
    4aac:	70637000 	adr	x0, cb8af <blk_mq_init_sched+0xca957>
    4ab0:	6e755f75 	uqrshl	v21.8h, v27.8h, v21.8h
    4ab4:	6f5f7469 	uqshl	v9.2d, v3.2d, #31
    4ab8:	65736666 	fnmls	z6.h, p1/m, z19.h, z19.h
    4abc:	6b007374 	subs	w20, w27, w0, lsl #28
    4ac0:	656e7265 	fnmls	z5.h, p4/m, z19.h, z14.h
    4ac4:	61705f6c 	.inst	0x61705f6c ; undefined
    4ac8:	006d6172 	.inst	0x006d6172 ; undefined
    4acc:	45525f5f 	.inst	0x45525f5f ; undefined
    4ad0:	59535f51 	.inst	0x59535f51 ; undefined
    4ad4:	5f00434e 	.inst	0x5f00434e ; undefined
    4ad8:	4b4c425f 	sub	wzr, w18, w12, lsr #16
    4adc:	5f41545f 	shl	d31, d2, #1
    4ae0:	414d4552 	.inst	0x414d4552 ; undefined
    4ae4:	6d6d0050 	ldp	d16, d0, [x2, #-304]
    4ae8:	725f7061 	.inst	0x725f7061 ; undefined
    4aec:	625f646e 	.inst	0x625f646e ; undefined
    4af0:	5f737469 	sqshl	d9, d3, #51
    4af4:	006e696d 	.inst	0x006e696d ; undefined
    4af8:	646e6172 	.inst	0x646e6172 ; undefined
    4afc:	7a696d6f 	.inst	0x7a696d6f ; undefined
    4b00:	61765f65 	.inst	0x61765f65 ; undefined
    4b04:	6170735f 	.inst	0x6170735f ; undefined
    4b08:	5f006563 	.inst	0x5f006563 ; undefined
    4b0c:	696e695f 	ldpsw	xzr, x26, [x10, #-144]
    4b10:	6e655f74 	uqrshl	v20.8h, v27.8h, v5.8h
    4b14:	47500064 	.inst	0x47500064 ; undefined
    4b18:	49544341 	.inst	0x49544341 ; undefined
    4b1c:	45544156 	.inst	0x45544156 ; undefined
    4b20:	5f524e00 	.inst	0x5f524e00 ; undefined
    4b24:	52414d57 	.inst	0x52414d57 ; undefined
    4b28:	6c62004b 	ldnp	d11, d0, [x2, #-480]
    4b2c:	75715f6b 	.inst	0x75715f6b ; undefined
    4b30:	5f657565 	sqshl	d5, d11, #37
    4b34:	7079746b 	adr	x11, f79c3 <blk_mq_init_sched+0xf6a6b>
    4b38:	616d0065 	.inst	0x616d0065 ; undefined
    4b3c:	6f705f78 	.inst	0x6f705f78 ; undefined
    4b40:	62697373 	.inst	0x62697373 ; undefined
    4b44:	705f656c 	adr	x12, c37f3 <blk_mq_init_sched+0xc289b>
    4b48:	52006e66 	eor	w6, w19, #0xfffffff
    4b4c:	535f5543 	.inst	0x535f5543 ; undefined
    4b50:	4954464f 	.inst	0x4954464f ; undefined
    4b54:	5f005152 	fmls	h18, h10, v0.h[0]
    4b58:	3233755f 	orr	wsp, w10, #0xffffe7ff
    4b5c:	46475000 	.inst	0x46475000 ; undefined
    4b60:	00454552 	.inst	0x00454552 ; undefined
    4b64:	6d757063 	ldp	d3, d28, [x3, #-176]
    4b68:	5f6b7361 	sqdmlsl	s1, h27, v11.h[2]
    4b6c:	6e690074 	uaddl2	v20.4s, v3.8h, v9.8h
    4b70:	735f7469 	.inst	0x735f7469 ; undefined
    4b74:	6b636174 	.inst	0x6b636174 ; undefined
    4b78:	6d697300 	ldp	d0, d28, [x24, #-368]
    4b7c:	5f656c70 	.inst	0x5f656c70 ; undefined
    4b80:	5f726964 	.inst	0x5f726964 ; undefined
    4b84:	7265706f 	.inst	0x7265706f ; undefined
    4b88:	6f697461 	uqshl	v1.2d, v3.2d, #41
    4b8c:	6d00736e 	stp	d14, d28, [x27]
    4b90:	6c75646f 	ldnp	d15, d25, [x3, #-176]
    4b94:	65755f65 	fnmla	z5.h, p7/m, z27.h, z21.h
    4b98:	746e6576 	.inst	0x746e6576 ; undefined
    4b9c:	525f5f00 	.inst	0x525f5f00 ; undefined
    4ba0:	465f5145 	.inst	0x465f5145 ; undefined
    4ba4:	70004155 	adr	x21, 53cf <blk_mq_init_sched+0x4477>
    4ba8:	70637265 	adr	x5, cb9f7 <blk_mq_init_sched+0xcaa9f>
    4bac:	65725f75 	fnmla	z21.h, p7/m, z27.h, z18.h
    4bb0:	75705f66 	.inst	0x75705f66 ; undefined
    4bb4:	755f0074 	.inst	0x755f0074 ; undefined
    4bb8:	6573756e 	fnmls	z14.h, p5/m, z11.h, z19.h
    4bbc:	6f6e5f64 	.inst	0x6f6e5f64 ; undefined
    4bc0:	616d6564 	.inst	0x616d6564 ; undefined
    4bc4:	615f6b73 	.inst	0x615f6b73 ; undefined
    4bc8:	005f6772 	.inst	0x005f6772 ; undefined
    4bcc:	72745f5f 	.inst	0x72745f5f ; undefined
    4bd0:	70656361 	adr	x1, cf83f <blk_mq_init_sched+0xce8e7>
    4bd4:	746e696f 	.inst	0x746e696f ; undefined
    4bd8:	6761705f 	.inst	0x6761705f ; undefined
    4bdc:	65725f65 	fnmla	z5.h, p7/m, z27.h, z18.h
    4be0:	6f6d5f66 	.inst	0x6f6d5f66 ; undefined
    4be4:	6e755f64 	uqrshl	v4.8h, v27.8h, v21.8h
    4be8:	7373656c 	.inst	0x7373656c ; undefined
    4bec:	6c696600 	ldnp	d0, d25, [x16, #-368]
    4bf0:	79735f65 	ldrh	w5, [x27, #6574]
    4bf4:	6d657473 	ldp	d19, d29, [x3, #-432]
    4bf8:	7079745f 	adr	xzr, f7a83 <blk_mq_init_sched+0xf6b2b>
    4bfc:	61700065 	.inst	0x61700065 ; undefined
    4c00:	635f6567 	.inst	0x635f6567 ; undefined
    4c04:	7473756c 	.inst	0x7473756c ; undefined
    4c08:	54007265 	b.pl	5a54 <blk_mq_init_sched+0x4afc>  // b.nfrst
    4c0c:	465f5048 	.inst	0x465f5048 ; undefined
    4c10:	5f454c49 	.inst	0x5f454c49 ; undefined
    4c14:	4c4c4146 	.inst	0x4c4c4146 ; undefined
    4c18:	4b434142 	sub	w2, w10, w3, lsr #16
    4c1c:	64697000 	.inst	0x64697000 ; undefined
    4c20:	665f6466 	.inst	0x665f6466 ; undefined
    4c24:	0073706f 	.inst	0x0073706f ; undefined
    4c28:	505f524e 	adr	x14, c3672 <blk_mq_init_sched+0xc271a>
    4c2c:	54454741 	b.ne	8f514 <blk_mq_init_sched+0x8e5bc>  // b.any
    4c30:	454c4241 	.inst	0x454c4241 ; undefined
    4c34:	65687400 	fnmls	z0.h, p5/m, z0.h, z8.h
    4c38:	6c616d72 	ldnp	d18, d27, [x11, #-496]
    4c3c:	6572705f 	fnmls	z31.h, p4/m, z2.h, z18.h
    4c40:	72757373 	.inst	0x72757373 ; undefined
    4c44:	61700065 	.inst	0x61700065 ; undefined
    4c48:	5f6d6172 	.inst	0x5f6d6172 ; undefined
    4c4c:	5f73706f 	sqdmlsl	s15, h3, v3.h[3]
    4c50:	00746e69 	.inst	0x00746e69 ; undefined
    4c54:	646f6e69 	.inst	0x646f6e69 ; undefined
    4c58:	735f7365 	.inst	0x735f7365 ; undefined
    4c5c:	5f746174 	.inst	0x5f746174 ; undefined
    4c60:	72610074 	.inst	0x72610074 ; undefined
    4c64:	5f34366d 	.inst	0x5f34366d ; undefined
    4c68:	6d73696d 	ldp	d13, d26, [x11, #-208]
    4c6c:	68637461 	.inst	0x68637461 ; undefined
    4c70:	335f6465 	.inst	0x335f6465 ; undefined
    4c74:	74696232 	.inst	0x74696232 ; undefined
    4c78:	306c655f 	adr	xzr, dd921 <blk_mq_init_sched+0xdc9c9>
    4c7c:	736e7500 	.inst	0x736e7500 ; undefined
    4c80:	656e6769 	fnmls	z9.h, p1/m, z27.h, z14.h
    4c84:	6e692064 	usubl2	v4.4s, v3.8h, v9.8h
    4c88:	6f6d0074 	mla	v20.8h, v3.8h, v13.h[2]
    4c8c:	6c626176 	ldnp	d22, d24, [x11, #-480]
    4c90:	6f7a5f65 	.inst	0x6f7a5f65 ; undefined
    4c94:	7200656e 	ands	w14, w11, #0x3ffffff
    4c98:	756f7365 	.inst	0x756f7365 ; undefined
    4c9c:	00656372 	.inst	0x00656372 ; undefined
    4ca0:	6b636974 	.inst	0x6b636974 ; undefined
    4ca4:	7665645f 	.inst	0x7665645f ; undefined
    4ca8:	00656369 	.inst	0x00656369 ; undefined

Disassembly of section .comment:

0000000000000000 <.comment>:

   0:	43434700 	.inst	0x43434700 ; undefined
	struct request *rqb = container_of(b, struct request, queuelist);
   4:	4c28203a 	.inst	0x4c28203a ; undefined

   8:	72616e69 	.inst	0x72616e69 ; undefined
static bool blk_mq_dispatch_hctx_list(struct list_head *rq_list)
   c:	4347206f 	.inst	0x4347206f ; undefined

  10:	2e372043 	usubl	v3.8h, v2.8b, v23.8b
static bool blk_mq_dispatch_hctx_list(struct list_head *rq_list)
  14:	30322d35 	adr	x21, 645b9 <blk_mq_init_sched+0x63661>
  18:	312e3931 	adds	w17, w9, #0xb8e
  1c:	37202932 	tbnz	w18, #4, 540 <blk_mq_do_dispatch_ctx+0x140>
static inline bool rq_mergeable(struct request *rq)
  20:	302e352e 	adr	x14, 5c6c5 <blk_mq_init_sched+0x5b76d>
	...

Disassembly of section .debug_frame:

0000000000000000 <.debug_frame>:

   0:	0000000c 	.inst	0x0000000c ; undefined
	struct request *rqb = container_of(b, struct request, queuelist);
   4:	ffffffff 	.inst	0xffffffff ; undefined

   8:	78040001 	sturh	w1, [x0, #64]
static bool blk_mq_dispatch_hctx_list(struct list_head *rq_list)
   c:	001f0c1e 	.inst	0x001f0c1e ; undefined

  10:	0000001c 	.word	0x0000001c
	...
  20:	0000001c 	.word	0x0000001c
		return false;
  24:	00000000 	.word	0x00000000
  28:	2d422d42 	.word	0x2d422d42
  2c:	00000000 	.word	0x00000000
  30:	0000002c 	.word	0x0000002c
	...
		return false;
  40:	00000078 	.word	0x00000078
  44:	00000000 	.word	0x00000000
{
  48:	0e412d56 	.word	0x0e412d56
  4c:	9e029d10 	.word	0x9e029d10
		return false;
  50:	1d0d4101 	.word	0x1d0d4101
  54:	0cddde44 	.word	0x0cddde44
  58:	2d41001f 	.word	0x2d41001f
  5c:	00000000 	.word	0x00000000
	if (rq->cmd_flags & REQ_NOMERGE_FLAGS)
  60:	00000054 	.word	0x00000054
	...
  70:	000002cc 	.word	0x000002cc
static bool blk_mq_sched_bypass_insert(struct blk_mq_hw_ctx *hctx,
  74:	00000000 	.word	0x00000000
  78:	0e412d41 	.word	0x0e412d41
  7c:	149d01a0 	.word	0x149d01a0
				       struct request *rq)
  80:	0d41139e 	.word	0x0d41139e
  84:	1293411d 	.word	0x1293411d
{
  88:	95461194 	.word	0x95461194
  8c:	970f9610 	.word	0x970f9610
  90:	990d980e 	.word	0x990d980e
  94:	420b9a0c 	.word	0x420b9a0c
	struct elevator_queue *e = q->elevator;
  98:	099c0a9b 	.word	0x099c0a9b
  9c:	de0a4102 	.word	0xde0a4102
  a0:	d9dcdbdd 	.word	0xd9dcdbdd
  a4:	d5d8d7da 	.word	0xd5d8d7da
  a8:	0cd4d3d6 	.word	0x0cd4d3d6
  ac:	2d41001f 	.word	0x2d41001f
  b0:	00000b41 	.word	0x00000b41
  b4:	00000000 	.word	0x00000000
  b8:	0000003c 	.word	0x0000003c
	...
  c8:	00000098 	.word	0x00000098
	bool multi_hctxs = false, run_queue = false;
  cc:	00000000 	.word	0x00000000
	struct elevator_queue *e = q->elevator;
  d0:	0e412d41 	.word	0x0e412d41
  d4:	9e069d30 	.word	0x9e069d30
  d8:	1d0d4105 	.word	0x1d0d4105
	else
  dc:	42039441 	.word	0x42039441
	bool dispatched = false, busy = false;
  e0:	93440196 	.word	0x93440196

  e4:	02954204 	.word	0x02954204
	else
  e8:	d541d350 	.word	0xd541d350
	do {
  ec:	d6ddde47 	.word	0xd6ddde47
			break;
  f0:	001f0cd4 	.word	0x001f0cd4
		max_dispatch = hctx->queue->nr_requests;
  f4:	00002d41 	.word	0x00002d41
  f8:	0000004c 	.word	0x0000004c
	...

 108:	000001b4 	.word	0x000001b4
 10c:	00000000 	.word	0x00000000
 110:	0e412d41 	.word	0x0e412d41
 114:	109d0180 	.word	0x109d0180
 118:	0d410f9e 	.word	0x0d410f9e
	struct list_head *next = smp_load_acquire(&head->next);
 11c:	0e93411d 	.word	0x0e93411d
	return (next == head) && (next == head->prev);
 120:	95440d94 	.word	0x95440d94
 124:	970b960c 	.word	0x970b960c
 128:	4409980a 	.word	0x4409980a
 12c:	079a0899 	.word	0x079a0899
 130:	5c02069b 	.word	0x5c02069b

 134:	dbddde0a 	.word	0xdbddde0a
 138:	d8d7dad9 	.word	0xd8d7dad9
 13c:	d4d3d6d5 	.word	0xd4d3d6d5
static inline void blk_mq_set_rq_budget_token(struct request *rq, int token)
 140:	41001f0c 	.word	0x41001f0c
 144:	000b412d 	.word	0x000b412d
 148:	0000001c 	.word	0x0000001c
	...
			blk_mq_put_dispatch_budget(q, budget_token);
 158:	00000040 	.word	0x00000040
 15c:	00000000 	.word	0x00000000
 160:	2d462d45 	.word	0x2d462d45
			/*
 164:	00002d44 	.word	0x00002d44
static inline int blk_mq_get_dispatch_budget(struct request_queue *q)
 168:	00000044 	.word	0x00000044
	...
{
 178:	000001f0 	.word	0x000001f0
 17c:	00000000 	.word	0x00000000
			blk_mq_delay_run_hw_queues(q, BLK_MQ_BUDGET_DELAY);
 180:	0e412d41 	.word	0x0e412d41
		/*
 184:	9e0c9d60 	.word	0x9e0c9d60
 188:	1d0d410b 	.word	0x1d0d410b
 18c:	940a9341 	.word	0x940a9341
 190:	08954209 	.word	0x08954209
 194:	97420796 	.word	0x97420796
static int blk_mq_do_dispatch_sched(struct blk_mq_hw_ctx *hctx)
 198:	de0a7d06 	.word	0xde0a7d06
 19c:	d6d5d7dd 	.word	0xd6d5d7dd
 1a0:	1f0cd4d3 	.word	0x1f0cd4d3
 1a4:	412d4100 	.word	0x412d4100
 1a8:	0000000b 	.word	0x0000000b
 1ac:	00000000 	.word	0x00000000
 1b0:	0000005c 	.word	0x0000005c
	...
 1c0:	000000a8 	.word	0x000000a8
 1c4:	00000000 	.word	0x00000000
 1c8:	0e412d41 	.word	0x0e412d41
 1cc:	9e089d40 	.word	0x9e089d40
 1d0:	1d0d4207 	.word	0x1d0d4207
static inline int blk_mq_get_rq_budget_token(struct request *rq)
 1d4:	43059441 	.word	0x43059441
 1d8:	96420693 	.word	0x96420693
 1dc:	41049503 	.word	0x41049503
 1e0:	d34f0297 	.word	0xd34f0297
 1e4:	41d5d641 	.word	0x41d5d641
{
 1e8:	ddde42d7 	.word	0xddde42d7
 1ec:	001f0cd4 	.word	0x001f0cd4
 1f0:	0c412d41 	.word	0x0c412d41
	__list_add(new, head->prev, head);
 1f4:	0693401d 	.word	0x0693401d
		if (rq->mq_hctx != hctx)
 1f8:	04950594 	.word	0x04950594
	new->prev = prev;
 1fc:	02970396 	.word	0x02970396
	} while (count < max_dispatch);
 200:	079e089d 	.word	0x079e089d
	next->prev = new;
 204:	d641d347 	.word	0xd641d347
			multi_hctxs = true;
 208:	00d741d5 	.word	0x00d741d5
	WRITE_ONCE(prev->next, new);
 20c:	00000000 	.word	0x00000000

 210:	00000034 	.word	0x00000034
	...
	} while (count < max_dispatch);
 220:	0000006c 	.word	0x0000006c
 224:	00000000 	.word	0x00000000
	if (!count) {
 228:	0e412d45 	.word	0x0e412d45
 22c:	9e029d10 	.word	0x9e029d10
			blk_mq_delay_run_hw_queues(q, BLK_MQ_BUDGET_DELAY);
 230:	1d0d4201 	.word	0x1d0d4201
	LIST_HEAD(rq_list);
 234:	ddde0a48 	.word	0xddde0a48
		 * Requests from different hctx may be dequeued from some
 238:	41001f0c 	.word	0x41001f0c
			dispatched |= blk_mq_dispatch_hctx_list(&rq_list);
 23c:	470b412d 	.word	0x470b412d
 240:	1f0cddde 	.word	0x1f0cddde
	LIST_HEAD(rq_list);
 244:	002d4100 	.word	0x002d4100
			dispatched |= blk_mq_dispatch_hctx_list(&rq_list);
 248:	0000003c 	.word	0x0000003c
	...
	LIST_HEAD(hctx_list);
 258:	00000078 	.word	0x00000078
			list_cut_before(&hctx_list, rq_list, &rq->queuelist);
 25c:	00000000 	.word	0x00000000
 260:	0e412d47 	.word	0x0e412d47
	struct request *rq;
 264:	9e049d20 	.word	0x9e049d20
			list_cut_before(&hctx_list, rq_list, &rq->queuelist);
 268:	1d0d4103 	.word	0x1d0d4103

 26c:	49029341 	.word	0x49029341
			list_cut_before(&hctx_list, rq_list, &rq->queuelist);
 270:	d3ddde0a 	.word	0xd3ddde0a
			goto dispatch;
 274:	41001f0c 	.word	0x41001f0c
	list_for_each_entry(rq, rq_list, queuelist) {
 278:	480b412d 	.word	0x480b412d
			goto dispatch;
 27c:	d3001f0c 	.word	0xd3001f0c
 280:	0000dedd 	.word	0x0000dedd
 284:	00000000 	.word	0x00000000
 288:	00000074 	.word	0x00000074
	...
	list_splice_tail_init(rq_list, &hctx_list);
 298:	00000178 	.word	0x00000178
			list_cut_before(&hctx_list, rq_list, &rq->queuelist);
 29c:	00000000 	.word	0x00000000
 2a0:	0e412d41 	.word	0x0e412d41
 2a4:	9e089d40 	.word	0x9e089d40
 2a8:	1d0d4107 	.word	0x1d0d4107
	return READ_ONCE(head->next) == head;
 2ac:	42059441 	.word	0x42059441
	if (!list_empty(list)) {
 2b0:	02970396 	.word	0x02970396
 2b4:	ddde0a4d 	.word	0xddde0a4d
	struct list_head *last = list->prev;
 2b8:	0cd4d7d6 	.word	0x0cd4d7d6
	prev->next = first;
 2bc:	2d41001f 	.word	0x2d41001f
	first->prev = prev;
 2c0:	93410b41 	.word	0x93410b41
	last->next = next;
 2c4:	04955206 	.word	0x04955206
	WRITE_ONCE(list->next, list);
 2c8:	d541d359 	.word	0xd541d359
	list->prev = list;
 2cc:	d6ddde43 	.word	0xd6ddde43
	next->prev = last;
 2d0:	1f0cd4d7 	.word	0x1f0cd4d7

 2d4:	412d4100 	.word	0x412d4100
 2d8:	93401d0c 	.word	0x93401d0c
	return READ_ONCE(head->next) == head;
 2dc:	96059406 	.word	0x96059406
 2e0:	9d029703 	.word	0x9d029703
	} else {
 2e4:	49079e08 	.word	0x49079e08
		dispatched = blk_mq_dispatch_rq_list(hctx, &rq_list, count);
 2e8:	d5460495 	.word	0xd5460495
 2ec:	de44d342 	.word	0xde44d342
	return !!dispatched;
 2f0:	d4d7d6dd 	.word	0xd4d7d6dd
}
 2f4:	41001f0c 	.word	0x41001f0c
 2f8:	0000002d 	.word	0x0000002d
{
 2fc:	00000000 	.word	0x00000000
 300:	00000044 	.word	0x00000044
	...
	list->prev = entry->prev;
 310:	00000124 	.word	0x00000124
 314:	00000000 	.word	0x00000000
	list->prev->next = list;
 318:	0e412d41 	.word	0x0e412d41
	entry->prev = head;
 31c:	9e0e9d70 	.word	0x9e0e9d70
	head->next = entry;
 320:	1d0d420d 	.word	0x1d0d420d
 324:	940c9341 	.word	0x940c9341
			blk_mq_delay_run_hw_queues(q, BLK_MQ_BUDGET_DELAY);
 328:	0a95440b 	.word	0x0a95440b
 32c:	08970996 	.word	0x08970996
		 * Requests from different hctx may be dequeued from some
 330:	0a6d0798 	.word	0x0a6d0798

 334:	d8d7ddde 	.word	0xd8d7ddde
 338:	d4d3d6d5 	.word	0xd4d3d6d5
 33c:	41001f0c 	.word	0x41001f0c
 340:	000b412d 	.word	0x000b412d
 344:	00000000 	.word	0x00000000
	return !!dispatched;
 348:	00000054 	.word	0x00000054
	...
	list_for_each_entry(rq, rq_list, queuelist) {
 358:	000001f0 	.word	0x000001f0
 35c:	00000000 	.word	0x00000000
static int blk_mq_do_dispatch_sched(struct blk_mq_hw_ctx *hctx)
 360:	0e412d41 	.word	0x0e412d41
 364:	9e089d40 	.word	0x9e089d40
		if (hctx->sched_tags) {
 368:	1d0d4107 	.word	0x1d0d4107
 36c:	94069341 	.word	0x94069341
 370:	04954205 	.word	0x04954205
 374:	97420396 	.word	0x97420396
 378:	de0a7d02 	.word	0xde0a7d02
 37c:	d6d5d7dd 	.word	0xd6d5d7dd
 380:	1f0cd4d3 	.word	0x1f0cd4d3
		}
 384:	412d4100 	.word	0x412d4100
 388:	de0a470b 	.word	0xde0a470b
 38c:	d6d5d7dd 	.word	0xd6d5d7dd
 390:	1f0cd4d3 	.word	0x1f0cd4d3
 394:	412d4100 	.word	0x412d4100
 398:	0000000b 	.word	0x0000000b
		blk_mq_exit_sched_shared_tags(q);
 39c:	00000000 	.word	0x00000000
 3a0:	00000044 	.word	0x00000044
	...
		}
 3b0:	00000090 	.word	0x00000090
 3b4:	00000000 	.word	0x00000000
	}
 3b8:	0e412d41 	.word	0x0e412d41
 3bc:	9e049d20 	.word	0x9e049d20

 3c0:	1d0d4103 	.word	0x1d0d4103
{
 3c4:	45019441 	.word	0x45019441
 3c8:	d3500293 	.word	0xd3500293
	if (blk_mq_is_shared_tags(flags))
 3cc:	d4ddde42 	.word	0xd4ddde42
 3d0:	41001f0c 	.word	0x41001f0c
 3d4:	1d0c412d 	.word	0x1d0c412d
 3d8:	9d019420 	.word	0x9d019420
{
 3dc:	45039e04 	.word	0x45039e04
static void blk_mq_sched_tags_teardown(struct request_queue *q, unsigned int flags)
 3e0:	0cd4ddde 	.word	0x0cd4ddde
 3e4:	2d41001f 	.word	0x2d41001f
{
 3e8:	0000003c 	.word	0x0000003c
	...

 3f8:	000000bc 	.word	0x000000bc
 3fc:	00000000 	.word	0x00000000
	LIST_HEAD(rq_list);
 400:	0e412d41 	.word	0x0e412d41
 404:	9e069d30 	.word	0x9e069d30
 408:	1d0d4105 	.word	0x1d0d4105
 40c:	95039441 	.word	0x95039441
 410:	01964202 	.word	0x01964202
 414:	55049344 	.word	0x55049344
 418:	ddde4ed3 	.word	0xddde4ed3
 41c:	0cd5d4d6 	.word	0x0cd5d4d6
 420:	2d41001f 	.word	0x2d41001f
 424:	00000000 	.word	0x00000000
 428:	0000008c 	.word	0x0000008c
	...
	int ret = 0;
 438:	000001f8 	.word	0x000001f8
	LIST_HEAD(rq_list);
 43c:	00000000 	.word	0x00000000
 440:	0e412d41 	.word	0x0e412d41
 444:	9e089d40 	.word	0x9e089d40
	struct blk_mq_ctx *ctx = READ_ONCE(hctx->dispatch_from);
 448:	1d0d4107 	.word	0x1d0d4107
	struct request *rq;
 44c:	42019842 	.word	0x42019842
 450:	97420693 	.word	0x97420693
static inline void blk_mq_set_rq_budget_token(struct request *rq, int token)
 454:	4a039602 	.word	0x4a039602
 458:	95440594 	.word	0x95440594
 45c:	41d55304 	.word	0x41d55304

 460:	059448d4 	.word	0x059448d4
			blk_mq_put_dispatch_budget(q, budget_token);
 464:	41049542 	.word	0x41049542
 468:	d3d44dd5 	.word	0xd3d44dd5
 46c:	43d6d741 	.word	0x43d6d741
 470:	d8ddde0a 	.word	0xd8ddde0a
			/*
 474:	41001f0c 	.word	0x41001f0c
static inline int blk_mq_get_rq_budget_token(struct request *rq)
 478:	470b412d 	.word	0x470b412d
 47c:	0cd8ddde 	.word	0x0cd8ddde
 480:	2d41001f 	.word	0x2d41001f
 484:	401d0c41 	.word	0x401d0c41
{
 488:	05940693 	.word	0x05940693
 48c:	02970396 	.word	0x02970396
 490:	089d0198 	.word	0x089d0198
	__list_add(new, head, head->next);
 494:	9546079e 	.word	0x9546079e
		/* round robin for fair dispatch */
 498:	d70a5b04 	.word	0xd70a5b04
	WRITE_ONCE(prev->next, new);
 49c:	41d3d441 	.word	0x41d3d441
	WRITE_ONCE(hctx->dispatch_from, ctx);
 4a0:	0b41d5d6 	.word	0x0b41d5d6
 4a4:	41d3d441 	.word	0x41d3d441
	next->prev = new;
 4a8:	d741d5d6 	.word	0xd741d5d6
	new->prev = prev;
 4ac:	96069341 	.word	0x96069341
	if (++idx == hctx->nr_ctx)
 4b0:	42029703 	.word	0x42029703
 4b4:	d6d741d3 	.word	0xd6d741d3
